
kernel.elf:	file format elf32-littleriscv

Disassembly of section .init:

80000000 <_start>:
80000000: f3 22 10 fc  	csrr	t0, nw
80000004: 17 03 00 00  	auipc	t1, 0
80000008: 13 03 c3 35  	addi	t1, t1, 860
8000000c: 0b 90 62 00  	vx_wspawn	t0, t1
80000010: 93 02 f0 ff  	li	t0, -1
80000014: 0b 80 02 00  	vx_tmc	t0
80000018: ef 00 40 31  	jal	0x8000032c <init_regs>
8000001c: 93 02 10 00  	li	t0, 1
80000020: 0b 80 02 00  	vx_tmc	t0
80000024: ef 00 40 36  	jal	0x80000388 <vx_wspawn_wait>
80000028: f3 22 10 fc  	csrr	t0, nw
8000002c: 17 03 00 00  	auipc	t1, 0
80000030: 13 03 83 34  	addi	t1, t1, 840
80000034: 0b 90 62 00  	vx_wspawn	t0, t1
80000038: 93 02 f0 ff  	li	t0, -1
8000003c: 0b 80 02 00  	vx_tmc	t0
80000040: ef 00 80 35  	jal	0x80000398 <__init_tls>
80000044: 93 02 10 00  	li	t0, 1
80000048: 0b 80 02 00  	vx_tmc	t0
8000004c: ef 00 c0 33  	jal	0x80000388 <vx_wspawn_wait>
80000050: 17 75 00 00  	auipc	a0, 7
80000054: 13 05 c5 47  	addi	a0, a0, 1148
80000058: 17 86 00 00  	auipc	a2, 8
8000005c: 13 06 46 47  	addi	a2, a2, 1140
80000060: 33 06 a6 40  	sub	a2, a2, a0
80000064: 93 05 00 00  	li	a1, 0
80000068: ef 20 50 50  	jal	0x80002d6c <memset>
8000006c: 17 05 00 00  	auipc	a0, 0
80000070: 13 05 45 40  	addi	a0, a0, 1028
80000074: ef 20 10 34  	jal	0x80002bb4 <atexit>
80000078: ef 00 40 36  	jal	0x800003dc <__libc_init_array>
8000007c: ef 00 00 27  	jal	0x800002ec <main>
80000080: 6f 00 40 00  	j	0x80000084 <exit>

Disassembly of section .text:

80000084 <exit>:
80000084: 13 01 01 ff  	addi	sp, sp, -16
80000088: 93 05 00 00  	li	a1, 0
8000008c: 23 24 81 00  	sw	s0, 8(sp)
80000090: 23 26 11 00  	sw	ra, 12(sp)
80000094: 13 04 05 00  	mv	s0, a0
80000098: ef 20 d0 64  	jal	0x80002ee4 <__call_exitprocs>
8000009c: 17 75 00 00  	auipc	a0, 7
800000a0: 03 25 c5 42  	lw	a0, 1068(a0)
800000a4: 83 27 c5 03  	lw	a5, 60(a0)
800000a8: 63 84 07 00  	beqz	a5, 0x800000b0 <exit+0x2c>
800000ac: e7 80 07 00  	jalr	a5
800000b0: 13 05 04 00  	mv	a0, s0
800000b4: ef 00 80 26  	jal	0x8000031c <_exit>

800000b8 <register_fini>:
800000b8: 93 07 00 00  	li	a5, 0
800000bc: 63 88 07 00  	beqz	a5, 0x800000cc <register_fini+0x14>
800000c0: 17 05 00 00  	auipc	a0, 0
800000c4: 13 05 05 3b  	addi	a0, a0, 944
800000c8: 6f 20 d0 2e  	j	0x80002bb4 <atexit>
800000cc: 67 80 00 00  	ret

800000d0 <_Z11kernel_bodyiP12kernel_arg_t>:
800000d0: 13 01 01 ff  	addi	sp, sp, -16
800000d4: 03 a7 85 00  	lw	a4, 8(a1)
800000d8: 13 16 25 00  	slli	a2, a0, 2
800000dc: b3 06 c7 00  	add	a3, a4, a2
800000e0: 83 a6 06 00  	lw	a3, 0(a3)
800000e4: b7 07 00 80  	lui	a5, 524288
800000e8: 93 87 f7 ff  	addi	a5, a5, -1
800000ec: 33 48 f5 00  	xor	a6, a0, a5
800000f0: 13 38 18 00  	seqz	a6, a6
800000f4: 0b 28 08 00  	vx_split	a6, a6
800000f8: 63 16 f5 00  	bne	a0, a5, 0x80000104 <_Z11kernel_bodyiP12kernel_arg_t+0x34>
800000fc: 93 07 00 00  	li	a5, 0
80000100: 6f 00 80 00  	j	0x80000108 <_Z11kernel_bodyiP12kernel_arg_t+0x38>
80000104: 93 87 26 00  	addi	a5, a3, 2
80000108: 83 a5 05 01  	lw	a1, 16(a1)
8000010c: 0b 30 08 00  	vx_join	a6
80000110: 13 28 25 00  	slti	a6, a0, 2
80000114: 93 08 e5 ff  	addi	a7, a0, -2
80000118: 93 b8 18 00  	seqz	a7, a7
8000011c: 8b a2 08 00  	vx_split	t0, a7
80000120: 13 03 20 00  	li	t1, 2
80000124: 93 08 60 00  	li	a7, 6
80000128: 63 14 65 00  	bne	a0, t1, 0x80000130 <_Z11kernel_bodyiP12kernel_arg_t+0x60>
8000012c: 93 08 50 00  	li	a7, 5
80000130: 13 43 18 00  	xori	t1, a6, 1
80000134: 0b b0 02 00  	vx_join	t0
80000138: 93 02 f5 ff  	addi	t0, a0, -1
8000013c: 93 b2 12 00  	seqz	t0, t0
80000140: 8b a3 02 00  	vx_split	t2, t0
80000144: 13 0e 10 00  	li	t3, 1
80000148: 93 02 30 00  	li	t0, 3
8000014c: 63 14 c5 01  	bne	a0, t3, 0x80000154 <_Z11kernel_bodyiP12kernel_arg_t+0x84>
80000150: 93 02 40 00  	li	t0, 4
80000154: 0b b0 03 00  	vx_join	t2
80000158: 8b 23 03 00  	vx_split	t2, t1
8000015c: 63 04 03 00  	beqz	t1, 0x80000164 <_Z11kernel_bodyiP12kernel_arg_t+0x94>
80000160: 93 82 08 00  	mv	t0, a7
80000164: 0b b0 03 00  	vx_join	t2
80000168: 93 48 f5 ff  	not	a7, a0
8000016c: 93 d8 f8 01  	srli	a7, a7, 31
80000170: 8b a8 08 00  	vx_split	a7, a7
80000174: 63 40 05 02  	bltz	a0, 0x80000194 <_Z11kernel_bodyiP12kernel_arg_t+0xc4>
80000178: b3 87 57 00  	add	a5, a5, t0
8000017c: 93 87 77 00  	addi	a5, a5, 7
80000180: 0b b0 08 00  	vx_join	a7
80000184: b3 28 a0 00  	sgtz	a7, a0
80000188: 8b a8 08 00  	vx_split	a7, a7
8000018c: 63 4e a0 00  	bgtz	a0, 0x800001a8 <_Z11kernel_bodyiP12kernel_arg_t+0xd8>
80000190: 6f 00 00 04  	j	0x800001d0 <_Z11kernel_bodyiP12kernel_arg_t+0x100>
80000194: 93 07 00 00  	li	a5, 0
80000198: 0b b0 08 00  	vx_join	a7
8000019c: b3 28 a0 00  	sgtz	a7, a0
800001a0: 8b a8 08 00  	vx_split	a7, a7
800001a4: 63 56 a0 02  	blez	a0, 0x800001d0 <_Z11kernel_bodyiP12kernel_arg_t+0x100>
800001a8: f3 22 40 cc  	csrr	t0, tmask
800001ac: 13 03 07 00  	mv	t1, a4
800001b0: 93 03 05 00  	mv	t2, a0
800001b4: 03 2e 03 00  	lw	t3, 0(t1)
800001b8: b3 07 fe 00  	add	a5, t3, a5
800001bc: 93 83 f3 ff  	addi	t2, t2, -1
800001c0: 13 03 43 00  	addi	t1, t1, 4
800001c4: 33 3e 70 00  	snez	t3, t2
800001c8: 0b 50 5e 00  	vx_pred	t3, t0
800001cc: e3 94 03 fe  	bnez	t2, 0x800001b4 <_Z11kernel_bodyiP12kernel_arg_t+0xe4>
800001d0: 0b b0 08 00  	vx_join	a7
800001d4: 93 08 20 00  	li	a7, 2
800001d8: 0b 28 08 00  	vx_split	a6, a6
800001dc: 63 5c 15 01  	bge	a0, a7, 0x800001f4 <_Z11kernel_bodyiP12kernel_arg_t+0x124>
800001e0: 93 28 15 00  	slti	a7, a0, 1
800001e4: 8b a8 08 00  	vx_split	a7, a7
800001e8: 63 52 a0 04  	blez	a0, 0x8000022c <_Z11kernel_bodyiP12kernel_arg_t+0x15c>
800001ec: 93 87 f7 ff  	addi	a5, a5, -1
800001f0: 6f 00 00 05  	j	0x80000240 <_Z11kernel_bodyiP12kernel_arg_t+0x170>
800001f4: 93 28 35 00  	slti	a7, a0, 3
800001f8: 13 03 30 00  	li	t1, 3
800001fc: 8b a8 08 00  	vx_split	a7, a7
80000200: 63 58 65 00  	bge	a0, t1, 0x80000210 <_Z11kernel_bodyiP12kernel_arg_t+0x140>
80000204: 93 92 17 00  	slli	t0, a5, 1
80000208: b3 87 f2 00  	add	a5, t0, a5
8000020c: 6f 00 40 03  	j	0x80000240 <_Z11kernel_bodyiP12kernel_arg_t+0x170>
80000210: 93 02 d5 ff  	addi	t0, a0, -3
80000214: 93 b2 12 00  	seqz	t0, t0
80000218: 8b a2 02 00  	vx_split	t0, t0
8000021c: 63 10 65 02  	bne	a0, t1, 0x8000023c <_Z11kernel_bodyiP12kernel_arg_t+0x16c>
80000220: 13 93 27 00  	slli	t1, a5, 2
80000224: b3 07 f3 00  	add	a5, t1, a5
80000228: 6f 00 40 01  	j	0x8000023c <_Z11kernel_bodyiP12kernel_arg_t+0x16c>
8000022c: 93 32 15 00  	seqz	t0, a0
80000230: 8b a2 02 00  	vx_split	t0, t0
80000234: 63 14 05 00  	bnez	a0, 0x8000023c <_Z11kernel_bodyiP12kernel_arg_t+0x16c>
80000238: 93 87 17 00  	addi	a5, a5, 1
8000023c: 0b b0 02 00  	vx_join	t0
80000240: 0b b0 08 00  	vx_join	a7
80000244: 0b 30 08 00  	vx_join	a6
80000248: 13 58 f5 01  	srli	a6, a0, 31
8000024c: 8b 22 08 00  	vx_split	t0, a6
80000250: 63 50 05 02  	bgez	a0, 0x80000270 <_Z11kernel_bodyiP12kernel_arg_t+0x1a0>
80000254: 13 03 00 00  	li	t1, 0
80000258: 93 08 47 00  	addi	a7, a4, 4
8000025c: 13 08 10 00  	li	a6, 1
80000260: 0b b0 02 00  	vx_join	t0
80000264: 8b 22 03 00  	vx_split	t0, t1
80000268: 63 1e 03 00  	bnez	t1, 0x80000284 <_Z11kernel_bodyiP12kernel_arg_t+0x1b4>
8000026c: 6f 00 40 02  	j	0x80000290 <_Z11kernel_bodyiP12kernel_arg_t+0x1c0>
80000270: 13 08 00 00  	li	a6, 0
80000274: 13 03 10 00  	li	t1, 1
80000278: 0b b0 02 00  	vx_join	t0
8000027c: 8b 22 03 00  	vx_split	t0, t1
80000280: 63 08 03 00  	beqz	t1, 0x80000290 <_Z11kernel_bodyiP12kernel_arg_t+0x1c0>
80000284: 13 38 65 00  	sltiu	a6, a0, 6
80000288: 13 48 18 00  	xori	a6, a6, 1
8000028c: 93 08 07 00  	mv	a7, a4
80000290: 0b b0 02 00  	vx_join	t0
80000294: 0b 27 08 00  	vx_split	a4, a6
80000298: 63 04 08 00  	beqz	a6, 0x800002a0 <_Z11kernel_bodyiP12kernel_arg_t+0x1d0>
8000029c: 03 a5 08 00  	lw	a0, 0(a7)
800002a0: 0b 30 07 00  	vx_join	a4
800002a4: 33 05 f5 00  	add	a0, a0, a5
800002a8: 33 27 d5 00  	slt	a4, a0, a3
800002ac: 0b 27 07 00  	vx_split	a4, a4
800002b0: 93 87 06 00  	mv	a5, a3
800002b4: 63 54 d5 00  	bge	a0, a3, 0x800002bc <_Z11kernel_bodyiP12kernel_arg_t+0x1ec>
800002b8: 93 07 05 00  	mv	a5, a0
800002bc: 0b 30 07 00  	vx_join	a4
800002c0: 33 85 a7 00  	add	a0, a5, a0
800002c4: 33 a7 a6 00  	slt	a4, a3, a0
800002c8: 0b 27 07 00  	vx_split	a4, a4
800002cc: 63 d4 a6 00  	bge	a3, a0, 0x800002d4 <_Z11kernel_bodyiP12kernel_arg_t+0x204>
800002d0: 93 06 05 00  	mv	a3, a0
800002d4: 0b 30 07 00  	vx_join	a4
800002d8: 33 85 a6 00  	add	a0, a3, a0
800002dc: b3 85 c5 00  	add	a1, a1, a2
800002e0: 23 a0 a5 00  	sw	a0, 0(a1)
800002e4: 13 01 01 01  	addi	sp, sp, 16
800002e8: 67 80 00 00  	ret

800002ec <main>:
800002ec: 13 01 01 ff  	addi	sp, sp, -16
800002f0: 23 26 11 00  	sw	ra, 12(sp)
800002f4: 37 f5 ff 7f  	lui	a0, 524287
800002f8: 03 25 05 00  	lw	a0, 0(a0)
800002fc: 97 05 00 00  	auipc	a1, 0
80000300: 93 85 45 dd  	addi	a1, a1, -556
80000304: 37 f6 ff 7f  	lui	a2, 524287
80000308: ef 00 40 2c  	jal	0x800005cc <vx_spawn_tasks>
8000030c: 13 05 00 00  	li	a0, 0
80000310: 83 20 c1 00  	lw	ra, 12(sp)
80000314: 13 01 01 01  	addi	sp, sp, 16
80000318: 67 80 00 00  	ret

8000031c <_exit>:
8000031c: 13 04 05 00  	mv	s0, a0
80000320: ef 00 00 60  	jal	0x80000920 <vx_perf_dump>
80000324: 93 01 04 00  	mv	gp, s0
80000328: 0b 00 00 00  	vx_tmc	zero

8000032c <init_regs>:
8000032c: 97 81 00 00  	auipc	gp, 8
80000330: 93 81 41 90  	addi	gp, gp, -1788
80000334: 37 01 00 ff  	lui	sp, 1044480
80000338: f3 22 40 f1  	csrr	t0, mhartid
8000033c: 13 93 d2 00  	slli	t1, t0, 13
80000340: 33 01 61 40  	sub	sp, sp, t1
80000344: 13 03 00 00  	li	t1, 0
80000348: b3 82 62 02  	mul	t0, t0, t1
8000034c: 17 82 00 00  	auipc	tp, 8
80000350: 13 02 f2 1b  	addi	tp, tp, 447
80000354: 33 02 52 00  	add	tp, tp, t0
80000358: 13 72 02 fc  	andi	tp, tp, -64
8000035c: 67 80 00 00  	ret

80000360 <init_regs_all>:
80000360: 93 02 f0 ff  	li	t0, -1
80000364: 0b 80 02 00  	vx_tmc	t0
80000368: ef f0 5f fc  	jal	0x8000032c <init_regs>
8000036c: 0b 00 00 00  	vx_tmc	zero
80000370: 67 80 00 00  	ret

80000374 <init_tls_all>:
80000374: 93 02 f0 ff  	li	t0, -1
80000378: 0b 80 02 00  	vx_tmc	t0
8000037c: ef 00 c0 01  	jal	0x80000398 <__init_tls>
80000380: 0b 00 00 00  	vx_tmc	zero
80000384: 67 80 00 00  	ret

80000388 <vx_wspawn_wait>:
80000388: f3 22 30 cc  	csrr	t0, gid
8000038c: 13 03 10 00  	li	t1, 1
80000390: e3 9c 62 fe  	bne	t0, t1, 0x80000388 <vx_wspawn_wait>
80000394: 67 80 00 00  	ret

80000398 <__init_tls>:
80000398: 13 01 01 ff  	addi	sp, sp, -16
8000039c: 13 06 00 00  	li	a2, 0
800003a0: 97 75 00 00  	auipc	a1, 7
800003a4: 93 85 05 c6  	addi	a1, a1, -928
800003a8: 13 05 02 00  	mv	a0, tp
800003ac: 23 24 81 00  	sw	s0, 8(sp)
800003b0: 23 26 11 00  	sw	ra, 12(sp)
800003b4: 13 04 02 00  	mv	s0, tp
800003b8: ef 20 10 01  	jal	0x80002bc8 <memcpy>
800003bc: 13 05 00 00  	li	a0, 0
800003c0: 33 05 a4 00  	add	a0, s0, a0
800003c4: 03 24 81 00  	lw	s0, 8(sp)
800003c8: 83 20 c1 00  	lw	ra, 12(sp)
800003cc: 13 06 00 00  	li	a2, 0
800003d0: 93 05 00 00  	li	a1, 0
800003d4: 13 01 01 01  	addi	sp, sp, 16
800003d8: 6f 20 50 19  	j	0x80002d6c <memset>

800003dc <__libc_init_array>:
800003dc: 13 01 01 ff  	addi	sp, sp, -16
800003e0: 23 24 81 00  	sw	s0, 8(sp)
800003e4: 23 20 21 01  	sw	s2, 0(sp)
800003e8: 97 77 00 00  	auipc	a5, 7
800003ec: 93 87 87 c1  	addi	a5, a5, -1000
800003f0: 17 74 00 00  	auipc	s0, 7
800003f4: 13 04 04 c1  	addi	s0, s0, -1008
800003f8: 23 26 11 00  	sw	ra, 12(sp)
800003fc: 23 22 91 00  	sw	s1, 4(sp)
80000400: 33 89 87 40  	sub	s2, a5, s0
80000404: 63 80 87 02  	beq	a5, s0, 0x80000424 <__libc_init_array+0x48>
80000408: 13 59 29 40  	srai	s2, s2, 2
8000040c: 93 04 00 00  	li	s1, 0
80000410: 83 27 04 00  	lw	a5, 0(s0)
80000414: 93 84 14 00  	addi	s1, s1, 1
80000418: 13 04 44 00  	addi	s0, s0, 4
8000041c: e7 80 07 00  	jalr	a5
80000420: e3 e8 24 ff  	bltu	s1, s2, 0x80000410 <__libc_init_array+0x34>
80000424: 97 77 00 00  	auipc	a5, 7
80000428: 93 87 07 be  	addi	a5, a5, -1056
8000042c: 17 74 00 00  	auipc	s0, 7
80000430: 13 04 44 bd  	addi	s0, s0, -1068
80000434: 33 89 87 40  	sub	s2, a5, s0
80000438: 13 59 29 40  	srai	s2, s2, 2
8000043c: 63 8e 87 00  	beq	a5, s0, 0x80000458 <__libc_init_array+0x7c>
80000440: 93 04 00 00  	li	s1, 0
80000444: 83 27 04 00  	lw	a5, 0(s0)
80000448: 93 84 14 00  	addi	s1, s1, 1
8000044c: 13 04 44 00  	addi	s0, s0, 4
80000450: e7 80 07 00  	jalr	a5
80000454: e3 e8 24 ff  	bltu	s1, s2, 0x80000444 <__libc_init_array+0x68>
80000458: 83 20 c1 00  	lw	ra, 12(sp)
8000045c: 03 24 81 00  	lw	s0, 8(sp)
80000460: 83 24 41 00  	lw	s1, 4(sp)
80000464: 03 29 01 00  	lw	s2, 0(sp)
80000468: 13 01 01 01  	addi	sp, sp, 16
8000046c: 67 80 00 00  	ret

80000470 <__libc_fini_array>:
80000470: 13 01 01 ff  	addi	sp, sp, -16
80000474: 23 24 81 00  	sw	s0, 8(sp)
80000478: 97 77 00 00  	auipc	a5, 7
8000047c: 93 87 c7 b8  	addi	a5, a5, -1140
80000480: 17 74 00 00  	auipc	s0, 7
80000484: 13 04 44 b8  	addi	s0, s0, -1148
80000488: 33 04 f4 40  	sub	s0, s0, a5
8000048c: 23 22 91 00  	sw	s1, 4(sp)
80000490: 23 26 11 00  	sw	ra, 12(sp)
80000494: 93 54 24 40  	srai	s1, s0, 2
80000498: 63 80 04 02  	beqz	s1, 0x800004b8 <__libc_fini_array+0x48>
8000049c: 13 04 c4 ff  	addi	s0, s0, -4
800004a0: 33 04 f4 00  	add	s0, s0, a5
800004a4: 83 27 04 00  	lw	a5, 0(s0)
800004a8: 93 84 f4 ff  	addi	s1, s1, -1
800004ac: 13 04 c4 ff  	addi	s0, s0, -4
800004b0: e7 80 07 00  	jalr	a5
800004b4: e3 98 04 fe  	bnez	s1, 0x800004a4 <__libc_fini_array+0x34>
800004b8: 83 20 c1 00  	lw	ra, 12(sp)
800004bc: 03 24 81 00  	lw	s0, 8(sp)
800004c0: 83 24 41 00  	lw	s1, 4(sp)
800004c4: 13 01 01 01  	addi	sp, sp, 16
800004c8: 67 80 00 00  	ret

800004cc <vx_putchar>:
800004cc: f3 22 40 f1  	csrr	t0, mhartid
800004d0: 93 f2 f2 03  	andi	t0, t0, 63
800004d4: 37 43 00 ff  	lui	t1, 1044484
800004d8: b3 82 62 00  	add	t0, t0, t1
800004dc: 23 80 a2 00  	sb	a0, 0(t0)
800004e0: 67 80 00 00  	ret

800004e4 <spawn_tasks_rem_stub>:
800004e4: 73 27 20 cc  	csrr	a4, cid
800004e8: 73 25 00 cc  	csrr	a0, tid
800004ec: 97 77 00 00  	auipc	a5, 7
800004f0: 93 87 07 fe  	addi	a5, a5, -32
800004f4: 13 17 27 00  	slli	a4, a4, 2
800004f8: b3 87 e7 00  	add	a5, a5, a4
800004fc: 83 a7 07 00  	lw	a5, 0(a5)
80000500: 83 a6 87 00  	lw	a3, 8(a5)
80000504: 03 a7 07 00  	lw	a4, 0(a5)
80000508: 83 a5 47 00  	lw	a1, 4(a5)
8000050c: 33 05 d5 00  	add	a0, a0, a3
80000510: 67 00 07 00  	jr	a4

80000514 <spawn_tasks_all_stub>:
80000514: 13 01 01 ff  	addi	sp, sp, -16
80000518: 23 26 11 00  	sw	ra, 12(sp)
8000051c: 23 24 81 00  	sw	s0, 8(sp)
80000520: 23 22 91 00  	sw	s1, 4(sp)
80000524: 23 20 21 01  	sw	s2, 0(sp)
80000528: 73 24 00 fc  	csrr	s0, nt
8000052c: 73 28 10 fc  	csrr	a6, nw
80000530: f3 25 20 cc  	csrr	a1, cid
80000534: 73 26 10 cc  	csrr	a2, wid
80000538: f3 26 00 cc  	csrr	a3, tid
8000053c: 97 77 00 00  	auipc	a5, 7
80000540: 93 87 07 f9  	addi	a5, a5, -112
80000544: 13 97 25 00  	slli	a4, a1, 2
80000548: b3 87 e7 00  	add	a5, a5, a4
8000054c: 03 a5 07 00  	lw	a0, 0(a5)
80000550: 03 27 45 01  	lw	a4, 20(a0)
80000554: 83 27 85 00  	lw	a5, 8(a0)
80000558: 83 24 45 00  	lw	s1, 4(a0)
8000055c: 33 08 07 03  	mul	a6, a4, a6
80000560: 03 29 05 00  	lw	s2, 0(a0)
80000564: 17 65 00 00  	auipc	a0, 6
80000568: 13 05 c5 28  	addi	a0, a0, 652
8000056c: 33 08 c8 00  	add	a6, a6, a2
80000570: 33 04 88 02  	mul	s0, a6, s0
80000574: 33 04 d4 00  	add	s0, s0, a3
80000578: 33 04 f4 00  	add	s0, s0, a5
8000057c: 93 08 04 00  	mv	a7, s0
80000580: ef 00 c0 5e  	jal	0x80000b6c <vx_printf>
80000584: 13 05 04 00  	mv	a0, s0
80000588: 03 24 81 00  	lw	s0, 8(sp)
8000058c: 83 20 c1 00  	lw	ra, 12(sp)
80000590: 93 85 04 00  	mv	a1, s1
80000594: 93 07 09 00  	mv	a5, s2
80000598: 83 24 41 00  	lw	s1, 4(sp)
8000059c: 03 29 01 00  	lw	s2, 0(sp)
800005a0: 13 01 01 01  	addi	sp, sp, 16
800005a4: 67 80 07 00  	jr	a5

800005a8 <spawn_tasks_all_cb>:
800005a8: 13 01 01 ff  	addi	sp, sp, -16
800005ac: 23 26 11 00  	sw	ra, 12(sp)
800005b0: 93 07 f0 ff  	li	a5, -1
800005b4: 0b 80 07 00  	vx_tmc	a5
800005b8: ef f0 df f5  	jal	0x80000514 <spawn_tasks_all_stub>
800005bc: 0b 00 00 00  	vx_tmc	zero
800005c0: 83 20 c1 00  	lw	ra, 12(sp)
800005c4: 13 01 01 01  	addi	sp, sp, 16
800005c8: 67 80 00 00  	ret

800005cc <vx_spawn_tasks>:
800005cc: 13 01 01 f9  	addi	sp, sp, -112
800005d0: 23 28 61 05  	sw	s6, 80(sp)
800005d4: 23 26 11 06  	sw	ra, 108(sp)
800005d8: 23 24 81 06  	sw	s0, 104(sp)
800005dc: 23 22 91 06  	sw	s1, 100(sp)
800005e0: 23 20 21 07  	sw	s2, 96(sp)
800005e4: 23 2e 31 05  	sw	s3, 92(sp)
800005e8: 23 2c 41 05  	sw	s4, 88(sp)
800005ec: 23 2a 51 05  	sw	s5, 84(sp)
800005f0: 23 26 71 05  	sw	s7, 76(sp)
800005f4: 23 24 81 05  	sw	s8, 72(sp)
800005f8: 23 22 91 05  	sw	s9, 68(sp)
800005fc: 13 0b 06 00  	mv	s6, a2
80000600: 73 26 20 fc  	csrr	a2, nw
80000604: 13 54 f6 01  	srli	s0, a2, 31
80000608: 33 04 c4 00  	add	s0, s0, a2
8000060c: 13 54 14 40  	srai	s0, s0, 1
80000610: f3 2a 10 fc  	csrr	s5, nw
80000614: f3 2b 00 fc  	csrr	s7, nt
80000618: f3 24 20 cc  	csrr	s1, cid
8000061c: 63 dc 84 26  	bge	s1, s0, 0x80000894 <vx_spawn_tasks+0x2c8>
80000620: 13 09 05 00  	mv	s2, a0
80000624: 13 8a 05 00  	mv	s4, a1
80000628: 17 65 00 00  	auipc	a0, 6
8000062c: 13 05 c5 26  	addi	a0, a0, 620
80000630: 93 85 04 00  	mv	a1, s1
80000634: ef 00 80 53  	jal	0x80000b6c <vx_printf>
80000638: 33 88 5b 03  	mul	a6, s7, s5
8000063c: 93 08 10 00  	li	a7, 1
80000640: 63 54 28 01  	bge	a6, s2, 0x80000648 <vx_spawn_tasks+0x7c>
80000644: b3 48 09 03  	div	a7, s2, a6
80000648: 13 86 08 00  	mv	a2, a7
8000064c: 63 46 14 13  	blt	s0, a7, 0x80000778 <vx_spawn_tasks+0x1ac>
80000650: 93 06 f6 ff  	addi	a3, a2, -1
80000654: 63 c8 96 12  	blt	a3, s1, 0x80000784 <vx_spawn_tasks+0x1b8>
80000658: b3 47 c9 02  	div	a5, s2, a2
8000065c: 13 87 07 00  	mv	a4, a5
80000660: 63 8a 96 26  	beq	a3, s1, 0x800008d4 <vx_spawn_tasks+0x308>
80000664: b3 49 77 03  	div	s3, a4, s7
80000668: 33 6c 77 03  	rem	s8, a4, s7
8000066c: 63 c0 59 17  	blt	s3, s5, 0x800007cc <vx_spawn_tasks+0x200>
80000670: 23 24 41 03  	sw	s4, 40(sp)
80000674: 93 95 24 00  	slli	a1, s1, 2
80000678: 97 76 00 00  	auipc	a3, 7
8000067c: 93 86 46 e5  	addi	a3, a3, -428
80000680: b3 86 b6 00  	add	a3, a3, a1
80000684: 93 05 81 02  	addi	a1, sp, 40
80000688: 23 26 61 03  	sw	s6, 44(sp)
8000068c: 23 2e 01 02  	sw	zero, 60(sp)
80000690: 23 a0 b6 00  	sw	a1, 0(a3)
80000694: 13 8b 09 00  	mv	s6, s3
80000698: 33 ca 59 03  	div	s4, s3, s5
8000069c: b3 ec 59 03  	rem	s9, s3, s5
800006a0: 23 2a 41 03  	sw	s4, 52(sp)
800006a4: b3 87 97 02  	mul	a5, a5, s1
800006a8: 23 2c 91 03  	sw	s9, 56(sp)
800006ac: 23 28 f1 02  	sw	a5, 48(sp)
800006b0: 63 ce 3a 23  	blt	s5, s3, 0x800008ec <vx_spawn_tasks+0x320>
800006b4: 23 2c f1 00  	sw	a5, 24(sp)
800006b8: 23 22 e1 00  	sw	a4, 4(sp)
800006bc: 23 20 c1 00  	sw	a2, 0(sp)
800006c0: 23 2e 61 01  	sw	s6, 28(sp)
800006c4: 23 2a 91 01  	sw	s9, 20(sp)
800006c8: 23 28 41 01  	sw	s4, 16(sp)
800006cc: 23 26 81 01  	sw	s8, 12(sp)
800006d0: 23 24 31 01  	sw	s3, 8(sp)
800006d4: 93 87 0b 00  	mv	a5, s7
800006d8: 13 87 0a 00  	mv	a4, s5
800006dc: 93 06 04 00  	mv	a3, s0
800006e0: 13 06 09 00  	mv	a2, s2
800006e4: 93 85 04 00  	mv	a1, s1
800006e8: 17 65 00 00  	auipc	a0, 6
800006ec: 13 05 85 22  	addi	a0, a0, 552
800006f0: ef 00 c0 47  	jal	0x80000b6c <vx_printf>
800006f4: 63 50 30 05  	blez	s3, 0x80000734 <vx_spawn_tasks+0x168>
800006f8: 63 5c 40 03  	blez	s4, 0x80000730 <vx_spawn_tasks+0x164>
800006fc: 13 04 00 00  	li	s0, 0
80000700: 17 09 00 00  	auipc	s2, 0
80000704: 13 09 89 ea  	addi	s2, s2, -344
80000708: 93 04 f0 ff  	li	s1, -1
8000070c: 23 2e 81 02  	sw	s0, 60(sp)
80000710: 0b 10 2b 01  	vx_wspawn	s6, s2
80000714: 0b 80 04 00  	vx_tmc	s1
80000718: ef f0 df df  	jal	0x80000514 <spawn_tasks_all_stub>
8000071c: 13 05 10 00  	li	a0, 1
80000720: 0b 00 05 00  	vx_tmc	a0
80000724: 13 04 14 00  	addi	s0, s0, 1
80000728: ef f0 1f c6  	jal	0x80000388 <vx_wspawn_wait>
8000072c: e3 10 44 ff  	bne	s0, s4, 0x8000070c <vx_spawn_tasks+0x140>
80000730: 63 92 0c 1c  	bnez	s9, 0x800008f4 <vx_spawn_tasks+0x328>
80000734: 17 65 00 00  	auipc	a0, 6
80000738: 13 05 05 26  	addi	a0, a0, 608
8000073c: ef 00 00 43  	jal	0x80000b6c <vx_printf>
80000740: 63 12 0c 12  	bnez	s8, 0x80000864 <vx_spawn_tasks+0x298>
80000744: 83 20 c1 06  	lw	ra, 108(sp)
80000748: 03 24 81 06  	lw	s0, 104(sp)
8000074c: 83 24 41 06  	lw	s1, 100(sp)
80000750: 03 29 01 06  	lw	s2, 96(sp)
80000754: 83 29 c1 05  	lw	s3, 92(sp)
80000758: 03 2a 81 05  	lw	s4, 88(sp)
8000075c: 83 2a 41 05  	lw	s5, 84(sp)
80000760: 03 2b 01 05  	lw	s6, 80(sp)
80000764: 83 2b c1 04  	lw	s7, 76(sp)
80000768: 03 2c 81 04  	lw	s8, 72(sp)
8000076c: 83 2c 41 04  	lw	s9, 68(sp)
80000770: 13 01 01 07  	addi	sp, sp, 112
80000774: 67 80 00 00  	ret
80000778: 13 06 04 00  	mv	a2, s0
8000077c: 93 06 f6 ff  	addi	a3, a2, -1
80000780: e3 dc 96 ec  	bge	a3, s1, 0x80000658 <vx_spawn_tasks+0x8c>
80000784: 93 07 04 00  	mv	a5, s0
80000788: 03 24 81 06  	lw	s0, 104(sp)
8000078c: 83 20 c1 06  	lw	ra, 108(sp)
80000790: 03 29 01 06  	lw	s2, 96(sp)
80000794: 83 29 c1 05  	lw	s3, 92(sp)
80000798: 03 2a 81 05  	lw	s4, 88(sp)
8000079c: 83 2a 41 05  	lw	s5, 84(sp)
800007a0: 03 2b 01 05  	lw	s6, 80(sp)
800007a4: 83 2b c1 04  	lw	s7, 76(sp)
800007a8: 03 2c 81 04  	lw	s8, 72(sp)
800007ac: 83 2c 41 04  	lw	s9, 68(sp)
800007b0: 93 85 04 00  	mv	a1, s1
800007b4: 83 24 41 06  	lw	s1, 100(sp)
800007b8: 13 87 08 00  	mv	a4, a7
800007bc: 17 65 00 00  	auipc	a0, 6
800007c0: 13 05 05 10  	addi	a0, a0, 256
800007c4: 13 01 01 07  	addi	sp, sp, 112
800007c8: 6f 00 40 3a  	j	0x80000b6c <vx_printf>
800007cc: 33 83 97 02  	mul	t1, a5, s1
800007d0: 93 0e 10 00  	li	t4, 1
800007d4: 93 97 24 00  	slli	a5, s1, 2
800007d8: 17 7e 00 00  	auipc	t3, 7
800007dc: 13 0e 4e cf  	addi	t3, t3, -780
800007e0: 33 0e fe 00  	add	t3, t3, a5
800007e4: 23 22 e1 00  	sw	a4, 4(sp)
800007e8: 23 20 c1 00  	sw	a2, 0(sp)
800007ec: 23 2e 31 01  	sw	s3, 28(sp)
800007f0: 23 2a 01 00  	sw	zero, 20(sp)
800007f4: 23 28 d1 01  	sw	t4, 16(sp)
800007f8: 23 2c 61 00  	sw	t1, 24(sp)
800007fc: 23 26 81 01  	sw	s8, 12(sp)
80000800: 23 24 31 01  	sw	s3, 8(sp)
80000804: 23 28 61 02  	sw	t1, 48(sp)
80000808: 13 03 81 02  	addi	t1, sp, 40
8000080c: 93 87 0b 00  	mv	a5, s7
80000810: 13 87 0a 00  	mv	a4, s5
80000814: 93 06 04 00  	mv	a3, s0
80000818: 13 06 09 00  	mv	a2, s2
8000081c: 93 85 04 00  	mv	a1, s1
80000820: 17 65 00 00  	auipc	a0, 6
80000824: 13 05 05 0f  	addi	a0, a0, 240
80000828: 23 20 6e 00  	sw	t1, 0(t3)
8000082c: 23 24 41 03  	sw	s4, 40(sp)
80000830: 23 26 61 03  	sw	s6, 44(sp)
80000834: 23 2a d1 03  	sw	t4, 52(sp)
80000838: 23 2c 01 02  	sw	zero, 56(sp)
8000083c: 23 2e 01 02  	sw	zero, 60(sp)
80000840: 13 8b 09 00  	mv	s6, s3
80000844: ef 00 80 32  	jal	0x80000b6c <vx_printf>
80000848: 93 0c 00 00  	li	s9, 0
8000084c: 13 0a 10 00  	li	s4, 1
80000850: e3 46 30 eb  	bgtz	s3, 0x800006fc <vx_spawn_tasks+0x130>
80000854: 17 65 00 00  	auipc	a0, 6
80000858: 13 05 05 14  	addi	a0, a0, 320
8000085c: ef 00 00 31  	jal	0x80000b6c <vx_printf>
80000860: e3 02 0c ee  	beqz	s8, 0x80000744 <vx_spawn_tasks+0x178>
80000864: b3 89 79 03  	mul	s3, s3, s7
80000868: 03 27 01 03  	lw	a4, 48(sp)
8000086c: 93 07 10 00  	li	a5, 1
80000870: b3 97 87 01  	sll	a5, a5, s8
80000874: 93 87 f7 ff  	addi	a5, a5, -1
80000878: 33 07 37 01  	add	a4, a4, s3
8000087c: 23 28 e1 02  	sw	a4, 48(sp)
80000880: 0b 80 07 00  	vx_tmc	a5
80000884: ef f0 1f c6  	jal	0x800004e4 <spawn_tasks_rem_stub>
80000888: 13 05 10 00  	li	a0, 1
8000088c: 0b 00 05 00  	vx_tmc	a0
80000890: 6f f0 5f eb  	j	0x80000744 <vx_spawn_tasks+0x178>
80000894: 03 24 81 06  	lw	s0, 104(sp)
80000898: 83 20 c1 06  	lw	ra, 108(sp)
8000089c: 03 29 01 06  	lw	s2, 96(sp)
800008a0: 83 29 c1 05  	lw	s3, 92(sp)
800008a4: 03 2a 81 05  	lw	s4, 88(sp)
800008a8: 83 2a 41 05  	lw	s5, 84(sp)
800008ac: 03 2b 01 05  	lw	s6, 80(sp)
800008b0: 83 2b c1 04  	lw	s7, 76(sp)
800008b4: 03 2c 81 04  	lw	s8, 72(sp)
800008b8: 83 2c 41 04  	lw	s9, 68(sp)
800008bc: 93 85 04 00  	mv	a1, s1
800008c0: 83 24 41 06  	lw	s1, 100(sp)
800008c4: 17 65 00 00  	auipc	a0, 6
800008c8: 13 05 45 f8  	addi	a0, a0, -124
800008cc: 13 01 01 07  	addi	sp, sp, 112
800008d0: 6f 00 c0 29  	j	0x80000b6c <vx_printf>
800008d4: 33 67 c9 02  	rem	a4, s2, a2
800008d8: 33 07 f7 00  	add	a4, a4, a5
800008dc: b3 49 77 03  	div	s3, a4, s7
800008e0: 33 6c 77 03  	rem	s8, a4, s7
800008e4: e3 c4 59 ef  	blt	s3, s5, 0x800007cc <vx_spawn_tasks+0x200>
800008e8: 6f f0 9f d8  	j	0x80000670 <vx_spawn_tasks+0xa4>
800008ec: 13 8b 0a 00  	mv	s6, s5
800008f0: 6f f0 5f dc  	j	0x800006b4 <vx_spawn_tasks+0xe8>
800008f4: 23 2e 41 03  	sw	s4, 60(sp)
800008f8: 97 07 00 00  	auipc	a5, 0
800008fc: 93 87 07 cb  	addi	a5, a5, -848
80000900: 0b 90 fc 00  	vx_wspawn	s9, a5
80000904: 93 07 f0 ff  	li	a5, -1
80000908: 0b 80 07 00  	vx_tmc	a5
8000090c: ef f0 9f c0  	jal	0x80000514 <spawn_tasks_all_stub>
80000910: 13 05 10 00  	li	a0, 1
80000914: 0b 00 05 00  	vx_tmc	a0
80000918: ef f0 1f a7  	jal	0x80000388 <vx_wspawn_wait>
8000091c: 6f f0 9f e1  	j	0x80000734 <vx_spawn_tasks+0x168>

80000920 <vx_perf_dump>:
80000920: f3 27 20 cc  	csrr	a5, cid
80000924: 37 47 00 ff  	lui	a4, 1044484
80000928: 13 07 07 04  	addi	a4, a4, 64
8000092c: 93 97 87 00  	slli	a5, a5, 8
80000930: b3 87 e7 00  	add	a5, a5, a4
80000934: 73 27 00 b0  	csrr	a4, mcycle
80000938: 23 a0 e7 00  	sw	a4, 0(a5)
8000093c: 73 27 10 b0  	csrr	a4, 2817
80000940: 23 a2 e7 00  	sw	a4, 4(a5)
80000944: 73 27 20 b0  	csrr	a4, minstret
80000948: 23 a4 e7 00  	sw	a4, 8(a5)
8000094c: 73 27 30 b0  	csrr	a4, mhpmcounter3
80000950: 23 a6 e7 00  	sw	a4, 12(a5)
80000954: 73 27 40 b0  	csrr	a4, mhpmcounter4
80000958: 23 a8 e7 00  	sw	a4, 16(a5)
8000095c: 73 27 50 b0  	csrr	a4, mhpmcounter5
80000960: 23 aa e7 00  	sw	a4, 20(a5)
80000964: 73 27 60 b0  	csrr	a4, mhpmcounter6
80000968: 23 ac e7 00  	sw	a4, 24(a5)
8000096c: 73 27 70 b0  	csrr	a4, mhpmcounter7
80000970: 23 ae e7 00  	sw	a4, 28(a5)
80000974: 73 27 80 b0  	csrr	a4, mhpmcounter8
80000978: 23 a0 e7 02  	sw	a4, 32(a5)
8000097c: 73 27 90 b0  	csrr	a4, mhpmcounter9
80000980: 23 a2 e7 02  	sw	a4, 36(a5)
80000984: 73 27 a0 b0  	csrr	a4, mhpmcounter10
80000988: 23 a4 e7 02  	sw	a4, 40(a5)
8000098c: 73 27 b0 b0  	csrr	a4, mhpmcounter11
80000990: 23 a6 e7 02  	sw	a4, 44(a5)
80000994: 73 27 c0 b0  	csrr	a4, mhpmcounter12
80000998: 23 a8 e7 02  	sw	a4, 48(a5)
8000099c: 73 27 d0 b0  	csrr	a4, mhpmcounter13
800009a0: 23 aa e7 02  	sw	a4, 52(a5)
800009a4: 73 27 e0 b0  	csrr	a4, mhpmcounter14
800009a8: 23 ac e7 02  	sw	a4, 56(a5)
800009ac: 73 27 f0 b0  	csrr	a4, mhpmcounter15
800009b0: 23 ae e7 02  	sw	a4, 60(a5)
800009b4: 73 27 00 b1  	csrr	a4, mhpmcounter16
800009b8: 23 a0 e7 04  	sw	a4, 64(a5)
800009bc: 73 27 10 b1  	csrr	a4, mhpmcounter17
800009c0: 23 a2 e7 04  	sw	a4, 68(a5)
800009c4: 73 27 20 b1  	csrr	a4, mhpmcounter18
800009c8: 23 a4 e7 04  	sw	a4, 72(a5)
800009cc: 73 27 30 b1  	csrr	a4, mhpmcounter19
800009d0: 23 a6 e7 04  	sw	a4, 76(a5)
800009d4: 73 27 40 b1  	csrr	a4, mhpmcounter20
800009d8: 23 a8 e7 04  	sw	a4, 80(a5)
800009dc: 73 27 50 b1  	csrr	a4, mhpmcounter21
800009e0: 23 aa e7 04  	sw	a4, 84(a5)
800009e4: 73 27 60 b1  	csrr	a4, mhpmcounter22
800009e8: 23 ac e7 04  	sw	a4, 88(a5)
800009ec: 73 27 70 b1  	csrr	a4, mhpmcounter23
800009f0: 23 ae e7 04  	sw	a4, 92(a5)
800009f4: 73 27 80 b1  	csrr	a4, mhpmcounter24
800009f8: 23 a0 e7 06  	sw	a4, 96(a5)
800009fc: 73 27 90 b1  	csrr	a4, mhpmcounter25
80000a00: 23 a2 e7 06  	sw	a4, 100(a5)
80000a04: 73 27 a0 b1  	csrr	a4, mhpmcounter26
80000a08: 23 a4 e7 06  	sw	a4, 104(a5)
80000a0c: 73 27 b0 b1  	csrr	a4, mhpmcounter27
80000a10: 23 a6 e7 06  	sw	a4, 108(a5)
80000a14: 73 27 c0 b1  	csrr	a4, mhpmcounter28
80000a18: 23 a8 e7 06  	sw	a4, 112(a5)
80000a1c: 73 27 d0 b1  	csrr	a4, mhpmcounter29
80000a20: 23 aa e7 06  	sw	a4, 116(a5)
80000a24: 73 27 e0 b1  	csrr	a4, mhpmcounter30
80000a28: 23 ac e7 06  	sw	a4, 120(a5)
80000a2c: 73 27 f0 b1  	csrr	a4, mhpmcounter31
80000a30: 23 ae e7 06  	sw	a4, 124(a5)
80000a34: 73 27 00 b8  	csrr	a4, mcycleh
80000a38: 23 a0 e7 08  	sw	a4, 128(a5)
80000a3c: 73 27 10 b8  	csrr	a4, 2945
80000a40: 23 a2 e7 08  	sw	a4, 132(a5)
80000a44: 73 27 20 b8  	csrr	a4, minstreth
80000a48: 23 a4 e7 08  	sw	a4, 136(a5)
80000a4c: 73 27 30 b8  	csrr	a4, mhpmcounter3h
80000a50: 23 a6 e7 08  	sw	a4, 140(a5)
80000a54: 73 27 40 b8  	csrr	a4, mhpmcounter4h
80000a58: 23 a8 e7 08  	sw	a4, 144(a5)
80000a5c: 73 27 50 b8  	csrr	a4, mhpmcounter5h
80000a60: 23 aa e7 08  	sw	a4, 148(a5)
80000a64: 73 27 60 b8  	csrr	a4, mhpmcounter6h
80000a68: 23 ac e7 08  	sw	a4, 152(a5)
80000a6c: 73 27 70 b8  	csrr	a4, mhpmcounter7h
80000a70: 23 ae e7 08  	sw	a4, 156(a5)
80000a74: 73 27 80 b8  	csrr	a4, mhpmcounter8h
80000a78: 23 a0 e7 0a  	sw	a4, 160(a5)
80000a7c: 73 27 90 b8  	csrr	a4, mhpmcounter9h
80000a80: 23 a2 e7 0a  	sw	a4, 164(a5)
80000a84: 73 27 a0 b8  	csrr	a4, mhpmcounter10h
80000a88: 23 a4 e7 0a  	sw	a4, 168(a5)
80000a8c: 73 27 b0 b8  	csrr	a4, mhpmcounter11h
80000a90: 23 a6 e7 0a  	sw	a4, 172(a5)
80000a94: 73 27 c0 b8  	csrr	a4, mhpmcounter12h
80000a98: 23 a8 e7 0a  	sw	a4, 176(a5)
80000a9c: 73 27 d0 b8  	csrr	a4, mhpmcounter13h
80000aa0: 23 aa e7 0a  	sw	a4, 180(a5)
80000aa4: 73 27 e0 b8  	csrr	a4, mhpmcounter14h
80000aa8: 23 ac e7 0a  	sw	a4, 184(a5)
80000aac: 73 27 f0 b8  	csrr	a4, mhpmcounter15h
80000ab0: 23 ae e7 0a  	sw	a4, 188(a5)
80000ab4: 73 27 00 b9  	csrr	a4, mhpmcounter16h
80000ab8: 23 a0 e7 0c  	sw	a4, 192(a5)
80000abc: 73 27 10 b9  	csrr	a4, mhpmcounter17h
80000ac0: 23 a2 e7 0c  	sw	a4, 196(a5)
80000ac4: 73 27 20 b9  	csrr	a4, mhpmcounter18h
80000ac8: 23 a4 e7 0c  	sw	a4, 200(a5)
80000acc: 73 27 30 b9  	csrr	a4, mhpmcounter19h
80000ad0: 23 a6 e7 0c  	sw	a4, 204(a5)
80000ad4: 73 27 40 b9  	csrr	a4, mhpmcounter20h
80000ad8: 23 a8 e7 0c  	sw	a4, 208(a5)
80000adc: 73 27 50 b9  	csrr	a4, mhpmcounter21h
80000ae0: 23 aa e7 0c  	sw	a4, 212(a5)
80000ae4: 73 27 60 b9  	csrr	a4, mhpmcounter22h
80000ae8: 23 ac e7 0c  	sw	a4, 216(a5)
80000aec: 73 27 70 b9  	csrr	a4, mhpmcounter23h
80000af0: 23 ae e7 0c  	sw	a4, 220(a5)
80000af4: 73 27 80 b9  	csrr	a4, mhpmcounter24h
80000af8: 23 a0 e7 0e  	sw	a4, 224(a5)
80000afc: 73 27 90 b9  	csrr	a4, mhpmcounter25h
80000b00: 23 a2 e7 0e  	sw	a4, 228(a5)
80000b04: 73 27 a0 b9  	csrr	a4, mhpmcounter26h
80000b08: 23 a4 e7 0e  	sw	a4, 232(a5)
80000b0c: 73 27 b0 b9  	csrr	a4, mhpmcounter27h
80000b10: 23 a6 e7 0e  	sw	a4, 236(a5)
80000b14: 73 27 c0 b9  	csrr	a4, mhpmcounter28h
80000b18: 23 a8 e7 0e  	sw	a4, 240(a5)
80000b1c: 73 27 d0 b9  	csrr	a4, mhpmcounter29h
80000b20: 23 aa e7 0e  	sw	a4, 244(a5)
80000b24: 73 27 e0 b9  	csrr	a4, mhpmcounter30h
80000b28: 23 ac e7 0e  	sw	a4, 248(a5)
80000b2c: 73 27 f0 b9  	csrr	a4, mhpmcounter31h
80000b30: 23 ae e7 0e  	sw	a4, 252(a5)
80000b34: 67 80 00 00  	ret

80000b38 <__vprintf_cb>:
80000b38: 83 27 45 00  	lw	a5, 4(a0)
80000b3c: 13 01 01 ff  	addi	sp, sp, -16
80000b40: 23 24 81 00  	sw	s0, 8(sp)
80000b44: 83 a5 07 00  	lw	a1, 0(a5)
80000b48: 13 04 05 00  	mv	s0, a0
80000b4c: 03 25 05 00  	lw	a0, 0(a0)
80000b50: 23 26 11 00  	sw	ra, 12(sp)
80000b54: ef 20 00 03  	jal	0x80002b84 <tiny_vprintf>
80000b58: 83 20 c1 00  	lw	ra, 12(sp)
80000b5c: 23 24 a4 00  	sw	a0, 8(s0)
80000b60: 03 24 81 00  	lw	s0, 8(sp)
80000b64: 13 01 01 01  	addi	sp, sp, 16
80000b68: 67 80 00 00  	ret

80000b6c <vx_printf>:
80000b6c: 13 01 01 fb  	addi	sp, sp, -80
80000b70: 23 22 f1 04  	sw	a5, 68(sp)
80000b74: 93 07 41 03  	addi	a5, sp, 52
80000b78: 13 03 05 00  	mv	t1, a0
80000b7c: 23 2a b1 02  	sw	a1, 52(sp)
80000b80: 23 26 f1 00  	sw	a5, 12(sp)
80000b84: 23 28 f1 00  	sw	a5, 16(sp)
80000b88: 17 05 00 00  	auipc	a0, 0
80000b8c: 13 05 05 fb  	addi	a0, a0, -80
80000b90: 93 07 01 01  	addi	a5, sp, 16
80000b94: 93 05 41 01  	addi	a1, sp, 20
80000b98: 23 26 11 02  	sw	ra, 44(sp)
80000b9c: 23 2c c1 02  	sw	a2, 56(sp)
80000ba0: 23 2e d1 02  	sw	a3, 60(sp)
80000ba4: 23 20 e1 04  	sw	a4, 64(sp)
80000ba8: 23 24 01 05  	sw	a6, 72(sp)
80000bac: 23 26 11 05  	sw	a7, 76(sp)
80000bb0: 23 2a 61 00  	sw	t1, 20(sp)
80000bb4: 23 2c f1 00  	sw	a5, 24(sp)
80000bb8: ef 00 40 01  	jal	0x80000bcc <vx_serial>
80000bbc: 83 20 c1 02  	lw	ra, 44(sp)
80000bc0: 03 25 c1 01  	lw	a0, 28(sp)
80000bc4: 13 01 01 05  	addi	sp, sp, 80
80000bc8: 67 80 00 00  	ret

80000bcc <vx_serial>:
80000bcc: 13 01 41 fe  	addi	sp, sp, -28
80000bd0: 23 2c 11 00  	sw	ra, 24(sp)
80000bd4: 23 2a 51 01  	sw	s5, 20(sp)
80000bd8: 23 28 41 01  	sw	s4, 16(sp)
80000bdc: 23 26 31 01  	sw	s3, 12(sp)
80000be0: 23 24 21 01  	sw	s2, 8(sp)
80000be4: 23 22 91 00  	sw	s1, 4(sp)
80000be8: 23 20 81 00  	sw	s0, 0(sp)
80000bec: 13 0a 05 00  	mv	s4, a0
80000bf0: 93 89 05 00  	mv	s3, a1
80000bf4: 73 29 00 fc  	csrr	s2, nt
80000bf8: f3 24 00 cc  	csrr	s1, tid
80000bfc: 13 04 00 00  	li	s0, 0

80000c00 <label_loop>:
80000c00: b3 02 94 40  	sub	t0, s0, s1
80000c04: 13 b3 12 00  	seqz	t1, t0
80000c08: 8b 2a 03 00  	vx_split	s5, t1
80000c0c: 63 96 02 00  	bnez	t0, 0x80000c18 <label_join>
80000c10: 13 85 09 00  	mv	a0, s3
80000c14: e7 00 0a 00  	jalr	s4

80000c18 <label_join>:
80000c18: 0b b0 0a 00  	vx_join	s5
80000c1c: 13 04 14 00  	addi	s0, s0, 1
80000c20: e3 40 24 ff  	blt	s0, s2, 0x80000c00 <label_loop>
80000c24: 83 20 81 01  	lw	ra, 24(sp)
80000c28: 83 2a 41 01  	lw	s5, 20(sp)
80000c2c: 03 2a 01 01  	lw	s4, 16(sp)
80000c30: 83 29 c1 00  	lw	s3, 12(sp)
80000c34: 03 29 81 00  	lw	s2, 8(sp)
80000c38: 83 24 41 00  	lw	s1, 4(sp)
80000c3c: 03 24 01 00  	lw	s0, 0(sp)
80000c40: 13 01 c1 01  	addi	sp, sp, 28
80000c44: 67 80 00 00  	ret

80000c48 <_out_null>:
80000c48: 67 80 00 00  	ret

80000c4c <_out_rev>:
80000c4c: 13 01 01 fd  	addi	sp, sp, -48
80000c50: 23 22 91 02  	sw	s1, 36(sp)
80000c54: 23 20 21 03  	sw	s2, 32(sp)
80000c58: 23 2e 31 01  	sw	s3, 28(sp)
80000c5c: 23 2c 41 01  	sw	s4, 24(sp)
80000c60: 23 2a 51 01  	sw	s5, 20(sp)
80000c64: 23 28 61 01  	sw	s6, 16(sp)
80000c68: 93 0a 06 00  	mv	s5, a2
80000c6c: 23 24 81 01  	sw	s8, 8(sp)
80000c70: 23 22 91 01  	sw	s9, 4(sp)
80000c74: 23 20 a1 01  	sw	s10, 0(sp)
80000c78: 23 26 11 02  	sw	ra, 44(sp)
80000c7c: 23 24 81 02  	sw	s0, 40(sp)
80000c80: 23 26 71 01  	sw	s7, 12(sp)
80000c84: 13 f6 38 00  	andi	a2, a7, 3
80000c88: 93 8c 08 00  	mv	s9, a7
80000c8c: 13 09 05 00  	mv	s2, a0
80000c90: 93 89 05 00  	mv	s3, a1
80000c94: 13 8a 06 00  	mv	s4, a3
80000c98: 13 0b 07 00  	mv	s6, a4
80000c9c: 13 8d 07 00  	mv	s10, a5
80000ca0: 13 0c 08 00  	mv	s8, a6
80000ca4: 93 84 0a 00  	mv	s1, s5
80000ca8: 63 18 06 02  	bnez	a2, 0x80000cd8 <_out_rev+0x8c>
80000cac: b3 04 f8 40  	sub	s1, a6, a5
80000cb0: b3 84 54 01  	add	s1, s1, s5
80000cb4: 13 84 0a 00  	mv	s0, s5
80000cb8: 63 fc 07 0b  	bgeu	a5, a6, 0x80000d70 <_out_rev+0x124>
80000cbc: 13 06 04 00  	mv	a2, s0
80000cc0: 93 06 0a 00  	mv	a3, s4
80000cc4: 13 04 14 00  	addi	s0, s0, 1
80000cc8: 93 85 09 00  	mv	a1, s3
80000ccc: 13 05 00 02  	li	a0, 32
80000cd0: e7 00 09 00  	jalr	s2
80000cd4: e3 14 94 fe  	bne	s0, s1, 0x80000cbc <_out_rev+0x70>
80000cd8: 33 04 ab 01  	add	s0, s6, s10
80000cdc: b3 0b 94 00  	add	s7, s0, s1
80000ce0: 63 02 0d 02  	beqz	s10, 0x80000d04 <_out_rev+0xb8>
80000ce4: 03 45 f4 ff  	lbu	a0, -1(s0)
80000ce8: 33 86 8b 40  	sub	a2, s7, s0
80000cec: 93 06 0a 00  	mv	a3, s4
80000cf0: 13 04 f4 ff  	addi	s0, s0, -1
80000cf4: 93 85 09 00  	mv	a1, s3
80000cf8: e7 00 09 00  	jalr	s2
80000cfc: e3 14 8b fe  	bne	s6, s0, 0x80000ce4 <_out_rev+0x98>
80000d00: b3 84 a4 01  	add	s1, s1, s10
80000d04: 93 fc 2c 00  	andi	s9, s9, 2
80000d08: 63 86 0c 02  	beqz	s9, 0x80000d34 <_out_rev+0xe8>
80000d0c: b3 8a 54 41  	sub	s5, s1, s5
80000d10: 63 f2 8a 03  	bgeu	s5, s8, 0x80000d34 <_out_rev+0xe8>
80000d14: 13 86 04 00  	mv	a2, s1
80000d18: 93 8a 1a 00  	addi	s5, s5, 1
80000d1c: 93 06 0a 00  	mv	a3, s4
80000d20: 93 85 09 00  	mv	a1, s3
80000d24: 13 05 00 02  	li	a0, 32
80000d28: 93 84 14 00  	addi	s1, s1, 1
80000d2c: e7 00 09 00  	jalr	s2
80000d30: e3 e2 8a ff  	bltu	s5, s8, 0x80000d14 <_out_rev+0xc8>
80000d34: 83 20 c1 02  	lw	ra, 44(sp)
80000d38: 03 24 81 02  	lw	s0, 40(sp)
80000d3c: 03 29 01 02  	lw	s2, 32(sp)
80000d40: 83 29 c1 01  	lw	s3, 28(sp)
80000d44: 03 2a 81 01  	lw	s4, 24(sp)
80000d48: 83 2a 41 01  	lw	s5, 20(sp)
80000d4c: 03 2b 01 01  	lw	s6, 16(sp)
80000d50: 83 2b c1 00  	lw	s7, 12(sp)
80000d54: 03 2c 81 00  	lw	s8, 8(sp)
80000d58: 83 2c 41 00  	lw	s9, 4(sp)
80000d5c: 03 2d 01 00  	lw	s10, 0(sp)
80000d60: 13 85 04 00  	mv	a0, s1
80000d64: 83 24 41 02  	lw	s1, 36(sp)
80000d68: 13 01 01 03  	addi	sp, sp, 48
80000d6c: 67 80 00 00  	ret
80000d70: 93 84 0a 00  	mv	s1, s5
80000d74: 6f f0 5f f6  	j	0x80000cd8 <_out_rev+0x8c>

80000d78 <_ntoa_format>:
80000d78: 83 23 81 00  	lw	t2, 8(sp)
80000d7c: 83 22 01 00  	lw	t0, 0(sp)
80000d80: 83 2f 41 00  	lw	t6, 4(sp)
80000d84: 13 f3 23 00  	andi	t1, t2, 2
80000d88: 13 0f 08 00  	mv	t5, a6
80000d8c: 63 14 03 06  	bnez	t1, 0x80000df4 <_ntoa_format+0x7c>
80000d90: 63 94 0f 10  	bnez	t6, 0x80000e98 <_ntoa_format+0x120>
80000d94: 63 f0 57 06  	bgeu	a5, t0, 0x80000df4 <_ntoa_format+0x7c>
80000d98: 13 03 00 02  	li	t1, 32
80000d9c: 13 f8 13 00  	andi	a6, t2, 1
80000da0: 63 82 67 2c  	beq	a5, t1, 0x80001064 <_ntoa_format+0x2ec>
80000da4: 13 0e 00 03  	li	t3, 48
80000da8: 93 0e 00 02  	li	t4, 32
80000dac: 6f 00 80 00  	j	0x80000db4 <_ntoa_format+0x3c>
80000db0: 63 8a d7 15  	beq	a5, t4, 0x80000f04 <_ntoa_format+0x18c>
80000db4: 93 87 17 00  	addi	a5, a5, 1
80000db8: 33 03 f7 00  	add	t1, a4, a5
80000dbc: a3 0f c3 ff  	sb	t3, -1(t1)
80000dc0: e3 e8 57 fe  	bltu	a5, t0, 0x80000db0 <_ntoa_format+0x38>
80000dc4: 63 08 08 02  	beqz	a6, 0x80000df4 <_ntoa_format+0x7c>
80000dc8: 63 f6 f7 03  	bgeu	a5, t6, 0x80000df4 <_ntoa_format+0x7c>
80000dcc: 13 08 00 02  	li	a6, 32
80000dd0: 13 0e 00 03  	li	t3, 48
80000dd4: 93 0e 00 02  	li	t4, 32
80000dd8: 63 96 07 01  	bne	a5, a6, 0x80000de4 <_ntoa_format+0x6c>
80000ddc: 6f 00 00 13  	j	0x80000f0c <_ntoa_format+0x194>
80000de0: 63 82 d7 07  	beq	a5, t4, 0x80000e44 <_ntoa_format+0xcc>
80000de4: 93 87 17 00  	addi	a5, a5, 1
80000de8: 33 03 f7 00  	add	t1, a4, a5
80000dec: a3 0f c3 ff  	sb	t3, -1(t1)
80000df0: e3 98 f7 ff  	bne	a5, t6, 0x80000de0 <_ntoa_format+0x68>
80000df4: 13 f8 03 01  	andi	a6, t2, 16
80000df8: 63 06 08 08  	beqz	a6, 0x80000e84 <_ntoa_format+0x10c>
80000dfc: 13 f8 03 40  	andi	a6, t2, 1024
80000e00: 63 10 08 0e  	bnez	a6, 0x80000ee0 <_ntoa_format+0x168>
80000e04: 63 9a 07 04  	bnez	a5, 0x80000e58 <_ntoa_format+0xe0>
80000e08: 93 07 00 01  	li	a5, 16
80000e0c: 63 88 f8 20  	beq	a7, a5, 0x8000101c <_ntoa_format+0x2a4>
80000e10: 93 07 20 00  	li	a5, 2
80000e14: 63 86 f8 22  	beq	a7, a5, 0x80001040 <_ntoa_format+0x2c8>
80000e18: 93 07 00 03  	li	a5, 48
80000e1c: 23 00 f7 00  	sb	a5, 0(a4)
80000e20: 93 07 10 00  	li	a5, 1
80000e24: 63 1a 0f 10  	bnez	t5, 0x80000f38 <_ntoa_format+0x1c0>
80000e28: 13 f8 43 00  	andi	a6, t2, 4
80000e2c: 63 06 08 18  	beqz	a6, 0x80000fb8 <_ntoa_format+0x240>
80000e30: 33 08 f7 00  	add	a6, a4, a5
80000e34: 93 08 b0 02  	li	a7, 43
80000e38: 23 00 18 01  	sb	a7, 0(a6)
80000e3c: 93 87 17 00  	addi	a5, a5, 1
80000e40: 6f 00 c0 04  	j	0x80000e8c <_ntoa_format+0x114>
80000e44: 13 f8 03 01  	andi	a6, t2, 16
80000e48: 93 07 00 02  	li	a5, 32
80000e4c: 63 00 08 04  	beqz	a6, 0x80000e8c <_ntoa_format+0x114>
80000e50: 13 f8 03 40  	andi	a6, t2, 1024
80000e54: 63 16 08 08  	bnez	a6, 0x80000ee0 <_ntoa_format+0x168>
80000e58: 63 84 f2 00  	beq	t0, a5, 0x80000e60 <_ntoa_format+0xe8>
80000e5c: 63 92 f7 09  	bne	a5, t6, 0x80000ee0 <_ntoa_format+0x168>
80000e60: 13 88 f7 ff  	addi	a6, a5, -1
80000e64: 63 06 08 18  	beqz	a6, 0x80000ff0 <_ntoa_format+0x278>
80000e68: 13 03 00 01  	li	t1, 16
80000e6c: 63 84 68 20  	beq	a7, t1, 0x80001074 <_ntoa_format+0x2fc>
80000e70: 13 03 20 00  	li	t1, 2
80000e74: 63 84 68 10  	beq	a7, t1, 0x80000f7c <_ntoa_format+0x204>
80000e78: 33 08 07 01  	add	a6, a4, a6
80000e7c: 93 08 00 03  	li	a7, 48
80000e80: 23 00 18 01  	sb	a7, 0(a6)
80000e84: 13 08 00 02  	li	a6, 32
80000e88: e3 9e 07 f9  	bne	a5, a6, 0x80000e24 <_ntoa_format+0xac>
80000e8c: 93 88 03 00  	mv	a7, t2
80000e90: 13 88 0f 00  	mv	a6, t6
80000e94: 6f f0 9f db  	j	0x80000c4c <_out_rev>
80000e98: 13 f8 13 00  	andi	a6, t2, 1
80000e9c: 63 0c 08 0a  	beqz	a6, 0x80000f54 <_ntoa_format+0x1dc>
80000ea0: 63 16 0f 0e  	bnez	t5, 0x80000f8c <_ntoa_format+0x214>
80000ea4: 13 f3 c3 00  	andi	t1, t2, 12
80000ea8: 63 12 03 0e  	bnez	t1, 0x80000f8c <_ntoa_format+0x214>
80000eac: e3 fe 57 f0  	bgeu	a5, t0, 0x80000dc8 <_ntoa_format+0x50>
80000eb0: 13 03 00 02  	li	t1, 32
80000eb4: e3 98 67 ee  	bne	a5, t1, 0x80000da4 <_ntoa_format+0x2c>
80000eb8: 13 f3 03 01  	andi	t1, t2, 16
80000ebc: 63 e8 f7 05  	bltu	a5, t6, 0x80000f0c <_ntoa_format+0x194>
80000ec0: e3 1e 03 f2  	bnez	t1, 0x80000dfc <_ntoa_format+0x84>
80000ec4: 6f f0 9f fc  	j	0x80000e8c <_ntoa_format+0x114>
80000ec8: 13 f8 03 01  	andi	a6, t2, 16
80000ecc: e3 00 08 fc  	beqz	a6, 0x80000e8c <_ntoa_format+0x114>
80000ed0: 13 f8 03 40  	andi	a6, t2, 1024
80000ed4: e3 1c 08 fa  	bnez	a6, 0x80000e8c <_ntoa_format+0x114>
80000ed8: 13 08 00 02  	li	a6, 32
80000edc: 63 86 0f 05  	beq	t6, a6, 0x80000f28 <_ntoa_format+0x1b0>
80000ee0: 13 08 00 01  	li	a6, 16
80000ee4: 63 88 08 0b  	beq	a7, a6, 0x80000f94 <_ntoa_format+0x21c>
80000ee8: 13 08 20 00  	li	a6, 2
80000eec: 63 80 08 09  	beq	a7, a6, 0x80000f6c <_ntoa_format+0x1f4>
80000ef0: 13 08 00 02  	li	a6, 32
80000ef4: e3 8c 07 f9  	beq	a5, a6, 0x80000e8c <_ntoa_format+0x114>
80000ef8: 13 88 07 00  	mv	a6, a5
80000efc: 93 87 17 00  	addi	a5, a5, 1
80000f00: 6f f0 9f f7  	j	0x80000e78 <_ntoa_format+0x100>
80000f04: e3 02 08 fc  	beqz	a6, 0x80000ec8 <_ntoa_format+0x150>
80000f08: e3 fe f7 f3  	bgeu	a5, t6, 0x80000e44 <_ntoa_format+0xcc>
80000f0c: 13 f8 03 01  	andi	a6, t2, 16
80000f10: 93 07 00 02  	li	a5, 32
80000f14: e3 0c 08 f6  	beqz	a6, 0x80000e8c <_ntoa_format+0x114>
80000f18: 13 f8 03 40  	andi	a6, t2, 1024
80000f1c: e3 18 08 f6  	bnez	a6, 0x80000e8c <_ntoa_format+0x114>
80000f20: 63 82 f2 18  	beq	t0, a5, 0x800010a4 <_ntoa_format+0x32c>
80000f24: e3 9e ff fa  	bne	t6, a5, 0x80000ee0 <_ntoa_format+0x168>
80000f28: 93 0f 00 02  	li	t6, 32
80000f2c: 93 07 00 02  	li	a5, 32
80000f30: 13 08 f0 01  	li	a6, 31
80000f34: 6f f0 5f f3  	j	0x80000e68 <_ntoa_format+0xf0>
80000f38: 33 08 f7 00  	add	a6, a4, a5
80000f3c: 93 08 d0 02  	li	a7, 45
80000f40: 23 00 18 01  	sb	a7, 0(a6)
80000f44: 93 87 17 00  	addi	a5, a5, 1
80000f48: 93 88 03 00  	mv	a7, t2
80000f4c: 13 88 0f 00  	mv	a6, t6
80000f50: 6f f0 df cf  	j	0x80000c4c <_out_rev>
80000f54: e3 f0 57 ea  	bgeu	a5, t0, 0x80000df4 <_ntoa_format+0x7c>
80000f58: 13 03 00 02  	li	t1, 32
80000f5c: e3 94 67 e4  	bne	a5, t1, 0x80000da4 <_ntoa_format+0x2c>
80000f60: 13 f3 03 01  	andi	t1, t2, 16
80000f64: e3 16 03 ee  	bnez	t1, 0x80000e50 <_ntoa_format+0xd8>
80000f68: 6f f0 5f f2  	j	0x80000e8c <_ntoa_format+0x114>
80000f6c: 13 08 00 02  	li	a6, 32
80000f70: e3 8e 07 f1  	beq	a5, a6, 0x80000e8c <_ntoa_format+0x114>
80000f74: 13 88 07 00  	mv	a6, a5
80000f78: 93 87 17 00  	addi	a5, a5, 1
80000f7c: 33 08 07 01  	add	a6, a4, a6
80000f80: 93 08 20 06  	li	a7, 98
80000f84: 23 00 18 01  	sb	a7, 0(a6)
80000f88: 6f f0 9f f6  	j	0x80000ef0 <_ntoa_format+0x178>
80000f8c: 93 8f ff ff  	addi	t6, t6, -1
80000f90: 6f f0 df f1  	j	0x80000eac <_ntoa_format+0x134>
80000f94: 13 f8 03 02  	andi	a6, t2, 32
80000f98: 63 1e 08 02  	bnez	a6, 0x80000fd4 <_ntoa_format+0x25c>
80000f9c: 13 08 00 02  	li	a6, 32
80000fa0: e3 86 07 ef  	beq	a5, a6, 0x80000e8c <_ntoa_format+0x114>
80000fa4: 33 08 f7 00  	add	a6, a4, a5
80000fa8: 93 08 80 07  	li	a7, 120
80000fac: 23 00 18 01  	sb	a7, 0(a6)
80000fb0: 93 87 17 00  	addi	a5, a5, 1
80000fb4: 6f f0 df f3  	j	0x80000ef0 <_ntoa_format+0x178>
80000fb8: 13 f8 83 00  	andi	a6, t2, 8
80000fbc: e3 08 08 ec  	beqz	a6, 0x80000e8c <_ntoa_format+0x114>
80000fc0: 33 08 f7 00  	add	a6, a4, a5
80000fc4: 93 08 00 02  	li	a7, 32
80000fc8: 23 00 18 01  	sb	a7, 0(a6)
80000fcc: 93 87 17 00  	addi	a5, a5, 1
80000fd0: 6f f0 df eb  	j	0x80000e8c <_ntoa_format+0x114>
80000fd4: 13 08 00 02  	li	a6, 32
80000fd8: e3 8a 07 eb  	beq	a5, a6, 0x80000e8c <_ntoa_format+0x114>
80000fdc: 33 08 f7 00  	add	a6, a4, a5
80000fe0: 93 08 80 05  	li	a7, 88
80000fe4: 23 00 18 01  	sb	a7, 0(a6)
80000fe8: 93 87 17 00  	addi	a5, a5, 1
80000fec: 6f f0 5f f0  	j	0x80000ef0 <_ntoa_format+0x178>
80000ff0: 93 07 00 01  	li	a5, 16
80000ff4: e3 9e f8 e0  	bne	a7, a5, 0x80000e10 <_ntoa_format+0x98>
80000ff8: 93 f7 03 02  	andi	a5, t2, 32
80000ffc: 63 94 07 02  	bnez	a5, 0x80001024 <_ntoa_format+0x2ac>
80001000: 93 07 80 07  	li	a5, 120
80001004: 23 00 f7 00  	sb	a5, 0(a4)
80001008: 93 07 00 03  	li	a5, 48
8000100c: a3 00 f7 00  	sb	a5, 1(a4)
80001010: 93 07 20 00  	li	a5, 2
80001014: e3 0a 0f e0  	beqz	t5, 0x80000e28 <_ntoa_format+0xb0>
80001018: 6f f0 1f f2  	j	0x80000f38 <_ntoa_format+0x1c0>
8000101c: 93 f7 03 02  	andi	a5, t2, 32
80001020: 63 84 07 02  	beqz	a5, 0x80001048 <_ntoa_format+0x2d0>
80001024: 93 07 80 05  	li	a5, 88
80001028: 23 00 f7 00  	sb	a5, 0(a4)
8000102c: 93 07 00 03  	li	a5, 48
80001030: a3 00 f7 00  	sb	a5, 1(a4)
80001034: 93 07 20 00  	li	a5, 2
80001038: e3 08 0f de  	beqz	t5, 0x80000e28 <_ntoa_format+0xb0>
8000103c: 6f f0 df ef  	j	0x80000f38 <_ntoa_format+0x1c0>
80001040: 93 07 20 06  	li	a5, 98
80001044: 6f f0 1f fc  	j	0x80001004 <_ntoa_format+0x28c>
80001048: 93 07 80 07  	li	a5, 120
8000104c: 23 00 f7 00  	sb	a5, 0(a4)
80001050: 93 07 00 03  	li	a5, 48
80001054: a3 00 f7 00  	sb	a5, 1(a4)
80001058: 93 07 20 00  	li	a5, 2
8000105c: e3 06 0f dc  	beqz	t5, 0x80000e28 <_ntoa_format+0xb0>
80001060: 6f f0 9f ed  	j	0x80000f38 <_ntoa_format+0x1c0>
80001064: 13 f3 03 01  	andi	t1, t2, 16
80001068: e3 0e 08 ee  	beqz	a6, 0x80000f64 <_ntoa_format+0x1ec>
8000106c: e3 18 03 d8  	bnez	t1, 0x80000dfc <_ntoa_format+0x84>
80001070: 6f f0 df e1  	j	0x80000e8c <_ntoa_format+0x114>
80001074: 93 87 e7 ff  	addi	a5, a5, -2
80001078: 93 f8 03 02  	andi	a7, t2, 32
8000107c: b3 07 f7 00  	add	a5, a4, a5
80001080: 63 9a 08 00  	bnez	a7, 0x80001094 <_ntoa_format+0x31c>
80001084: 93 08 80 07  	li	a7, 120
80001088: 23 80 17 01  	sb	a7, 0(a5)
8000108c: 93 07 08 00  	mv	a5, a6
80001090: 6f f0 9f e6  	j	0x80000ef8 <_ntoa_format+0x180>
80001094: 93 08 80 05  	li	a7, 88
80001098: 23 80 17 01  	sb	a7, 0(a5)
8000109c: 93 07 08 00  	mv	a5, a6
800010a0: 6f f0 9f e5  	j	0x80000ef8 <_ntoa_format+0x180>
800010a4: 13 08 f0 01  	li	a6, 31
800010a8: 6f f0 1f dc  	j	0x80000e68 <_ntoa_format+0xf0>

800010ac <_out_char>:
800010ac: 63 14 05 00  	bnez	a0, 0x800010b4 <_out_char+0x8>
800010b0: 67 80 00 00  	ret
800010b4: 6f f0 8f c1  	j	0x800004cc <vx_putchar>

800010b8 <_etoa>:
800010b8: 13 01 01 f7  	addi	sp, sp, -144
800010bc: 23 20 21 09  	sw	s2, 128(sp)
800010c0: 23 2e 31 07  	sw	s3, 124(sp)
800010c4: 23 2c 41 07  	sw	s4, 120(sp)
800010c8: 23 2a 51 07  	sw	s5, 116(sp)
800010cc: 93 09 05 00  	mv	s3, a0
800010d0: 13 8a 05 00  	mv	s4, a1
800010d4: 13 09 06 00  	mv	s2, a2
800010d8: 93 8a 06 00  	mv	s5, a3
800010dc: 13 06 07 00  	mv	a2, a4
800010e0: 93 86 07 00  	mv	a3, a5
800010e4: 13 05 07 00  	mv	a0, a4
800010e8: 93 85 07 00  	mv	a1, a5
800010ec: 23 24 81 08  	sw	s0, 136(sp)
800010f0: 23 22 91 08  	sw	s1, 132(sp)
800010f4: 23 28 61 07  	sw	s6, 112(sp)
800010f8: 23 24 81 07  	sw	s8, 104(sp)
800010fc: 23 22 91 07  	sw	s9, 100(sp)
80001100: 23 26 11 08  	sw	ra, 140(sp)
80001104: 23 26 71 07  	sw	s7, 108(sp)
80001108: 23 20 a1 07  	sw	s10, 96(sp)
8000110c: 23 2e b1 05  	sw	s11, 92(sp)
80001110: 13 04 07 00  	mv	s0, a4
80001114: 93 84 07 00  	mv	s1, a5
80001118: 13 0c 08 00  	mv	s8, a6
8000111c: 13 8b 08 00  	mv	s6, a7
80001120: ef 30 90 43  	jal	0x80004d58 <__nedf2>
80001124: 83 2c 01 09  	lw	s9, 144(sp)
80001128: 63 12 05 58  	bnez	a0, 0x800016ac <_etoa+0x5f4>
8000112c: 97 67 00 00  	auipc	a5, 6
80001130: 93 87 47 30  	addi	a5, a5, 772
80001134: 03 a6 07 00  	lw	a2, 0(a5)
80001138: 83 a6 47 00  	lw	a3, 4(a5)
8000113c: 13 05 04 00  	mv	a0, s0
80001140: 93 85 04 00  	mv	a1, s1
80001144: ef 30 90 4d  	jal	0x80004e1c <__gtdf2>
80001148: 63 42 a0 56  	bgtz	a0, 0x800016ac <_etoa+0x5f4>
8000114c: 97 67 00 00  	auipc	a5, 6
80001150: 93 87 c7 2e  	addi	a5, a5, 748
80001154: 03 a6 07 00  	lw	a2, 0(a5)
80001158: 83 a6 47 00  	lw	a3, 4(a5)
8000115c: 13 05 04 00  	mv	a0, s0
80001160: 93 85 04 00  	mv	a1, s1
80001164: ef 30 90 5c  	jal	0x80004f2c <__ltdf2>
80001168: 63 42 05 54  	bltz	a0, 0x800016ac <_etoa+0x5f4>
8000116c: 13 05 04 00  	mv	a0, s0
80001170: 93 85 04 00  	mv	a1, s1
80001174: 13 06 00 00  	li	a2, 0
80001178: 93 06 00 00  	li	a3, 0
8000117c: ef 30 10 5b  	jal	0x80004f2c <__ltdf2>
80001180: b7 0b 00 80  	lui	s7, 524288
80001184: 23 2a 81 00  	sw	s0, 20(sp)
80001188: b3 cb 9b 00  	xor	s7, s7, s1
8000118c: 63 44 05 00  	bltz	a0, 0x80001194 <_etoa+0xdc>
80001190: 93 8b 04 00  	mv	s7, s1
80001194: 93 f7 0c 40  	andi	a5, s9, 1024
80001198: 23 26 f1 02  	sw	a5, 44(sp)
8000119c: 63 94 07 00  	bnez	a5, 0x800011a4 <_etoa+0xec>
800011a0: 13 0c 60 00  	li	s8, 6
800011a4: 13 d5 4b 01  	srli	a0, s7, 20
800011a8: 13 75 f5 7f  	andi	a0, a0, 2047
800011ac: 13 05 15 c0  	addi	a0, a0, -1023
800011b0: ef 50 c0 4c  	jal	0x8000667c <__floatsidf>
800011b4: 97 67 00 00  	auipc	a5, 6
800011b8: 93 87 c7 28  	addi	a5, a5, 652
800011bc: 03 a6 07 00  	lw	a2, 0(a5)
800011c0: 83 a6 47 00  	lw	a3, 4(a5)
800011c4: ef 30 90 67  	jal	0x8000503c <__muldf3>
800011c8: 97 67 00 00  	auipc	a5, 6
800011cc: 93 87 07 28  	addi	a5, a5, 640
800011d0: 03 a6 07 00  	lw	a2, 0(a5)
800011d4: 83 a6 47 00  	lw	a3, 4(a5)
800011d8: ef 20 40 64  	jal	0x8000381c <__adddf3>
800011dc: 97 67 00 00  	auipc	a5, 6
800011e0: 93 87 47 27  	addi	a5, a5, 628
800011e4: 13 97 cb 00  	slli	a4, s7, 12
800011e8: 13 57 c7 00  	srli	a4, a4, 12
800011ec: 03 a6 07 00  	lw	a2, 0(a5)
800011f0: 83 a6 47 00  	lw	a3, 4(a5)
800011f4: b7 07 f0 3f  	lui	a5, 261888
800011f8: b3 e7 e7 00  	or	a5, a5, a4
800011fc: 93 0d 05 00  	mv	s11, a0
80001200: 13 8d 05 00  	mv	s10, a1
80001204: 13 05 04 00  	mv	a0, s0
80001208: 93 85 07 00  	mv	a1, a5
8000120c: ef 40 00 5f  	jal	0x800057fc <__subdf3>
80001210: 97 67 00 00  	auipc	a5, 6
80001214: 93 87 87 24  	addi	a5, a5, 584
80001218: 03 a6 07 00  	lw	a2, 0(a5)
8000121c: 83 a6 47 00  	lw	a3, 4(a5)
80001220: ef 30 d0 61  	jal	0x8000503c <__muldf3>
80001224: 13 06 05 00  	mv	a2, a0
80001228: 93 86 05 00  	mv	a3, a1
8000122c: 13 85 0d 00  	mv	a0, s11
80001230: 93 05 0d 00  	mv	a1, s10
80001234: ef 20 80 5e  	jal	0x8000381c <__adddf3>
80001238: ef 50 00 28  	jal	0x800064b8 <__fixdfsi>
8000123c: 13 0d 05 00  	mv	s10, a0
80001240: ef 50 c0 43  	jal	0x8000667c <__floatsidf>
80001244: 97 67 00 00  	auipc	a5, 6
80001248: 93 87 c7 21  	addi	a5, a5, 540
8000124c: 03 a6 07 00  	lw	a2, 0(a5)
80001250: 83 a6 47 00  	lw	a3, 4(a5)
80001254: 93 8d 05 00  	mv	s11, a1
80001258: 23 28 a1 00  	sw	a0, 16(sp)
8000125c: ef 30 10 5e  	jal	0x8000503c <__muldf3>
80001260: 17 67 00 00  	auipc	a4, 6
80001264: 13 07 87 20  	addi	a4, a4, 520
80001268: 03 26 07 00  	lw	a2, 0(a4)
8000126c: 83 26 47 00  	lw	a3, 4(a4)
80001270: ef 20 c0 5a  	jal	0x8000381c <__adddf3>
80001274: ef 50 40 24  	jal	0x800064b8 <__fixdfsi>
80001278: 83 27 01 01  	lw	a5, 16(sp)
8000127c: 97 66 00 00  	auipc	a3, 6
80001280: 93 86 46 1f  	addi	a3, a3, 500
80001284: 03 a6 06 00  	lw	a2, 0(a3)
80001288: 83 a6 46 00  	lw	a3, 4(a3)
8000128c: 13 07 05 00  	mv	a4, a0
80001290: 93 85 0d 00  	mv	a1, s11
80001294: 13 85 07 00  	mv	a0, a5
80001298: 93 0d 07 00  	mv	s11, a4
8000129c: ef 30 10 5a  	jal	0x8000503c <__muldf3>
800012a0: 93 07 05 00  	mv	a5, a0
800012a4: 13 85 0d 00  	mv	a0, s11
800012a8: 23 28 f1 00  	sw	a5, 16(sp)
800012ac: 23 2c b1 01  	sw	s11, 24(sp)
800012b0: 93 8d 05 00  	mv	s11, a1
800012b4: ef 50 80 3c  	jal	0x8000667c <__floatsidf>
800012b8: 17 67 00 00  	auipc	a4, 6
800012bc: 13 07 07 1c  	addi	a4, a4, 448
800012c0: 03 26 07 00  	lw	a2, 0(a4)
800012c4: 83 26 47 00  	lw	a3, 4(a4)
800012c8: ef 30 50 57  	jal	0x8000503c <__muldf3>
800012cc: 83 27 01 01  	lw	a5, 16(sp)
800012d0: 13 06 05 00  	mv	a2, a0
800012d4: 93 86 05 00  	mv	a3, a1
800012d8: 13 85 07 00  	mv	a0, a5
800012dc: 93 85 0d 00  	mv	a1, s11
800012e0: ef 40 c0 51  	jal	0x800057fc <__subdf3>
800012e4: 13 06 05 00  	mv	a2, a0
800012e8: 93 86 05 00  	mv	a3, a1
800012ec: 23 2e a1 00  	sw	a0, 28(sp)
800012f0: 23 28 b1 00  	sw	a1, 16(sp)
800012f4: ef 30 90 54  	jal	0x8000503c <__muldf3>
800012f8: 83 27 01 01  	lw	a5, 16(sp)
800012fc: 03 27 c1 01  	lw	a4, 28(sp)
80001300: 93 0d 05 00  	mv	s11, a0
80001304: 93 86 07 00  	mv	a3, a5
80001308: 13 88 05 00  	mv	a6, a1
8000130c: 13 06 07 00  	mv	a2, a4
80001310: 93 85 07 00  	mv	a1, a5
80001314: 13 05 07 00  	mv	a0, a4
80001318: 23 22 f1 02  	sw	a5, 36(sp)
8000131c: 23 24 e1 02  	sw	a4, 40(sp)
80001320: 23 28 01 01  	sw	a6, 16(sp)
80001324: ef 20 80 4f  	jal	0x8000381c <__adddf3>
80001328: 97 66 00 00  	auipc	a3, 6
8000132c: 93 86 86 15  	addi	a3, a3, 344
80001330: 13 88 05 00  	mv	a6, a1
80001334: 03 a6 06 00  	lw	a2, 0(a3)
80001338: 83 25 01 01  	lw	a1, 16(sp)
8000133c: 83 a6 46 00  	lw	a3, 4(a3)
80001340: 93 08 05 00  	mv	a7, a0
80001344: 13 85 0d 00  	mv	a0, s11
80001348: 23 20 11 03  	sw	a7, 32(sp)
8000134c: 23 2e 01 01  	sw	a6, 28(sp)
80001350: ef 30 00 17  	jal	0x800044c0 <__divdf3>
80001354: 17 67 00 00  	auipc	a4, 6
80001358: 13 07 47 13  	addi	a4, a4, 308
8000135c: 03 26 07 00  	lw	a2, 0(a4)
80001360: 83 26 47 00  	lw	a3, 4(a4)
80001364: ef 20 80 4b  	jal	0x8000381c <__adddf3>
80001368: 93 86 05 00  	mv	a3, a1
8000136c: 83 25 01 01  	lw	a1, 16(sp)
80001370: 13 06 05 00  	mv	a2, a0
80001374: 13 85 0d 00  	mv	a0, s11
80001378: ef 30 80 14  	jal	0x800044c0 <__divdf3>
8000137c: 97 66 00 00  	auipc	a3, 6
80001380: 93 86 46 11  	addi	a3, a3, 276
80001384: 03 a6 06 00  	lw	a2, 0(a3)
80001388: 83 a6 46 00  	lw	a3, 4(a3)
8000138c: ef 20 00 49  	jal	0x8000381c <__adddf3>
80001390: 93 86 05 00  	mv	a3, a1
80001394: 83 25 01 01  	lw	a1, 16(sp)
80001398: 13 06 05 00  	mv	a2, a0
8000139c: 13 85 0d 00  	mv	a0, s11
800013a0: ef 30 00 12  	jal	0x800044c0 <__divdf3>
800013a4: 03 27 81 02  	lw	a4, 40(sp)
800013a8: 83 27 41 02  	lw	a5, 36(sp)
800013ac: 97 66 00 00  	auipc	a3, 6
800013b0: 93 86 c6 0e  	addi	a3, a3, 236
800013b4: 13 03 05 00  	mv	t1, a0
800013b8: 93 8d 05 00  	mv	s11, a1
800013bc: 03 a5 06 00  	lw	a0, 0(a3)
800013c0: 83 a5 46 00  	lw	a1, 4(a3)
800013c4: 13 06 07 00  	mv	a2, a4
800013c8: 93 86 07 00  	mv	a3, a5
800013cc: 23 28 61 00  	sw	t1, 16(sp)
800013d0: ef 40 c0 42  	jal	0x800057fc <__subdf3>
800013d4: 03 23 01 01  	lw	t1, 16(sp)
800013d8: 13 06 05 00  	mv	a2, a0
800013dc: 93 86 05 00  	mv	a3, a1
800013e0: 13 05 03 00  	mv	a0, t1
800013e4: 93 85 0d 00  	mv	a1, s11
800013e8: ef 20 40 43  	jal	0x8000381c <__adddf3>
800013ec: 83 28 01 02  	lw	a7, 32(sp)
800013f0: 03 28 c1 01  	lw	a6, 28(sp)
800013f4: 13 06 05 00  	mv	a2, a0
800013f8: 93 86 05 00  	mv	a3, a1
800013fc: 13 85 08 00  	mv	a0, a7
80001400: 93 05 08 00  	mv	a1, a6
80001404: ef 30 c0 0b  	jal	0x800044c0 <__divdf3>
80001408: 97 67 00 00  	auipc	a5, 6
8000140c: 93 87 87 09  	addi	a5, a5, 152
80001410: 03 a6 07 00  	lw	a2, 0(a5)
80001414: 83 a6 47 00  	lw	a3, 4(a5)
80001418: ef 20 40 40  	jal	0x8000381c <__adddf3>
8000141c: 83 27 81 01  	lw	a5, 24(sp)
80001420: 13 06 00 00  	li	a2, 0
80001424: 93 87 f7 3f  	addi	a5, a5, 1023
80001428: 93 97 47 01  	slli	a5, a5, 20
8000142c: 93 86 07 00  	mv	a3, a5
80001430: ef 30 d0 40  	jal	0x8000503c <__muldf3>
80001434: 13 06 05 00  	mv	a2, a0
80001438: 23 2c a1 00  	sw	a0, 24(sp)
8000143c: 93 86 05 00  	mv	a3, a1
80001440: 23 28 b1 00  	sw	a1, 16(sp)
80001444: 13 05 04 00  	mv	a0, s0
80001448: 93 85 0b 00  	mv	a1, s7
8000144c: ef 30 10 2e  	jal	0x80004f2c <__ltdf2>
80001450: 83 27 01 01  	lw	a5, 16(sp)
80001454: 03 27 81 01  	lw	a4, 24(sp)
80001458: 63 56 05 02  	bgez	a0, 0x80001484 <_etoa+0x3cc>
8000145c: 97 66 00 00  	auipc	a3, 6
80001460: 93 86 c6 02  	addi	a3, a3, 44
80001464: 03 a6 06 00  	lw	a2, 0(a3)
80001468: 83 a6 46 00  	lw	a3, 4(a3)
8000146c: 13 05 07 00  	mv	a0, a4
80001470: 93 85 07 00  	mv	a1, a5
80001474: ef 30 c0 04  	jal	0x800044c0 <__divdf3>
80001478: 13 0d fd ff  	addi	s10, s10, -1
8000147c: 13 07 05 00  	mv	a4, a0
80001480: 93 87 05 00  	mv	a5, a1
80001484: 93 0d 3d 06  	addi	s11, s10, 99
80001488: 93 d6 bc 00  	srli	a3, s9, 11
8000148c: 13 06 60 0c  	li	a2, 198
80001490: b3 3d b6 01  	sltu	s11, a2, s11
80001494: 93 f6 16 00  	andi	a3, a3, 1
80001498: 93 8d 4d 00  	addi	s11, s11, 4
8000149c: 63 8a 06 06  	beqz	a3, 0x80001510 <_etoa+0x458>
800014a0: 97 66 00 00  	auipc	a3, 6
800014a4: 93 86 86 00  	addi	a3, a3, 8
800014a8: 03 a6 06 00  	lw	a2, 0(a3)
800014ac: 83 a6 46 00  	lw	a3, 4(a3)
800014b0: 13 05 04 00  	mv	a0, s0
800014b4: 93 85 0b 00  	mv	a1, s7
800014b8: 23 2c f1 00  	sw	a5, 24(sp)
800014bc: 23 28 e1 00  	sw	a4, 16(sp)
800014c0: ef 30 d0 15  	jal	0x80004e1c <__gtdf2>
800014c4: 03 27 01 01  	lw	a4, 16(sp)
800014c8: 83 27 81 01  	lw	a5, 24(sp)
800014cc: 63 44 05 26  	bltz	a0, 0x80001734 <_etoa+0x67c>
800014d0: 97 66 00 00  	auipc	a3, 6
800014d4: 93 86 06 fe  	addi	a3, a3, -32
800014d8: 03 a6 06 00  	lw	a2, 0(a3)
800014dc: 83 a6 46 00  	lw	a3, 4(a3)
800014e0: 13 05 04 00  	mv	a0, s0
800014e4: 93 85 0b 00  	mv	a1, s7
800014e8: ef 30 50 24  	jal	0x80004f2c <__ltdf2>
800014ec: 03 27 01 01  	lw	a4, 16(sp)
800014f0: 83 27 81 01  	lw	a5, 24(sp)
800014f4: 63 50 05 24  	bgez	a0, 0x80001734 <_etoa+0x67c>
800014f8: 63 58 8d 25  	bge	s10, s8, 0x80001748 <_etoa+0x690>
800014fc: 33 0d ac 41  	sub	s10, s8, s10
80001500: 13 0c fd ff  	addi	s8, s10, -1
80001504: 93 ec 0c 40  	ori	s9, s9, 1024
80001508: 93 0d 00 00  	li	s11, 0
8000150c: 13 0d 00 00  	li	s10, 0
80001510: 93 08 00 00  	li	a7, 0
80001514: 63 f4 6d 01  	bgeu	s11, s6, 0x8000151c <_etoa+0x464>
80001518: b3 08 bb 41  	sub	a7, s6, s11
8000151c: 93 f6 2c 00  	andi	a3, s9, 2
80001520: 23 2c d1 00  	sw	a3, 24(sp)
80001524: 63 88 06 00  	beqz	a3, 0x80001534 <_etoa+0x47c>
80001528: 93 b6 1d 00  	seqz	a3, s11
8000152c: b3 06 d0 40  	neg	a3, a3
80001530: b3 f8 d8 00  	and	a7, a7, a3
80001534: 63 1c 0d 1c  	bnez	s10, 0x8000170c <_etoa+0x654>
80001538: 13 05 04 00  	mv	a0, s0
8000153c: 93 85 04 00  	mv	a1, s1
80001540: 13 06 00 00  	li	a2, 0
80001544: 93 06 00 00  	li	a3, 0
80001548: 23 28 11 01  	sw	a7, 16(sp)
8000154c: ef 30 10 1e  	jal	0x80004f2c <__ltdf2>
80001550: 83 28 01 01  	lw	a7, 16(sp)
80001554: 63 56 05 00  	bgez	a0, 0x80001560 <_etoa+0x4a8>
80001558: b7 07 00 80  	lui	a5, 524288
8000155c: b3 cb 77 01  	xor	s7, a5, s7
80001560: 83 27 41 01  	lw	a5, 20(sp)
80001564: 13 08 0c 00  	mv	a6, s8
80001568: 93 86 0a 00  	mv	a3, s5
8000156c: 13 86 07 00  	mv	a2, a5
80001570: b7 f7 ff ff  	lui	a5, 1048575
80001574: 93 87 f7 7f  	addi	a5, a5, 2047
80001578: b3 f7 fc 00  	and	a5, s9, a5
8000157c: 23 20 f1 00  	sw	a5, 0(sp)
80001580: 13 07 06 00  	mv	a4, a2
80001584: 93 87 0b 00  	mv	a5, s7
80001588: 13 06 09 00  	mv	a2, s2
8000158c: 93 05 0a 00  	mv	a1, s4
80001590: 13 85 09 00  	mv	a0, s3
80001594: ef 00 c0 1b  	jal	0x80001750 <_ftoa>
80001598: 13 04 05 00  	mv	s0, a0
8000159c: 63 88 0d 0c  	beqz	s11, 0x8000166c <_etoa+0x5b4>
800015a0: 13 c5 fc ff  	not	a0, s9
800015a4: 13 75 05 02  	andi	a0, a0, 32
800015a8: 13 06 04 00  	mv	a2, s0
800015ac: 93 05 0a 00  	mv	a1, s4
800015b0: 93 86 0a 00  	mv	a3, s5
800015b4: 13 05 55 04  	addi	a0, a0, 69
800015b8: e7 80 09 00  	jalr	s3
800015bc: 93 57 fd 41  	srai	a5, s10, 31
800015c0: 33 c7 a7 01  	xor	a4, a5, s10
800015c4: 33 07 f7 40  	sub	a4, a4, a5
800015c8: 13 06 14 00  	addi	a2, s0, 1
800015cc: 13 58 fd 01  	srli	a6, s10, 31
800015d0: 93 8d fd ff  	addi	s11, s11, -1
800015d4: 93 07 00 00  	li	a5, 0
800015d8: 93 05 a0 00  	li	a1, 10
800015dc: 13 03 90 00  	li	t1, 9
800015e0: 13 0e 00 02  	li	t3, 32
800015e4: 6f 00 80 00  	j	0x800015ec <_etoa+0x534>
800015e8: 63 84 c7 03  	beq	a5, t3, 0x80001610 <_etoa+0x558>
800015ec: b3 76 b7 02  	remu	a3, a4, a1
800015f0: 13 05 01 03  	addi	a0, sp, 48
800015f4: 93 87 17 00  	addi	a5, a5, 1
800015f8: b3 08 f5 00  	add	a7, a0, a5
800015fc: 13 05 07 00  	mv	a0, a4
80001600: 93 86 06 03  	addi	a3, a3, 48
80001604: a3 8f d8 fe  	sb	a3, -1(a7)
80001608: 33 57 b7 02  	divu	a4, a4, a1
8000160c: e3 6e a3 fc  	bltu	t1, a0, 0x800015e8 <_etoa+0x530>
80001610: 13 07 50 00  	li	a4, 5
80001614: 23 24 e1 00  	sw	a4, 8(sp)
80001618: 23 22 b1 01  	sw	s11, 4(sp)
8000161c: 23 20 01 00  	sw	zero, 0(sp)
80001620: 93 08 a0 00  	li	a7, 10
80001624: 13 07 01 03  	addi	a4, sp, 48
80001628: 93 86 0a 00  	mv	a3, s5
8000162c: 93 05 0a 00  	mv	a1, s4
80001630: 13 85 09 00  	mv	a0, s3
80001634: ef f0 4f f4  	jal	0x80000d78 <_ntoa_format>
80001638: 83 27 81 01  	lw	a5, 24(sp)
8000163c: 13 04 05 00  	mv	s0, a0
80001640: 63 86 07 02  	beqz	a5, 0x8000166c <_etoa+0x5b4>
80001644: 33 09 25 41  	sub	s2, a0, s2
80001648: 63 72 69 03  	bgeu	s2, s6, 0x8000166c <_etoa+0x5b4>
8000164c: 13 06 04 00  	mv	a2, s0
80001650: 13 09 19 00  	addi	s2, s2, 1
80001654: 93 86 0a 00  	mv	a3, s5
80001658: 93 05 0a 00  	mv	a1, s4
8000165c: 13 05 00 02  	li	a0, 32
80001660: 13 04 14 00  	addi	s0, s0, 1
80001664: e7 80 09 00  	jalr	s3
80001668: e3 62 69 ff  	bltu	s2, s6, 0x8000164c <_etoa+0x594>
8000166c: 83 20 c1 08  	lw	ra, 140(sp)
80001670: 13 05 04 00  	mv	a0, s0
80001674: 03 24 81 08  	lw	s0, 136(sp)
80001678: 83 24 41 08  	lw	s1, 132(sp)
8000167c: 03 29 01 08  	lw	s2, 128(sp)
80001680: 83 29 c1 07  	lw	s3, 124(sp)
80001684: 03 2a 81 07  	lw	s4, 120(sp)
80001688: 83 2a 41 07  	lw	s5, 116(sp)
8000168c: 03 2b 01 07  	lw	s6, 112(sp)
80001690: 83 2b c1 06  	lw	s7, 108(sp)
80001694: 03 2c 81 06  	lw	s8, 104(sp)
80001698: 83 2c 41 06  	lw	s9, 100(sp)
8000169c: 03 2d 01 06  	lw	s10, 96(sp)
800016a0: 83 2d c1 05  	lw	s11, 92(sp)
800016a4: 13 01 01 09  	addi	sp, sp, 144
800016a8: 67 80 00 00  	ret
800016ac: 13 07 04 00  	mv	a4, s0
800016b0: 03 24 81 08  	lw	s0, 136(sp)
800016b4: 23 28 91 09  	sw	s9, 144(sp)
800016b8: 83 20 c1 08  	lw	ra, 140(sp)
800016bc: 83 2b c1 06  	lw	s7, 108(sp)
800016c0: 83 2c 41 06  	lw	s9, 100(sp)
800016c4: 03 2d 01 06  	lw	s10, 96(sp)
800016c8: 83 2d c1 05  	lw	s11, 92(sp)
800016cc: 93 87 04 00  	mv	a5, s1
800016d0: 93 08 0b 00  	mv	a7, s6
800016d4: 83 24 41 08  	lw	s1, 132(sp)
800016d8: 03 2b 01 07  	lw	s6, 112(sp)
800016dc: 13 08 0c 00  	mv	a6, s8
800016e0: 93 86 0a 00  	mv	a3, s5
800016e4: 03 2c 81 06  	lw	s8, 104(sp)
800016e8: 83 2a 41 07  	lw	s5, 116(sp)
800016ec: 13 06 09 00  	mv	a2, s2
800016f0: 93 05 0a 00  	mv	a1, s4
800016f4: 03 29 01 08  	lw	s2, 128(sp)
800016f8: 03 2a 81 07  	lw	s4, 120(sp)
800016fc: 13 85 09 00  	mv	a0, s3
80001700: 83 29 c1 07  	lw	s3, 124(sp)
80001704: 13 01 01 09  	addi	sp, sp, 144
80001708: 6f 00 80 04  	j	0x80001750 <_ftoa>
8000170c: 93 85 0b 00  	mv	a1, s7
80001710: 13 06 07 00  	mv	a2, a4
80001714: 13 05 04 00  	mv	a0, s0
80001718: 93 86 07 00  	mv	a3, a5
8000171c: 23 28 11 01  	sw	a7, 16(sp)
80001720: ef 20 10 5a  	jal	0x800044c0 <__divdf3>
80001724: 83 28 01 01  	lw	a7, 16(sp)
80001728: 23 2a a1 00  	sw	a0, 20(sp)
8000172c: 93 8b 05 00  	mv	s7, a1
80001730: 6f f0 9f e0  	j	0x80001538 <_etoa+0x480>
80001734: e3 0e 0c dc  	beqz	s8, 0x80001510 <_etoa+0x458>
80001738: 83 26 c1 02  	lw	a3, 44(sp)
8000173c: b3 36 d0 00  	snez	a3, a3
80001740: 33 0c dc 40  	sub	s8, s8, a3
80001744: 6f f0 df dc  	j	0x80001510 <_etoa+0x458>
80001748: 13 0c 00 00  	li	s8, 0
8000174c: 6f f0 9f db  	j	0x80001504 <_etoa+0x44c>

80001750 <_ftoa>:
80001750: 13 01 01 f8  	addi	sp, sp, -128
80001754: 23 26 31 07  	sw	s3, 108(sp)
80001758: 23 2c 81 05  	sw	s8, 88(sp)
8000175c: 23 2a 91 05  	sw	s9, 84(sp)
80001760: 23 28 a1 05  	sw	s10, 80(sp)
80001764: 93 09 05 00  	mv	s3, a0
80001768: 13 8c 05 00  	mv	s8, a1
8000176c: 93 0c 06 00  	mv	s9, a2
80001770: 13 8d 06 00  	mv	s10, a3
80001774: 13 06 07 00  	mv	a2, a4
80001778: 93 86 07 00  	mv	a3, a5
8000177c: 13 05 07 00  	mv	a0, a4
80001780: 93 85 07 00  	mv	a1, a5
80001784: 23 2c 81 06  	sw	s0, 120(sp)
80001788: 23 2a 91 06  	sw	s1, 116(sp)
8000178c: 23 28 21 07  	sw	s2, 112(sp)
80001790: 23 20 61 07  	sw	s6, 96(sp)
80001794: 23 26 b1 05  	sw	s11, 76(sp)
80001798: 23 2e 11 06  	sw	ra, 124(sp)
8000179c: 23 24 41 07  	sw	s4, 104(sp)
800017a0: 23 22 51 07  	sw	s5, 100(sp)
800017a4: 23 2e 71 05  	sw	s7, 92(sp)
800017a8: 93 04 07 00  	mv	s1, a4
800017ac: 13 84 07 00  	mv	s0, a5
800017b0: 13 0b 08 00  	mv	s6, a6
800017b4: 13 89 08 00  	mv	s2, a7
800017b8: ef 30 00 5a  	jal	0x80004d58 <__nedf2>
800017bc: 83 2d 01 08  	lw	s11, 128(sp)
800017c0: 63 14 05 20  	bnez	a0, 0x800019c8 <_ftoa+0x278>
800017c4: 97 67 00 00  	auipc	a5, 6
800017c8: 93 87 47 c7  	addi	a5, a5, -908
800017cc: 03 a6 07 00  	lw	a2, 0(a5)
800017d0: 83 a6 47 00  	lw	a3, 4(a5)
800017d4: 13 85 04 00  	mv	a0, s1
800017d8: 93 05 04 00  	mv	a1, s0
800017dc: ef 30 00 75  	jal	0x80004f2c <__ltdf2>
800017e0: 63 40 05 2e  	bltz	a0, 0x80001ac0 <_ftoa+0x370>
800017e4: 97 67 00 00  	auipc	a5, 6
800017e8: 93 87 c7 c4  	addi	a5, a5, -948
800017ec: 03 a6 07 00  	lw	a2, 0(a5)
800017f0: 83 a6 47 00  	lw	a3, 4(a5)
800017f4: 13 85 04 00  	mv	a0, s1
800017f8: 93 05 04 00  	mv	a1, s0
800017fc: ef 30 00 62  	jal	0x80004e1c <__gtdf2>
80001800: 63 44 a0 1a  	bgtz	a0, 0x800019a8 <_ftoa+0x258>
80001804: 17 6a 00 00  	auipc	s4, 6
80001808: 13 0a 4a cb  	addi	s4, s4, -844
8000180c: 03 26 0a 00  	lw	a2, 0(s4)
80001810: 83 26 4a 00  	lw	a3, 4(s4)
80001814: 13 85 04 00  	mv	a0, s1
80001818: 93 05 04 00  	mv	a1, s0
8000181c: ef 30 00 60  	jal	0x80004e1c <__gtdf2>
80001820: 63 40 a0 24  	bgtz	a0, 0x80001a60 <_ftoa+0x310>
80001824: 97 67 00 00  	auipc	a5, 6
80001828: 93 87 c7 c9  	addi	a5, a5, -868
8000182c: 03 a6 07 00  	lw	a2, 0(a5)
80001830: 83 a6 47 00  	lw	a3, 4(a5)
80001834: 13 85 04 00  	mv	a0, s1
80001838: 93 05 04 00  	mv	a1, s0
8000183c: ef 30 00 6f  	jal	0x80004f2c <__ltdf2>
80001840: 63 40 05 22  	bltz	a0, 0x80001a60 <_ftoa+0x310>
80001844: 13 85 04 00  	mv	a0, s1
80001848: 93 05 04 00  	mv	a1, s0
8000184c: 13 06 00 00  	li	a2, 0
80001850: 93 06 00 00  	li	a3, 0
80001854: ef 30 80 6d  	jal	0x80004f2c <__ltdf2>
80001858: 63 40 05 1e  	bltz	a0, 0x80001a38 <_ftoa+0x2e8>
8000185c: 23 2c 01 00  	sw	zero, 24(sp)
80001860: 93 fa 0d 40  	andi	s5, s11, 1024
80001864: 63 8c 0a 40  	beqz	s5, 0x80001c7c <_ftoa+0x52c>
80001868: 93 07 90 00  	li	a5, 9
8000186c: 63 f6 67 51  	bgeu	a5, s6, 0x80001d78 <_ftoa+0x628>
80001870: 93 0a 7b ff  	addi	s5, s6, -9
80001874: 93 06 00 00  	li	a3, 0
80001878: 93 0b 01 02  	addi	s7, sp, 32
8000187c: 13 05 00 03  	li	a0, 48
80001880: 93 05 00 02  	li	a1, 32
80001884: 93 86 16 00  	addi	a3, a3, 1
80001888: 33 86 db 00  	add	a2, s7, a3
8000188c: a3 0f a6 fe  	sb	a0, -1(a2)
80001890: 33 03 db 40  	sub	t1, s6, a3
80001894: 63 80 b6 44  	beq	a3, a1, 0x80001cd4 <_ftoa+0x584>
80001898: e3 96 56 ff  	bne	a3, s5, 0x80001884 <_ftoa+0x134>
8000189c: 83 27 0a 00  	lw	a5, 0(s4)
800018a0: 03 28 4a 00  	lw	a6, 4(s4)
800018a4: 23 20 f1 00  	sw	a5, 0(sp)
800018a8: 23 22 01 01  	sw	a6, 4(sp)
800018ac: 93 05 04 00  	mv	a1, s0
800018b0: 13 85 04 00  	mv	a0, s1
800018b4: 23 2a 61 00  	sw	t1, 20(sp)
800018b8: ef 40 10 40  	jal	0x800064b8 <__fixdfsi>
800018bc: 13 0a 05 00  	mv	s4, a0
800018c0: ef 40 d0 5b  	jal	0x8000667c <__floatsidf>
800018c4: 13 06 05 00  	mv	a2, a0
800018c8: 93 86 05 00  	mv	a3, a1
800018cc: 13 85 04 00  	mv	a0, s1
800018d0: 93 05 04 00  	mv	a1, s0
800018d4: ef 30 90 72  	jal	0x800057fc <__subdf3>
800018d8: 03 26 01 00  	lw	a2, 0(sp)
800018dc: 83 26 41 00  	lw	a3, 4(sp)
800018e0: ef 30 c0 75  	jal	0x8000503c <__muldf3>
800018e4: 13 8b 05 00  	mv	s6, a1
800018e8: 23 28 a1 00  	sw	a0, 16(sp)
800018ec: ef 40 d0 4c  	jal	0x800065b8 <__fixunsdfsi>
800018f0: 23 26 a1 00  	sw	a0, 12(sp)
800018f4: ef 40 10 63  	jal	0x80006724 <__floatunsidf>
800018f8: 83 27 01 01  	lw	a5, 16(sp)
800018fc: 13 06 05 00  	mv	a2, a0
80001900: 93 86 05 00  	mv	a3, a1
80001904: 13 85 07 00  	mv	a0, a5
80001908: 93 05 0b 00  	mv	a1, s6
8000190c: ef 30 10 6f  	jal	0x800057fc <__subdf3>
80001910: 17 6b 00 00  	auipc	s6, 6
80001914: 13 0b 8b b5  	addi	s6, s6, -1192
80001918: 03 26 0b 00  	lw	a2, 0(s6)
8000191c: 83 26 4b 00  	lw	a3, 4(s6)
80001920: 23 28 a1 00  	sw	a0, 16(sp)
80001924: 23 2e b1 00  	sw	a1, 28(sp)
80001928: ef 30 40 4f  	jal	0x80004e1c <__gtdf2>
8000192c: 83 28 c1 00  	lw	a7, 12(sp)
80001930: 03 23 41 01  	lw	t1, 20(sp)
80001934: 63 56 a0 30  	blez	a0, 0x80001c40 <_ftoa+0x4f0>
80001938: 93 88 18 00  	addi	a7, a7, 1
8000193c: 13 85 08 00  	mv	a0, a7
80001940: 23 28 61 00  	sw	t1, 16(sp)
80001944: 23 26 11 01  	sw	a7, 12(sp)
80001948: ef 40 d0 5d  	jal	0x80006724 <__floatunsidf>
8000194c: 03 26 01 00  	lw	a2, 0(sp)
80001950: 83 26 41 00  	lw	a3, 4(sp)
80001954: ef 30 80 4c  	jal	0x80004e1c <__gtdf2>
80001958: 83 28 c1 00  	lw	a7, 12(sp)
8000195c: 03 23 01 01  	lw	t1, 16(sp)
80001960: 63 46 05 00  	bltz	a0, 0x8000196c <_ftoa+0x21c>
80001964: 13 0a 1a 00  	addi	s4, s4, 1
80001968: 93 08 00 00  	li	a7, 0
8000196c: 63 06 03 16  	beqz	t1, 0x80001ad8 <_ftoa+0x388>
80001970: 13 05 00 02  	li	a0, 32
80001974: 13 06 a0 00  	li	a2, 10
80001978: 13 0e 90 00  	li	t3, 9
8000197c: 63 88 aa 34  	beq	s5, a0, 0x80001ccc <_ftoa+0x57c>
80001980: b3 f6 c8 02  	remu	a3, a7, a2
80001984: 93 8a 1a 00  	addi	s5, s5, 1
80001988: b3 85 5b 01  	add	a1, s7, s5
8000198c: 13 03 f3 ff  	addi	t1, t1, -1
80001990: 93 86 06 03  	addi	a3, a3, 48
80001994: a3 8f d5 fe  	sb	a3, -1(a1)
80001998: b3 d6 c8 02  	divu	a3, a7, a2
8000199c: 63 72 1e 31  	bgeu	t3, a7, 0x80001ca0 <_ftoa+0x550>
800019a0: 93 88 06 00  	mv	a7, a3
800019a4: 6f f0 9f fd  	j	0x8000197c <_ftoa+0x22c>
800019a8: 93 f7 4d 00  	andi	a5, s11, 4
800019ac: 63 9e 07 06  	bnez	a5, 0x80001a28 <_ftoa+0x2d8>
800019b0: 17 57 00 00  	auipc	a4, 5
800019b4: 13 07 47 01  	addi	a4, a4, 20
800019b8: 93 07 30 00  	li	a5, 3
800019bc: 93 88 0d 00  	mv	a7, s11
800019c0: 13 08 09 00  	mv	a6, s2
800019c4: 6f 00 80 01  	j	0x800019dc <_ftoa+0x28c>
800019c8: 93 88 0d 00  	mv	a7, s11
800019cc: 13 08 09 00  	mv	a6, s2
800019d0: 93 07 30 00  	li	a5, 3
800019d4: 17 57 00 00  	auipc	a4, 5
800019d8: 13 07 47 ff  	addi	a4, a4, -12
800019dc: 03 24 81 07  	lw	s0, 120(sp)
800019e0: 83 20 c1 07  	lw	ra, 124(sp)
800019e4: 83 24 41 07  	lw	s1, 116(sp)
800019e8: 03 29 01 07  	lw	s2, 112(sp)
800019ec: 03 2a 81 06  	lw	s4, 104(sp)
800019f0: 83 2a 41 06  	lw	s5, 100(sp)
800019f4: 03 2b 01 06  	lw	s6, 96(sp)
800019f8: 83 2b c1 05  	lw	s7, 92(sp)
800019fc: 83 2d c1 04  	lw	s11, 76(sp)
80001a00: 93 06 0d 00  	mv	a3, s10
80001a04: 13 86 0c 00  	mv	a2, s9
80001a08: 03 2d 01 05  	lw	s10, 80(sp)
80001a0c: 83 2c 41 05  	lw	s9, 84(sp)
80001a10: 93 05 0c 00  	mv	a1, s8
80001a14: 13 85 09 00  	mv	a0, s3
80001a18: 03 2c 81 05  	lw	s8, 88(sp)
80001a1c: 83 29 c1 06  	lw	s3, 108(sp)
80001a20: 13 01 01 08  	addi	sp, sp, 128
80001a24: 6f f0 8f a2  	j	0x80000c4c <_out_rev>
80001a28: 17 57 00 00  	auipc	a4, 5
80001a2c: 13 07 47 f9  	addi	a4, a4, -108
80001a30: 93 07 40 00  	li	a5, 4
80001a34: 6f f0 9f f8  	j	0x800019bc <_ftoa+0x26c>
80001a38: 13 86 04 00  	mv	a2, s1
80001a3c: 93 06 04 00  	mv	a3, s0
80001a40: 13 05 00 00  	li	a0, 0
80001a44: 93 05 00 00  	li	a1, 0
80001a48: ef 30 50 5b  	jal	0x800057fc <__subdf3>
80001a4c: 93 07 10 00  	li	a5, 1
80001a50: 93 04 05 00  	mv	s1, a0
80001a54: 13 84 05 00  	mv	s0, a1
80001a58: 23 2c f1 00  	sw	a5, 24(sp)
80001a5c: 6f f0 5f e0  	j	0x80001860 <_ftoa+0x110>
80001a60: 93 07 04 00  	mv	a5, s0
80001a64: 03 24 81 07  	lw	s0, 120(sp)
80001a68: 23 20 b1 09  	sw	s11, 128(sp)
80001a6c: 83 20 c1 07  	lw	ra, 124(sp)
80001a70: 03 2a 81 06  	lw	s4, 104(sp)
80001a74: 83 2a 41 06  	lw	s5, 100(sp)
80001a78: 83 2b c1 05  	lw	s7, 92(sp)
80001a7c: 83 2d c1 04  	lw	s11, 76(sp)
80001a80: 13 87 04 00  	mv	a4, s1
80001a84: 93 08 09 00  	mv	a7, s2
80001a88: 83 24 41 07  	lw	s1, 116(sp)
80001a8c: 03 29 01 07  	lw	s2, 112(sp)
80001a90: 13 08 0b 00  	mv	a6, s6
80001a94: 93 06 0d 00  	mv	a3, s10
80001a98: 03 2b 01 06  	lw	s6, 96(sp)
80001a9c: 03 2d 01 05  	lw	s10, 80(sp)
80001aa0: 13 86 0c 00  	mv	a2, s9
80001aa4: 93 05 0c 00  	mv	a1, s8
80001aa8: 83 2c 41 05  	lw	s9, 84(sp)
80001aac: 03 2c 81 05  	lw	s8, 88(sp)
80001ab0: 13 85 09 00  	mv	a0, s3
80001ab4: 83 29 c1 06  	lw	s3, 108(sp)
80001ab8: 13 01 01 08  	addi	sp, sp, 128
80001abc: 6f f0 cf df  	j	0x800010b8 <_etoa>
80001ac0: 93 88 0d 00  	mv	a7, s11
80001ac4: 13 08 09 00  	mv	a6, s2
80001ac8: 93 07 40 00  	li	a5, 4
80001acc: 17 57 00 00  	auipc	a4, 5
80001ad0: 13 07 07 f0  	addi	a4, a4, -256
80001ad4: 6f f0 9f f0  	j	0x800019dc <_ftoa+0x28c>
80001ad8: 13 05 0a 00  	mv	a0, s4
80001adc: ef 40 10 3a  	jal	0x8000667c <__floatsidf>
80001ae0: 13 06 05 00  	mv	a2, a0
80001ae4: 93 86 05 00  	mv	a3, a1
80001ae8: 13 85 04 00  	mv	a0, s1
80001aec: 93 05 04 00  	mv	a1, s0
80001af0: ef 30 d0 50  	jal	0x800057fc <__subdf3>
80001af4: 03 24 0b 00  	lw	s0, 0(s6)
80001af8: 83 24 4b 00  	lw	s1, 4(s6)
80001afc: 23 20 a1 00  	sw	a0, 0(sp)
80001b00: 13 06 04 00  	mv	a2, s0
80001b04: 93 86 04 00  	mv	a3, s1
80001b08: 13 8b 05 00  	mv	s6, a1
80001b0c: ef 30 00 42  	jal	0x80004f2c <__ltdf2>
80001b10: 63 5e 05 00  	bgez	a0, 0x80001b2c <_ftoa+0x3dc>
80001b14: 03 25 01 00  	lw	a0, 0(sp)
80001b18: 93 05 0b 00  	mv	a1, s6
80001b1c: 13 06 04 00  	mv	a2, s0
80001b20: 93 86 04 00  	mv	a3, s1
80001b24: ef 30 80 2f  	jal	0x80004e1c <__gtdf2>
80001b28: 63 56 a0 00  	blez	a0, 0x80001b34 <_ftoa+0x3e4>
80001b2c: 93 76 1a 00  	andi	a3, s4, 1
80001b30: 33 0a da 00  	add	s4, s4, a3
80001b34: 13 05 00 02  	li	a0, 32
80001b38: 13 06 a0 00  	li	a2, 10
80001b3c: 63 8a aa 0a  	beq	s5, a0, 0x80001bf0 <_ftoa+0x4a0>
80001b40: b3 66 ca 02  	rem	a3, s4, a2
80001b44: 93 8a 1a 00  	addi	s5, s5, 1
80001b48: b3 85 5b 01  	add	a1, s7, s5
80001b4c: 33 4a ca 02  	div	s4, s4, a2
80001b50: 93 86 06 03  	addi	a3, a3, 48
80001b54: a3 8f d5 fe  	sb	a3, -1(a1)
80001b58: e3 12 0a fe  	bnez	s4, 0x80001b3c <_ftoa+0x3ec>
80001b5c: 93 f6 3d 00  	andi	a3, s11, 3
80001b60: 13 06 10 00  	li	a2, 1
80001b64: 63 82 c6 24  	beq	a3, a2, 0x80001da8 <_ftoa+0x658>
80001b68: 93 06 00 02  	li	a3, 32
80001b6c: 63 82 da 02  	beq	s5, a3, 0x80001b90 <_ftoa+0x440>
80001b70: 83 27 81 01  	lw	a5, 24(sp)
80001b74: 63 80 07 18  	beqz	a5, 0x80001cf4 <_ftoa+0x5a4>
80001b78: 93 87 0a 02  	addi	a5, s5, 32
80001b7c: 13 07 01 02  	addi	a4, sp, 32
80001b80: b3 86 e7 00  	add	a3, a5, a4
80001b84: 13 06 d0 02  	li	a2, 45
80001b88: 23 80 c6 fe  	sb	a2, -32(a3)
80001b8c: 93 8a 1a 00  	addi	s5, s5, 1
80001b90: 93 88 0d 00  	mv	a7, s11
80001b94: 13 08 09 00  	mv	a6, s2
80001b98: 93 87 0a 00  	mv	a5, s5
80001b9c: 13 87 0b 00  	mv	a4, s7
80001ba0: 93 06 0d 00  	mv	a3, s10
80001ba4: 13 86 0c 00  	mv	a2, s9
80001ba8: 93 05 0c 00  	mv	a1, s8
80001bac: 13 85 09 00  	mv	a0, s3
80001bb0: ef f0 cf 89  	jal	0x80000c4c <_out_rev>
80001bb4: 83 20 c1 07  	lw	ra, 124(sp)
80001bb8: 03 24 81 07  	lw	s0, 120(sp)
80001bbc: 83 24 41 07  	lw	s1, 116(sp)
80001bc0: 03 29 01 07  	lw	s2, 112(sp)
80001bc4: 83 29 c1 06  	lw	s3, 108(sp)
80001bc8: 03 2a 81 06  	lw	s4, 104(sp)
80001bcc: 83 2a 41 06  	lw	s5, 100(sp)
80001bd0: 03 2b 01 06  	lw	s6, 96(sp)
80001bd4: 83 2b c1 05  	lw	s7, 92(sp)
80001bd8: 03 2c 81 05  	lw	s8, 88(sp)
80001bdc: 83 2c 41 05  	lw	s9, 84(sp)
80001be0: 03 2d 01 05  	lw	s10, 80(sp)
80001be4: 83 2d c1 04  	lw	s11, 76(sp)
80001be8: 13 01 01 08  	addi	sp, sp, 128
80001bec: 67 80 00 00  	ret
80001bf0: 93 f6 3d 00  	andi	a3, s11, 3
80001bf4: 13 06 10 00  	li	a2, 1
80001bf8: e3 9c c6 f8  	bne	a3, a2, 0x80001b90 <_ftoa+0x440>
80001bfc: e3 0a 09 f8  	beqz	s2, 0x80001b90 <_ftoa+0x440>
80001c00: 83 27 81 01  	lw	a5, 24(sp)
80001c04: 63 94 07 16  	bnez	a5, 0x80001d6c <_ftoa+0x61c>
80001c08: 93 f6 cd 00  	andi	a3, s11, 12
80001c0c: 63 90 06 16  	bnez	a3, 0x80001d6c <_ftoa+0x61c>
80001c10: 63 fe 2a 0d  	bgeu	s5, s2, 0x80001cec <_ftoa+0x59c>
80001c14: 93 06 00 02  	li	a3, 32
80001c18: 13 06 00 03  	li	a2, 48
80001c1c: 93 05 00 02  	li	a1, 32
80001c20: 63 8c da 00  	beq	s5, a3, 0x80001c38 <_ftoa+0x4e8>
80001c24: 93 8a 1a 00  	addi	s5, s5, 1
80001c28: b3 86 5b 01  	add	a3, s7, s5
80001c2c: a3 8f c6 fe  	sb	a2, -1(a3)
80001c30: e3 8c 2a f3  	beq	s5, s2, 0x80001b68 <_ftoa+0x418>
80001c34: e3 98 ba fe  	bne	s5, a1, 0x80001c24 <_ftoa+0x4d4>
80001c38: 93 0a 00 02  	li	s5, 32
80001c3c: 6f f0 5f f5  	j	0x80001b90 <_ftoa+0x440>
80001c40: 97 67 00 00  	auipc	a5, 6
80001c44: 93 87 87 82  	addi	a5, a5, -2008
80001c48: 03 25 01 01  	lw	a0, 16(sp)
80001c4c: 83 25 c1 01  	lw	a1, 28(sp)
80001c50: 03 a6 07 00  	lw	a2, 0(a5)
80001c54: 83 a6 47 00  	lw	a3, 4(a5)
80001c58: 23 26 11 01  	sw	a7, 12(sp)
80001c5c: 23 20 61 00  	sw	t1, 0(sp)
80001c60: ef 30 c0 2c  	jal	0x80004f2c <__ltdf2>
80001c64: 03 23 01 00  	lw	t1, 0(sp)
80001c68: 83 28 c1 00  	lw	a7, 12(sp)
80001c6c: e3 40 05 d0  	bltz	a0, 0x8000196c <_ftoa+0x21c>
80001c70: 63 96 08 0e  	bnez	a7, 0x80001d5c <_ftoa+0x60c>
80001c74: 93 88 18 00  	addi	a7, a7, 1
80001c78: 6f f0 5f cf  	j	0x8000196c <_ftoa+0x21c>
80001c7c: 17 67 00 00  	auipc	a4, 6
80001c80: 13 07 47 83  	addi	a4, a4, -1996
80001c84: 83 27 07 00  	lw	a5, 0(a4)
80001c88: 03 28 47 00  	lw	a6, 4(a4)
80001c8c: 13 03 60 00  	li	t1, 6
80001c90: 23 20 f1 00  	sw	a5, 0(sp)
80001c94: 23 22 01 01  	sw	a6, 4(sp)
80001c98: 93 0b 01 02  	addi	s7, sp, 32
80001c9c: 6f f0 1f c1  	j	0x800018ac <_ftoa+0x15c>
80001ca0: 63 86 aa 02  	beq	s5, a0, 0x80001ccc <_ftoa+0x57c>
80001ca4: 33 06 53 01  	add	a2, t1, s5
80001ca8: 13 05 00 03  	li	a0, 48
80001cac: 93 05 00 02  	li	a1, 32
80001cb0: 63 16 03 00  	bnez	t1, 0x80001cbc <_ftoa+0x56c>
80001cb4: 6f 00 c0 06  	j	0x80001d20 <_ftoa+0x5d0>
80001cb8: 63 86 ca 06  	beq	s5, a2, 0x80001d24 <_ftoa+0x5d4>
80001cbc: 93 8a 1a 00  	addi	s5, s5, 1
80001cc0: b3 86 5b 01  	add	a3, s7, s5
80001cc4: a3 8f a6 fe  	sb	a0, -1(a3)
80001cc8: e3 98 ba fe  	bne	s5, a1, 0x80001cb8 <_ftoa+0x568>
80001ccc: 93 0a 00 02  	li	s5, 32
80001cd0: 6f f0 5f e6  	j	0x80001b34 <_ftoa+0x3e4>
80001cd4: 83 27 0a 00  	lw	a5, 0(s4)
80001cd8: 03 28 4a 00  	lw	a6, 4(s4)
80001cdc: 93 0a 00 02  	li	s5, 32
80001ce0: 23 20 f1 00  	sw	a5, 0(sp)
80001ce4: 23 22 01 01  	sw	a6, 4(sp)
80001ce8: 6f f0 5f bc  	j	0x800018ac <_ftoa+0x15c>
80001cec: 93 06 00 02  	li	a3, 32
80001cf0: e3 80 da ea  	beq	s5, a3, 0x80001b90 <_ftoa+0x440>
80001cf4: 93 f6 4d 00  	andi	a3, s11, 4
80001cf8: 63 94 06 04  	bnez	a3, 0x80001d40 <_ftoa+0x5f0>
80001cfc: 93 f6 8d 00  	andi	a3, s11, 8
80001d00: e3 88 06 e8  	beqz	a3, 0x80001b90 <_ftoa+0x440>
80001d04: 93 87 0a 02  	addi	a5, s5, 32
80001d08: 13 07 01 02  	addi	a4, sp, 32
80001d0c: b3 86 e7 00  	add	a3, a5, a4
80001d10: 13 06 00 02  	li	a2, 32
80001d14: 23 80 c6 fe  	sb	a2, -32(a3)
80001d18: 93 8a 1a 00  	addi	s5, s5, 1
80001d1c: 6f f0 5f e7  	j	0x80001b90 <_ftoa+0x440>
80001d20: 13 86 0a 00  	mv	a2, s5
80001d24: 93 07 06 02  	addi	a5, a2, 32
80001d28: 13 07 01 02  	addi	a4, sp, 32
80001d2c: b3 86 e7 00  	add	a3, a5, a4
80001d30: 93 0a 16 00  	addi	s5, a2, 1
80001d34: 13 06 e0 02  	li	a2, 46
80001d38: 23 80 c6 fe  	sb	a2, -32(a3)
80001d3c: 6f f0 9f df  	j	0x80001b34 <_ftoa+0x3e4>
80001d40: 93 87 0a 02  	addi	a5, s5, 32
80001d44: 13 07 01 02  	addi	a4, sp, 32
80001d48: b3 86 e7 00  	add	a3, a5, a4
80001d4c: 13 06 b0 02  	li	a2, 43
80001d50: 23 80 c6 fe  	sb	a2, -32(a3)
80001d54: 93 8a 1a 00  	addi	s5, s5, 1
80001d58: 6f f0 9f e3  	j	0x80001b90 <_ftoa+0x440>
80001d5c: 93 f6 18 00  	andi	a3, a7, 1
80001d60: e3 86 06 c0  	beqz	a3, 0x8000196c <_ftoa+0x21c>
80001d64: 93 88 18 00  	addi	a7, a7, 1
80001d68: 6f f0 5f c0  	j	0x8000196c <_ftoa+0x21c>
80001d6c: 13 09 f9 ff  	addi	s2, s2, -1
80001d70: e3 e2 2a eb  	bltu	s5, s2, 0x80001c14 <_ftoa+0x4c4>
80001d74: 6f f0 5f df  	j	0x80001b68 <_ftoa+0x418>
80001d78: 13 17 3b 00  	slli	a4, s6, 3
80001d7c: 97 57 00 00  	auipc	a5, 5
80001d80: 93 87 47 df  	addi	a5, a5, -524
80001d84: b3 87 e7 00  	add	a5, a5, a4
80001d88: 03 a8 47 00  	lw	a6, 4(a5)
80001d8c: 83 a7 07 00  	lw	a5, 0(a5)
80001d90: 13 03 0b 00  	mv	t1, s6
80001d94: 23 22 01 01  	sw	a6, 4(sp)
80001d98: 23 20 f1 00  	sw	a5, 0(sp)
80001d9c: 93 0a 00 00  	li	s5, 0
80001da0: 93 0b 01 02  	addi	s7, sp, 32
80001da4: 6f f0 9f b0  	j	0x800018ac <_ftoa+0x15c>
80001da8: e3 00 09 dc  	beqz	s2, 0x80001b68 <_ftoa+0x418>
80001dac: 6f f0 5f e5  	j	0x80001c00 <_ftoa+0x4b0>

80001db0 <_vsnprintf>:
80001db0: 13 01 01 f7  	addi	sp, sp, -144
80001db4: 23 20 21 09  	sw	s2, 128(sp)
80001db8: 23 28 61 07  	sw	s6, 112(sp)
80001dbc: 23 26 71 07  	sw	s7, 108(sp)
80001dc0: 23 22 91 07  	sw	s9, 100(sp)
80001dc4: 23 2e b1 05  	sw	s11, 92(sp)
80001dc8: 23 26 11 08  	sw	ra, 140(sp)
80001dcc: 23 24 81 08  	sw	s0, 136(sp)
80001dd0: 23 22 91 08  	sw	s1, 132(sp)
80001dd4: 23 2e 31 07  	sw	s3, 124(sp)
80001dd8: 23 2c 41 07  	sw	s4, 120(sp)
80001ddc: 23 2a 51 07  	sw	s5, 116(sp)
80001de0: 23 24 81 07  	sw	s8, 104(sp)
80001de4: 23 20 a1 07  	sw	s10, 96(sp)
80001de8: 13 8b 05 00  	mv	s6, a1
80001dec: 93 0d 06 00  	mv	s11, a2
80001df0: 13 89 06 00  	mv	s2, a3
80001df4: 93 0c 07 00  	mv	s9, a4
80001df8: 97 fb ff ff  	auipc	s7, 1048575
80001dfc: 93 8b 0b e5  	addi	s7, s7, -432
80001e00: 63 84 05 00  	beqz	a1, 0x80001e08 <_vsnprintf+0x58>
80001e04: 93 0b 05 00  	mv	s7, a0
80001e08: 03 45 09 00  	lbu	a0, 0(s2)
80001e0c: 13 04 00 00  	li	s0, 0
80001e10: 63 04 05 78  	beqz	a0, 0x80002598 <_vsnprintf+0x7e8>
80001e14: b7 97 00 00  	lui	a5, 9
80001e18: 93 87 17 04  	addi	a5, a5, 65
80001e1c: 93 0a 50 02  	li	s5, 37
80001e20: 13 0a 00 01  	li	s4, 16
80001e24: 97 59 00 00  	auipc	s3, 5
80001e28: 93 89 09 bb  	addi	s3, s3, -1104
80001e2c: 23 2a f1 00  	sw	a5, 20(sp)
80001e30: 6f 00 00 02  	j	0x80001e50 <_vsnprintf+0xa0>
80001e34: 13 06 04 00  	mv	a2, s0
80001e38: 93 86 0d 00  	mv	a3, s11
80001e3c: 93 05 0b 00  	mv	a1, s6
80001e40: 13 04 14 00  	addi	s0, s0, 1
80001e44: e7 80 0b 00  	jalr	s7
80001e48: 03 45 09 00  	lbu	a0, 0(s2)
80001e4c: 63 0a 05 1c  	beqz	a0, 0x80002020 <_vsnprintf+0x270>
80001e50: 13 09 19 00  	addi	s2, s2, 1
80001e54: e3 10 55 ff  	bne	a0, s5, 0x80001e34 <_vsnprintf+0x84>
80001e58: 93 06 00 00  	li	a3, 0
80001e5c: 03 45 09 00  	lbu	a0, 0(s2)
80001e60: 13 07 19 00  	addi	a4, s2, 1
80001e64: 93 07 05 fe  	addi	a5, a0, -32
80001e68: 93 f7 f7 0f  	andi	a5, a5, 255
80001e6c: 63 6c fa 00  	bltu	s4, a5, 0x80001e84 <_vsnprintf+0xd4>
80001e70: 93 97 27 00  	slli	a5, a5, 2
80001e74: b3 87 37 01  	add	a5, a5, s3
80001e78: 83 a7 07 00  	lw	a5, 0(a5)
80001e7c: b3 87 37 01  	add	a5, a5, s3
80001e80: 67 80 07 00  	jr	a5
80001e84: 93 07 05 fd  	addi	a5, a0, -48
80001e88: 93 f7 f7 0f  	andi	a5, a5, 255
80001e8c: 13 06 90 00  	li	a2, 9
80001e90: 63 78 f6 1e  	bgeu	a2, a5, 0x80002080 <_vsnprintf+0x2d0>
80001e94: 93 07 a0 02  	li	a5, 42
80001e98: 93 08 00 00  	li	a7, 0
80001e9c: 63 02 f5 26  	beq	a0, a5, 0x80002100 <_vsnprintf+0x350>
80001ea0: 93 07 e0 02  	li	a5, 46
80001ea4: 13 08 00 00  	li	a6, 0
80001ea8: 63 04 f5 22  	beq	a0, a5, 0x800020d0 <_vsnprintf+0x320>
80001eac: 93 07 85 f9  	addi	a5, a0, -104
80001eb0: 93 f7 f7 0f  	andi	a5, a5, 255
80001eb4: 13 06 20 01  	li	a2, 18
80001eb8: 63 64 f6 06  	bltu	a2, a5, 0x80001f20 <_vsnprintf+0x170>
80001ebc: 17 56 00 00  	auipc	a2, 5
80001ec0: 13 06 c6 b5  	addi	a2, a2, -1188
80001ec4: 93 97 27 00  	slli	a5, a5, 2
80001ec8: b3 87 c7 00  	add	a5, a5, a2
80001ecc: 83 a7 07 00  	lw	a5, 0(a5)
80001ed0: b3 87 c7 00  	add	a5, a5, a2
80001ed4: 67 80 07 00  	jr	a5
80001ed8: 93 e6 16 00  	ori	a3, a3, 1
80001edc: 13 09 07 00  	mv	s2, a4
80001ee0: 6f f0 df f7  	j	0x80001e5c <_vsnprintf+0xac>
80001ee4: 93 e6 26 00  	ori	a3, a3, 2
80001ee8: 13 09 07 00  	mv	s2, a4
80001eec: 6f f0 1f f7  	j	0x80001e5c <_vsnprintf+0xac>
80001ef0: 93 e6 46 00  	ori	a3, a3, 4
80001ef4: 13 09 07 00  	mv	s2, a4
80001ef8: 6f f0 5f f6  	j	0x80001e5c <_vsnprintf+0xac>
80001efc: 93 e6 06 01  	ori	a3, a3, 16
80001f00: 13 09 07 00  	mv	s2, a4
80001f04: 6f f0 9f f5  	j	0x80001e5c <_vsnprintf+0xac>
80001f08: 93 e6 86 00  	ori	a3, a3, 8
80001f0c: 13 09 07 00  	mv	s2, a4
80001f10: 6f f0 df f4  	j	0x80001e5c <_vsnprintf+0xac>
80001f14: 03 45 19 00  	lbu	a0, 1(s2)
80001f18: 93 e6 06 10  	ori	a3, a3, 256
80001f1c: 13 07 17 00  	addi	a4, a4, 1
80001f20: 93 07 70 06  	li	a5, 103
80001f24: 13 09 07 00  	mv	s2, a4
80001f28: 63 ec a7 02  	bltu	a5, a0, 0x80001f60 <_vsnprintf+0x1b0>
80001f2c: 93 07 40 02  	li	a5, 36
80001f30: e3 f2 a7 f0  	bgeu	a5, a0, 0x80001e34 <_vsnprintf+0x84>
80001f34: 93 07 b5 fd  	addi	a5, a0, -37
80001f38: 93 f7 f7 0f  	andi	a5, a5, 255
80001f3c: 13 07 20 04  	li	a4, 66
80001f40: e3 6a f7 ee  	bltu	a4, a5, 0x80001e34 <_vsnprintf+0x84>
80001f44: 17 57 00 00  	auipc	a4, 5
80001f48: 13 07 07 b2  	addi	a4, a4, -1248
80001f4c: 93 97 27 00  	slli	a5, a5, 2
80001f50: b3 87 e7 00  	add	a5, a5, a4
80001f54: 83 a7 07 00  	lw	a5, 0(a5)
80001f58: b3 87 e7 00  	add	a5, a5, a4
80001f5c: 67 80 07 00  	jr	a5
80001f60: 93 07 75 f9  	addi	a5, a0, -105
80001f64: 93 f7 f7 0f  	andi	a5, a5, 255
80001f68: 13 07 f0 00  	li	a4, 15
80001f6c: e3 64 f7 ec  	bltu	a4, a5, 0x80001e34 <_vsnprintf+0x84>
80001f70: 03 27 41 01  	lw	a4, 20(sp)
80001f74: 93 04 10 00  	li	s1, 1
80001f78: b3 94 f4 00  	sll	s1, s1, a5
80001f7c: b3 f4 e4 00  	and	s1, s1, a4
80001f80: 63 96 04 58  	bnez	s1, 0x8000250c <_vsnprintf+0x75c>
80001f84: 13 07 a0 00  	li	a4, 10
80001f88: 63 88 e7 2e  	beq	a5, a4, 0x80002278 <_vsnprintf+0x4c8>
80001f8c: 13 07 70 00  	li	a4, 7
80001f90: e3 92 e7 ea  	bne	a5, a4, 0x80001e34 <_vsnprintf+0x84>
80001f94: 83 a7 0c 00  	lw	a5, 0(s9)
80001f98: 93 e5 16 02  	ori	a1, a3, 33
80001f9c: 93 8c 4c 00  	addi	s9, s9, 4
80001fa0: 63 82 07 3e  	beqz	a5, 0x80002384 <_vsnprintf+0x5d4>
80001fa4: 13 07 01 03  	addi	a4, sp, 48
80001fa8: 93 08 90 00  	li	a7, 9
80001fac: 13 05 f0 00  	li	a0, 15
80001fb0: 13 03 00 02  	li	t1, 32
80001fb4: 6f 00 c0 00  	j	0x80001fc0 <_vsnprintf+0x210>
80001fb8: 63 86 64 02  	beq	s1, t1, 0x80001fe4 <_vsnprintf+0x234>
80001fbc: 93 87 06 00  	mv	a5, a3
80001fc0: 13 fe f7 00  	andi	t3, a5, 15
80001fc4: 13 06 7e 03  	addi	a2, t3, 55
80001fc8: 63 e4 c8 01  	bltu	a7, t3, 0x80001fd0 <_vsnprintf+0x220>
80001fcc: 13 06 0e 03  	addi	a2, t3, 48
80001fd0: 93 84 14 00  	addi	s1, s1, 1
80001fd4: b3 06 97 00  	add	a3, a4, s1
80001fd8: a3 8f c6 fe  	sb	a2, -1(a3)
80001fdc: 93 d6 47 00  	srli	a3, a5, 4
80001fe0: e3 6c f5 fc  	bltu	a0, a5, 0x80001fb8 <_vsnprintf+0x208>
80001fe4: 93 07 80 00  	li	a5, 8
80001fe8: 23 22 f1 00  	sw	a5, 4(sp)
80001fec: 23 20 01 01  	sw	a6, 0(sp)
80001ff0: 13 06 04 00  	mv	a2, s0
80001ff4: 23 24 b1 00  	sw	a1, 8(sp)
80001ff8: 93 08 00 01  	li	a7, 16
80001ffc: 13 08 00 00  	li	a6, 0
80002000: 93 87 04 00  	mv	a5, s1
80002004: 93 86 0d 00  	mv	a3, s11
80002008: 93 05 0b 00  	mv	a1, s6
8000200c: 13 85 0b 00  	mv	a0, s7
80002010: ef e0 9f d6  	jal	0x80000d78 <_ntoa_format>
80002014: 13 04 05 00  	mv	s0, a0
80002018: 03 45 09 00  	lbu	a0, 0(s2)
8000201c: e3 1a 05 e2  	bnez	a0, 0x80001e50 <_vsnprintf+0xa0>
80002020: 93 04 04 00  	mv	s1, s0
80002024: 63 64 b4 01  	bltu	s0, s11, 0x8000202c <_vsnprintf+0x27c>
80002028: 13 84 fd ff  	addi	s0, s11, -1
8000202c: 93 86 0d 00  	mv	a3, s11
80002030: 13 06 04 00  	mv	a2, s0
80002034: 93 05 0b 00  	mv	a1, s6
80002038: 13 05 00 00  	li	a0, 0
8000203c: e7 80 0b 00  	jalr	s7
80002040: 83 20 c1 08  	lw	ra, 140(sp)
80002044: 03 24 81 08  	lw	s0, 136(sp)
80002048: 03 29 01 08  	lw	s2, 128(sp)
8000204c: 83 29 c1 07  	lw	s3, 124(sp)
80002050: 03 2a 81 07  	lw	s4, 120(sp)
80002054: 83 2a 41 07  	lw	s5, 116(sp)
80002058: 03 2b 01 07  	lw	s6, 112(sp)
8000205c: 83 2b c1 06  	lw	s7, 108(sp)
80002060: 03 2c 81 06  	lw	s8, 104(sp)
80002064: 83 2c 41 06  	lw	s9, 100(sp)
80002068: 03 2d 01 06  	lw	s10, 96(sp)
8000206c: 83 2d c1 05  	lw	s11, 92(sp)
80002070: 13 85 04 00  	mv	a0, s1
80002074: 83 24 41 08  	lw	s1, 132(sp)
80002078: 13 01 01 09  	addi	sp, sp, 144
8000207c: 67 80 00 00  	ret
80002080: 93 08 00 00  	li	a7, 0
80002084: 13 06 90 00  	li	a2, 9
80002088: 93 85 08 00  	mv	a1, a7
8000208c: 6f 00 80 00  	j	0x80002094 <_vsnprintf+0x2e4>
80002090: 13 07 17 00  	addi	a4, a4, 1
80002094: 93 98 25 00  	slli	a7, a1, 2
80002098: b3 88 b8 00  	add	a7, a7, a1
8000209c: 93 98 18 00  	slli	a7, a7, 1
800020a0: b3 88 a8 00  	add	a7, a7, a0
800020a4: 03 45 07 00  	lbu	a0, 0(a4)
800020a8: 13 09 07 00  	mv	s2, a4
800020ac: 93 85 08 fd  	addi	a1, a7, -48
800020b0: 93 07 05 fd  	addi	a5, a0, -48
800020b4: 93 f7 f7 0f  	andi	a5, a5, 255
800020b8: e3 7c f6 fc  	bgeu	a2, a5, 0x80002090 <_vsnprintf+0x2e0>
800020bc: 93 07 e0 02  	li	a5, 46
800020c0: 93 88 05 00  	mv	a7, a1
800020c4: 13 07 17 00  	addi	a4, a4, 1
800020c8: 13 08 00 00  	li	a6, 0
800020cc: e3 10 f5 de  	bne	a0, a5, 0x80001eac <_vsnprintf+0xfc>
800020d0: 03 45 19 00  	lbu	a0, 1(s2)
800020d4: 93 05 90 00  	li	a1, 9
800020d8: 13 06 07 00  	mv	a2, a4
800020dc: 93 07 05 fd  	addi	a5, a0, -48
800020e0: 93 f7 f7 0f  	andi	a5, a5, 255
800020e4: 93 e6 06 40  	ori	a3, a3, 1024
800020e8: 63 fa f5 22  	bgeu	a1, a5, 0x8000231c <_vsnprintf+0x56c>
800020ec: 93 07 a0 02  	li	a5, 42
800020f0: 63 02 f5 26  	beq	a0, a5, 0x80002354 <_vsnprintf+0x5a4>
800020f4: 13 09 07 00  	mv	s2, a4
800020f8: 13 07 17 00  	addi	a4, a4, 1
800020fc: 6f f0 1f db  	j	0x80001eac <_vsnprintf+0xfc>
80002100: 83 a8 0c 00  	lw	a7, 0(s9)
80002104: 93 8c 4c 00  	addi	s9, s9, 4
80002108: 63 ca 08 00  	bltz	a7, 0x8000211c <_vsnprintf+0x36c>
8000210c: 03 45 19 00  	lbu	a0, 1(s2)
80002110: 13 09 07 00  	mv	s2, a4
80002114: 13 07 17 00  	addi	a4, a4, 1
80002118: 6f f0 9f d8  	j	0x80001ea0 <_vsnprintf+0xf0>
8000211c: 03 45 19 00  	lbu	a0, 1(s2)
80002120: 93 e6 26 00  	ori	a3, a3, 2
80002124: 13 09 07 00  	mv	s2, a4
80002128: b3 08 10 41  	neg	a7, a7
8000212c: 13 07 17 00  	addi	a4, a4, 1
80002130: 6f f0 1f d7  	j	0x80001ea0 <_vsnprintf+0xf0>
80002134: 93 07 70 06  	li	a5, 103
80002138: 63 0a f5 32  	beq	a0, a5, 0x8000246c <_vsnprintf+0x6bc>
8000213c: 93 07 70 04  	li	a5, 71
80002140: 63 0a f5 42  	beq	a0, a5, 0x80002574 <_vsnprintf+0x7c4>
80002144: 93 07 50 04  	li	a5, 69
80002148: 63 0c f5 42  	beq	a0, a5, 0x80002580 <_vsnprintf+0x7d0>
8000214c: 93 8c 7c 00  	addi	s9, s9, 7
80002150: 93 fc 8c ff  	andi	s9, s9, -8
80002154: 03 a7 0c 00  	lw	a4, 0(s9)
80002158: 83 a7 4c 00  	lw	a5, 4(s9)
8000215c: 13 06 04 00  	mv	a2, s0
80002160: 23 20 d1 00  	sw	a3, 0(sp)
80002164: 93 05 0b 00  	mv	a1, s6
80002168: 93 86 0d 00  	mv	a3, s11
8000216c: 13 85 0b 00  	mv	a0, s7
80002170: ef e0 9f f4  	jal	0x800010b8 <_etoa>
80002174: 93 8c 8c 00  	addi	s9, s9, 8
80002178: 13 04 05 00  	mv	s0, a0
8000217c: 6f f0 df cc  	j	0x80001e48 <_vsnprintf+0x98>
80002180: 03 45 19 00  	lbu	a0, 1(s2)
80002184: 93 07 c0 06  	li	a5, 108
80002188: e3 18 f5 d8  	bne	a0, a5, 0x80001f18 <_vsnprintf+0x168>
8000218c: 03 45 29 00  	lbu	a0, 2(s2)
80002190: 93 e6 06 30  	ori	a3, a3, 768
80002194: 13 07 39 00  	addi	a4, s2, 3
80002198: 6f f0 9f d8  	j	0x80001f20 <_vsnprintf+0x170>
8000219c: 03 45 19 00  	lbu	a0, 1(s2)
800021a0: 93 e6 06 20  	ori	a3, a3, 512
800021a4: 13 07 17 00  	addi	a4, a4, 1
800021a8: 6f f0 9f d7  	j	0x80001f20 <_vsnprintf+0x170>
800021ac: 03 45 19 00  	lbu	a0, 1(s2)
800021b0: 93 07 80 06  	li	a5, 104
800021b4: 63 0a f5 3c  	beq	a0, a5, 0x80002588 <_vsnprintf+0x7d8>
800021b8: 93 e6 06 08  	ori	a3, a3, 128
800021bc: 13 07 17 00  	addi	a4, a4, 1
800021c0: 6f f0 1f d6  	j	0x80001f20 <_vsnprintf+0x170>
800021c4: 93 07 60 04  	li	a5, 70
800021c8: 63 0a f5 2a  	beq	a0, a5, 0x8000247c <_vsnprintf+0x6cc>
800021cc: 93 8c 7c 00  	addi	s9, s9, 7
800021d0: 93 fc 8c ff  	andi	s9, s9, -8
800021d4: 03 a7 0c 00  	lw	a4, 0(s9)
800021d8: 83 a7 4c 00  	lw	a5, 4(s9)
800021dc: 13 06 04 00  	mv	a2, s0
800021e0: 23 20 d1 00  	sw	a3, 0(sp)
800021e4: 93 05 0b 00  	mv	a1, s6
800021e8: 93 86 0d 00  	mv	a3, s11
800021ec: 13 85 0b 00  	mv	a0, s7
800021f0: ef f0 0f d6  	jal	0x80001750 <_ftoa>
800021f4: 93 8c 8c 00  	addi	s9, s9, 8
800021f8: 13 04 05 00  	mv	s0, a0
800021fc: 6f f0 df c4  	j	0x80001e48 <_vsnprintf+0x98>
80002200: 13 06 04 00  	mv	a2, s0
80002204: 93 86 0d 00  	mv	a3, s11
80002208: 93 05 0b 00  	mv	a1, s6
8000220c: 13 05 50 02  	li	a0, 37
80002210: 13 04 14 00  	addi	s0, s0, 1
80002214: e7 80 0b 00  	jalr	s7
80002218: 6f f0 1f c3  	j	0x80001e48 <_vsnprintf+0x98>
8000221c: 93 f6 26 00  	andi	a3, a3, 2
80002220: 13 8c 4c 00  	addi	s8, s9, 4
80002224: 93 04 14 00  	addi	s1, s0, 1
80002228: 63 86 06 3a  	beqz	a3, 0x800025d4 <_vsnprintf+0x824>
8000222c: 03 c5 0c 00  	lbu	a0, 0(s9)
80002230: 23 2c 11 01  	sw	a7, 24(sp)
80002234: 13 06 04 00  	mv	a2, s0
80002238: 93 86 0d 00  	mv	a3, s11
8000223c: 93 05 0b 00  	mv	a1, s6
80002240: e7 80 0b 00  	jalr	s7
80002244: 83 28 81 01  	lw	a7, 24(sp)
80002248: 93 07 10 00  	li	a5, 1
8000224c: 33 04 14 01  	add	s0, s0, a7
80002250: 63 f4 17 59  	bgeu	a5, a7, 0x800027d8 <_vsnprintf+0xa28>
80002254: 13 86 04 00  	mv	a2, s1
80002258: 93 86 0d 00  	mv	a3, s11
8000225c: 93 84 14 00  	addi	s1, s1, 1
80002260: 93 05 0b 00  	mv	a1, s6
80002264: 13 05 00 02  	li	a0, 32
80002268: e7 80 0b 00  	jalr	s7
8000226c: e3 94 84 fe  	bne	s1, s0, 0x80002254 <_vsnprintf+0x4a4>
80002270: 93 0c 0c 00  	mv	s9, s8
80002274: 6f f0 5f bd  	j	0x80001e48 <_vsnprintf+0x98>
80002278: 03 ad 0c 00  	lw	s10, 0(s9)
8000227c: 93 87 4c 00  	addi	a5, s9, 4
80002280: 23 2c f1 00  	sw	a5, 24(sp)
80002284: 03 46 0d 00  	lbu	a2, 0(s10)
80002288: 13 05 06 00  	mv	a0, a2
8000228c: 63 16 08 0e  	bnez	a6, 0x80002378 <_vsnprintf+0x5c8>
80002290: 93 07 e0 ff  	li	a5, -2
80002294: 63 04 06 02  	beqz	a2, 0x800022bc <_vsnprintf+0x50c>
80002298: 93 87 17 00  	addi	a5, a5, 1
8000229c: 33 07 fd 00  	add	a4, s10, a5
800022a0: 93 04 0d 00  	mv	s1, s10
800022a4: 6f 00 80 00  	j	0x800022ac <_vsnprintf+0x4fc>
800022a8: 63 88 e4 00  	beq	s1, a4, 0x800022b8 <_vsnprintf+0x508>
800022ac: 83 c7 14 00  	lbu	a5, 1(s1)
800022b0: 93 84 14 00  	addi	s1, s1, 1
800022b4: e3 9a 07 fe  	bnez	a5, 0x800022a8 <_vsnprintf+0x4f8>
800022b8: b3 84 a4 41  	sub	s1, s1, s10
800022bc: 13 fc 06 40  	andi	s8, a3, 1024
800022c0: 63 06 0c 00  	beqz	s8, 0x800022cc <_vsnprintf+0x51c>
800022c4: 63 74 98 00  	bgeu	a6, s1, 0x800022cc <_vsnprintf+0x51c>
800022c8: 93 04 08 00  	mv	s1, a6
800022cc: 93 f6 26 00  	andi	a3, a3, 2
800022d0: 63 8c 06 36  	beqz	a3, 0x80002648 <_vsnprintf+0x898>
800022d4: 63 02 06 20  	beqz	a2, 0x800024d8 <_vsnprintf+0x728>
800022d8: 63 06 0c 1a  	beqz	s8, 0x80002484 <_vsnprintf+0x6d4>
800022dc: b3 0c 88 00  	add	s9, a6, s0
800022e0: 13 06 04 00  	mv	a2, s0
800022e4: 13 8c 06 00  	mv	s8, a3
800022e8: 23 2e 91 00  	sw	s1, 28(sp)
800022ec: 23 20 11 03  	sw	a7, 32(sp)
800022f0: 63 8a cc 2a  	beq	s9, a2, 0x800025a4 <_vsnprintf+0x7f4>
800022f4: 93 86 0d 00  	mv	a3, s11
800022f8: 93 05 0b 00  	mv	a1, s6
800022fc: 93 04 16 00  	addi	s1, a2, 1
80002300: e7 80 0b 00  	jalr	s7
80002304: b3 87 84 40  	sub	a5, s1, s0
80002308: b3 07 fd 00  	add	a5, s10, a5
8000230c: 03 c5 07 00  	lbu	a0, 0(a5)
80002310: 63 06 05 2a  	beqz	a0, 0x800025bc <_vsnprintf+0x80c>
80002314: 13 86 04 00  	mv	a2, s1
80002318: 6f f0 9f fd  	j	0x800022f0 <_vsnprintf+0x540>
8000231c: 13 07 90 00  	li	a4, 9
80002320: 93 17 28 00  	slli	a5, a6, 2
80002324: b3 87 07 01  	add	a5, a5, a6
80002328: 13 06 16 00  	addi	a2, a2, 1
8000232c: 93 97 17 00  	slli	a5, a5, 1
80002330: b3 87 a7 00  	add	a5, a5, a0
80002334: 03 45 06 00  	lbu	a0, 0(a2)
80002338: 13 88 07 fd  	addi	a6, a5, -48
8000233c: 93 07 05 fd  	addi	a5, a0, -48
80002340: 93 f7 f7 0f  	andi	a5, a5, 255
80002344: e3 7e f7 fc  	bgeu	a4, a5, 0x80002320 <_vsnprintf+0x570>
80002348: 13 09 06 00  	mv	s2, a2
8000234c: 13 07 16 00  	addi	a4, a2, 1
80002350: 6f f0 df b5  	j	0x80001eac <_vsnprintf+0xfc>
80002354: 03 a8 0c 00  	lw	a6, 0(s9)
80002358: 03 45 29 00  	lbu	a0, 2(s2)
8000235c: 13 09 29 00  	addi	s2, s2, 2
80002360: 93 47 f8 ff  	not	a5, a6
80002364: 93 d7 f7 41  	srai	a5, a5, 31
80002368: 33 78 f8 00  	and	a6, a6, a5
8000236c: 93 8c 4c 00  	addi	s9, s9, 4
80002370: 13 07 19 00  	addi	a4, s2, 1
80002374: 6f f0 9f b3  	j	0x80001eac <_vsnprintf+0xfc>
80002378: e3 02 06 f4  	beqz	a2, 0x800022bc <_vsnprintf+0x50c>
8000237c: 93 07 f8 ff  	addi	a5, a6, -1
80002380: 6f f0 9f f1  	j	0x80002298 <_vsnprintf+0x4e8>
80002384: 93 f5 f6 fe  	andi	a1, a3, -17
80002388: 93 f7 06 40  	andi	a5, a3, 1024
8000238c: 93 e5 15 02  	ori	a1, a1, 33
80002390: 13 07 01 03  	addi	a4, sp, 48
80002394: e3 98 07 c4  	bnez	a5, 0x80001fe4 <_vsnprintf+0x234>
80002398: 6f f0 df c0  	j	0x80001fa4 <_vsnprintf+0x1f4>
8000239c: 93 07 20 06  	li	a5, 98
800023a0: 63 02 f5 44  	beq	a0, a5, 0x800027e4 <_vsnprintf+0xa34>
800023a4: 93 07 80 05  	li	a5, 88
800023a8: 63 08 f5 44  	beq	a0, a5, 0x800027f8 <_vsnprintf+0xa48>
800023ac: 13 f5 06 40  	andi	a0, a3, 1024
800023b0: 13 fe e6 fe  	andi	t3, a3, -18
800023b4: 63 06 05 3e  	beqz	a0, 0x800027a0 <_vsnprintf+0x9f0>
800023b8: 93 76 0e 20  	andi	a3, t3, 512
800023bc: 63 92 06 2e  	bnez	a3, 0x800026a0 <_vsnprintf+0x8f0>
800023c0: 93 77 0e 10  	andi	a5, t3, 256
800023c4: 93 84 4c 00  	addi	s1, s9, 4
800023c8: 63 96 07 52  	bnez	a5, 0x800028f4 <_vsnprintf+0xb44>
800023cc: 13 77 0e 04  	andi	a4, t3, 64
800023d0: 63 12 07 3c  	bnez	a4, 0x80002794 <_vsnprintf+0x9e4>
800023d4: 13 77 0e 08  	andi	a4, t3, 128
800023d8: 63 0a 07 72  	beqz	a4, 0x80002b0c <_vsnprintf+0xd5c>
800023dc: 03 97 0c 00  	lh	a4, 0(s9)
800023e0: 13 56 f7 40  	srai	a2, a4, 15
800023e4: b3 46 c7 00  	xor	a3, a4, a2
800023e8: b3 86 c6 40  	sub	a3, a3, a2
800023ec: 93 96 06 01  	slli	a3, a3, 16
800023f0: 93 d6 06 01  	srli	a3, a3, 16
800023f4: 93 55 f7 01  	srli	a1, a4, 31
800023f8: 63 08 07 4e  	beqz	a4, 0x800028e8 <_vsnprintf+0xb38>
800023fc: 13 85 06 00  	mv	a0, a3
80002400: 13 07 01 03  	addi	a4, sp, 48
80002404: 13 06 a0 00  	li	a2, 10
80002408: 93 0e 90 00  	li	t4, 9
8000240c: 13 0f 00 02  	li	t5, 32
80002410: 6f 00 80 00  	j	0x80002418 <_vsnprintf+0x668>
80002414: 63 82 e7 03  	beq	a5, t5, 0x80002438 <_vsnprintf+0x688>
80002418: b3 76 c5 02  	remu	a3, a0, a2
8000241c: 93 87 17 00  	addi	a5, a5, 1
80002420: b3 0f f7 00  	add	t6, a4, a5
80002424: 13 03 05 00  	mv	t1, a0
80002428: 93 86 06 03  	addi	a3, a3, 48
8000242c: a3 8f df fe  	sb	a3, -1(t6)
80002430: 33 55 c5 02  	divu	a0, a0, a2
80002434: e3 e0 6e fe  	bltu	t4, t1, 0x80002414 <_vsnprintf+0x664>
80002438: 23 22 11 01  	sw	a7, 4(sp)
8000243c: 23 20 01 01  	sw	a6, 0(sp)
80002440: 13 06 04 00  	mv	a2, s0
80002444: 23 24 c1 01  	sw	t3, 8(sp)
80002448: 93 08 a0 00  	li	a7, 10
8000244c: 13 88 05 00  	mv	a6, a1
80002450: 93 86 0d 00  	mv	a3, s11
80002454: 93 05 0b 00  	mv	a1, s6
80002458: 13 85 0b 00  	mv	a0, s7
8000245c: ef e0 df 91  	jal	0x80000d78 <_ntoa_format>
80002460: 13 04 05 00  	mv	s0, a0
80002464: 93 8c 04 00  	mv	s9, s1
80002468: 6f f0 1f 9e  	j	0x80001e48 <_vsnprintf+0x98>
8000246c: b7 17 00 00  	lui	a5, 1
80002470: 93 87 07 80  	addi	a5, a5, -2048
80002474: b3 e6 f6 00  	or	a3, a3, a5
80002478: 6f f0 5f cd  	j	0x8000214c <_vsnprintf+0x39c>
8000247c: 93 e6 06 02  	ori	a3, a3, 32
80002480: 6f f0 df d4  	j	0x800021cc <_vsnprintf+0x41c>
80002484: 23 2e 91 00  	sw	s1, 28(sp)
80002488: 13 0c 09 00  	mv	s8, s2
8000248c: 93 8c 06 00  	mv	s9, a3
80002490: 93 04 04 00  	mv	s1, s0
80002494: 13 89 08 00  	mv	s2, a7
80002498: 13 86 04 00  	mv	a2, s1
8000249c: 93 86 0d 00  	mv	a3, s11
800024a0: 93 05 0b 00  	mv	a1, s6
800024a4: e7 80 0b 00  	jalr	s7
800024a8: 93 84 14 00  	addi	s1, s1, 1
800024ac: 33 87 84 40  	sub	a4, s1, s0
800024b0: 33 07 ed 00  	add	a4, s10, a4
800024b4: 03 45 07 00  	lbu	a0, 0(a4)
800024b8: e3 10 05 fe  	bnez	a0, 0x80002498 <_vsnprintf+0x6e8>
800024bc: 93 08 09 00  	mv	a7, s2
800024c0: 13 09 0c 00  	mv	s2, s8
800024c4: 13 8c 04 00  	mv	s8, s1
800024c8: 83 24 c1 01  	lw	s1, 28(sp)
800024cc: 93 86 0c 00  	mv	a3, s9
800024d0: 13 04 0c 00  	mv	s0, s8
800024d4: 63 88 06 02  	beqz	a3, 0x80002504 <_vsnprintf+0x754>
800024d8: 13 0c 04 00  	mv	s8, s0
800024dc: 63 f4 14 03  	bgeu	s1, a7, 0x80002504 <_vsnprintf+0x754>
800024e0: b3 88 88 00  	add	a7, a7, s0
800024e4: 33 84 98 40  	sub	s0, a7, s1
800024e8: 13 06 0c 00  	mv	a2, s8
800024ec: 93 86 0d 00  	mv	a3, s11
800024f0: 13 0c 1c 00  	addi	s8, s8, 1
800024f4: 93 05 0b 00  	mv	a1, s6
800024f8: 13 05 00 02  	li	a0, 32
800024fc: e7 80 0b 00  	jalr	s7
80002500: e3 14 8c fe  	bne	s8, s0, 0x800024e8 <_vsnprintf+0x738>
80002504: 83 2c 81 01  	lw	s9, 24(sp)
80002508: 6f f0 1f 94  	j	0x80001e48 <_vsnprintf+0x98>
8000250c: 93 07 80 07  	li	a5, 120
80002510: 63 16 f5 34  	bne	a0, a5, 0x8000285c <_vsnprintf+0xaac>
80002514: 13 f6 06 40  	andi	a2, a3, 1024
80002518: 63 04 06 62  	beqz	a2, 0x80002b40 <_vsnprintf+0xd90>
8000251c: 93 fe 26 ff  	andi	t4, a3, -14
80002520: 13 0d 00 01  	li	s10, 16
80002524: 93 f5 0e 20  	andi	a1, t4, 512
80002528: 63 94 05 2e  	bnez	a1, 0x80002810 <_vsnprintf+0xa60>
8000252c: 93 f7 0e 10  	andi	a5, t4, 256
80002530: 93 84 4c 00  	addi	s1, s9, 4
80002534: 63 9e 07 4e  	bnez	a5, 0x80002a30 <_vsnprintf+0xc80>
80002538: 13 f7 0e 04  	andi	a4, t4, 64
8000253c: 63 02 07 4e  	beqz	a4, 0x80002a20 <_vsnprintf+0xc70>
80002540: 83 c5 0c 00  	lbu	a1, 0(s9)
80002544: 63 90 05 34  	bnez	a1, 0x80002884 <_vsnprintf+0xad4>
80002548: 93 fe fe fe  	andi	t4, t4, -17
8000254c: 63 0c 06 32  	beqz	a2, 0x80002884 <_vsnprintf+0xad4>
80002550: 93 07 00 00  	li	a5, 0
80002554: 13 07 01 03  	addi	a4, sp, 48
80002558: 23 22 11 01  	sw	a7, 4(sp)
8000255c: 23 20 01 01  	sw	a6, 0(sp)
80002560: 13 06 04 00  	mv	a2, s0
80002564: 23 24 d1 01  	sw	t4, 8(sp)
80002568: 93 08 0d 00  	mv	a7, s10
8000256c: 13 08 00 00  	li	a6, 0
80002570: 6f f0 1f ee  	j	0x80002450 <_vsnprintf+0x6a0>
80002574: b7 17 00 00  	lui	a5, 1
80002578: 93 87 07 80  	addi	a5, a5, -2048
8000257c: b3 e6 f6 00  	or	a3, a3, a5
80002580: 93 e6 06 02  	ori	a3, a3, 32
80002584: 6f f0 9f bc  	j	0x8000214c <_vsnprintf+0x39c>
80002588: 03 45 29 00  	lbu	a0, 2(s2)
8000258c: 93 e6 06 0c  	ori	a3, a3, 192
80002590: 13 07 39 00  	addi	a4, s2, 3
80002594: 6f f0 df 98  	j	0x80001f20 <_vsnprintf+0x170>
80002598: 93 04 00 00  	li	s1, 0
8000259c: e3 68 b4 a9  	bltu	s0, s11, 0x8000202c <_vsnprintf+0x27c>
800025a0: 6f f0 9f a8  	j	0x80002028 <_vsnprintf+0x278>
800025a4: 93 06 0c 00  	mv	a3, s8
800025a8: 83 24 c1 01  	lw	s1, 28(sp)
800025ac: 83 28 01 02  	lw	a7, 32(sp)
800025b0: 13 84 0c 00  	mv	s0, s9
800025b4: e3 88 06 f4  	beqz	a3, 0x80002504 <_vsnprintf+0x754>
800025b8: 6f f0 1f f2  	j	0x800024d8 <_vsnprintf+0x728>
800025bc: 93 06 0c 00  	mv	a3, s8
800025c0: 13 8c 04 00  	mv	s8, s1
800025c4: 83 28 01 02  	lw	a7, 32(sp)
800025c8: 83 24 c1 01  	lw	s1, 28(sp)
800025cc: 13 04 0c 00  	mv	s0, s8
800025d0: 6f f0 5f f0  	j	0x800024d4 <_vsnprintf+0x724>
800025d4: 93 07 10 00  	li	a5, 1
800025d8: 63 f6 17 1f  	bgeu	a5, a7, 0x800027c4 <_vsnprintf+0xa14>
800025dc: 93 87 0c 00  	mv	a5, s9
800025e0: 93 04 f4 ff  	addi	s1, s0, -1
800025e4: 93 0c 09 00  	mv	s9, s2
800025e8: b3 84 14 01  	add	s1, s1, a7
800025ec: 23 2c 11 01  	sw	a7, 24(sp)
800025f0: 13 09 04 00  	mv	s2, s0
800025f4: 13 8d 07 00  	mv	s10, a5
800025f8: 13 06 04 00  	mv	a2, s0
800025fc: 93 86 0d 00  	mv	a3, s11
80002600: 13 04 14 00  	addi	s0, s0, 1
80002604: 93 05 0b 00  	mv	a1, s6
80002608: 13 05 00 02  	li	a0, 32
8000260c: e7 80 0b 00  	jalr	s7
80002610: e3 14 94 fe  	bne	s0, s1, 0x800025f8 <_vsnprintf+0x848>
80002614: 93 07 0d 00  	mv	a5, s10
80002618: 83 28 81 01  	lw	a7, 24(sp)
8000261c: 03 c5 07 00  	lbu	a0, 0(a5)
80002620: 13 0d 04 00  	mv	s10, s0
80002624: 93 86 0d 00  	mv	a3, s11
80002628: 13 04 09 00  	mv	s0, s2
8000262c: 13 06 0d 00  	mv	a2, s10
80002630: 93 05 0b 00  	mv	a1, s6
80002634: 13 89 0c 00  	mv	s2, s9
80002638: 33 04 14 01  	add	s0, s0, a7
8000263c: 93 0c 0c 00  	mv	s9, s8
80002640: e7 80 0b 00  	jalr	s7
80002644: 6f f0 5f 80  	j	0x80001e48 <_vsnprintf+0x98>
80002648: 63 f6 14 4f  	bgeu	s1, a7, 0x80002b34 <_vsnprintf+0xd84>
8000264c: b3 87 88 00  	add	a5, a7, s0
80002650: b3 84 97 40  	sub	s1, a5, s1
80002654: 93 8c 06 00  	mv	s9, a3
80002658: 23 2e 11 01  	sw	a7, 28(sp)
8000265c: 23 20 01 03  	sw	a6, 32(sp)
80002660: 13 06 04 00  	mv	a2, s0
80002664: 93 86 0d 00  	mv	a3, s11
80002668: 13 04 14 00  	addi	s0, s0, 1
8000266c: 93 05 0b 00  	mv	a1, s6
80002670: 13 05 00 02  	li	a0, 32
80002674: e7 80 0b 00  	jalr	s7
80002678: e3 14 94 fe  	bne	s0, s1, 0x80002660 <_vsnprintf+0x8b0>
8000267c: 83 28 c1 01  	lw	a7, 28(sp)
80002680: 03 28 01 02  	lw	a6, 32(sp)
80002684: 03 46 0d 00  	lbu	a2, 0(s10)
80002688: 93 86 0c 00  	mv	a3, s9
8000268c: 93 84 18 00  	addi	s1, a7, 1
80002690: 13 05 06 00  	mv	a0, a2
80002694: e3 12 06 c4  	bnez	a2, 0x800022d8 <_vsnprintf+0x528>
80002698: 83 2c 81 01  	lw	s9, 24(sp)
8000269c: 6f f0 cf fa  	j	0x80001e48 <_vsnprintf+0x98>
800026a0: 93 8c 7c 00  	addi	s9, s9, 7
800026a4: 93 fc 8c ff  	andi	s9, s9, -8
800026a8: 83 a5 4c 00  	lw	a1, 4(s9)
800026ac: 03 a6 0c 00  	lw	a2, 0(s9)
800026b0: 93 8c 8c 00  	addi	s9, s9, 8
800026b4: 93 df f5 01  	srli	t6, a1, 31
800026b8: b3 67 b6 00  	or	a5, a2, a1
800026bc: 63 86 07 0e  	beqz	a5, 0x800027a8 <_vsnprintf+0x9f8>
800026c0: 93 d7 f5 41  	srai	a5, a1, 31
800026c4: 33 c6 c7 00  	xor	a2, a5, a2
800026c8: 33 07 f6 40  	sub	a4, a2, a5
800026cc: b3 c5 b7 00  	xor	a1, a5, a1
800026d0: b3 36 e6 00  	sltu	a3, a2, a4
800026d4: b3 87 f5 40  	sub	a5, a1, a5
800026d8: 13 06 07 00  	mv	a2, a4
800026dc: b3 85 d7 40  	sub	a1, a5, a3
800026e0: b7 de cc cc  	lui	t4, 838861
800026e4: 13 85 de cc  	addi	a0, t4, -819
800026e8: 93 07 00 00  	li	a5, 0
800026ec: 13 07 01 03  	addi	a4, sp, 48
800026f0: 13 0f 50 00  	li	t5, 5
800026f4: 93 8e ce cc  	addi	t4, t4, -820
800026f8: 93 03 00 02  	li	t2, 32
800026fc: 93 84 05 00  	mv	s1, a1
80002700: b3 06 96 00  	add	a3, a2, s1
80002704: b3 b5 c6 00  	sltu	a1, a3, a2
80002708: b3 86 b6 00  	add	a3, a3, a1
8000270c: b3 f6 e6 03  	remu	a3, a3, t5
80002710: 13 83 04 00  	mv	t1, s1
80002714: 93 87 17 00  	addi	a5, a5, 1
80002718: 93 00 06 00  	mv	ra, a2
8000271c: b3 02 f7 00  	add	t0, a4, a5
80002720: b3 06 d6 40  	sub	a3, a2, a3
80002724: b3 35 d6 00  	sltu	a1, a2, a3
80002728: b3 85 b4 40  	sub	a1, s1, a1
8000272c: 33 8c d6 03  	mul	s8, a3, t4
80002730: b3 85 a5 02  	mul	a1, a1, a0
80002734: b3 b4 a6 02  	mulhu	s1, a3, a0
80002738: b3 85 85 01  	add	a1, a1, s8
8000273c: b3 86 a6 02  	mul	a3, a3, a0
80002740: b3 85 95 00  	add	a1, a1, s1
80002744: 13 9c f5 01  	slli	s8, a1, 31
80002748: 93 d4 15 00  	srli	s1, a1, 1
8000274c: 93 d6 16 00  	srli	a3, a3, 1
80002750: b3 66 dc 00  	or	a3, s8, a3
80002754: 93 95 26 00  	slli	a1, a3, 2
80002758: b3 85 d5 00  	add	a1, a1, a3
8000275c: 93 95 15 00  	slli	a1, a1, 1
80002760: 33 06 b6 40  	sub	a2, a2, a1
80002764: 13 06 06 03  	addi	a2, a2, 48
80002768: a3 8f c2 fe  	sb	a2, -1(t0)
8000276c: 13 86 06 00  	mv	a2, a3
80002770: 63 04 03 04  	beqz	t1, 0x800027b8 <_vsnprintf+0xa08>
80002774: e3 96 77 f8  	bne	a5, t2, 0x80002700 <_vsnprintf+0x950>
80002778: 23 22 11 01  	sw	a7, 4(sp)
8000277c: 23 20 01 01  	sw	a6, 0(sp)
80002780: 13 06 04 00  	mv	a2, s0
80002784: 23 24 c1 01  	sw	t3, 8(sp)
80002788: 93 08 a0 00  	li	a7, 10
8000278c: 13 88 0f 00  	mv	a6, t6
80002790: 6f f0 5f 87  	j	0x80002004 <_vsnprintf+0x254>
80002794: 03 c7 0c 00  	lbu	a4, 0(s9)
80002798: 93 06 07 00  	mv	a3, a4
8000279c: 6f f0 9f c5  	j	0x800023f4 <_vsnprintf+0x644>
800027a0: 13 fe f6 fe  	andi	t3, a3, -17
800027a4: 6f f0 5f c1  	j	0x800023b8 <_vsnprintf+0x608>
800027a8: 63 10 05 38  	bnez	a0, 0x80002b28 <_vsnprintf+0xd78>
800027ac: 13 06 00 00  	li	a2, 0
800027b0: 93 05 00 00  	li	a1, 0
800027b4: 6f f0 df f2  	j	0x800026e0 <_vsnprintf+0x930>
800027b8: 93 06 90 00  	li	a3, 9
800027bc: e3 ec 16 fa  	bltu	a3, ra, 0x80002774 <_vsnprintf+0x9c4>
800027c0: 6f f0 9f fb  	j	0x80002778 <_vsnprintf+0x9c8>
800027c4: 03 c5 0c 00  	lbu	a0, 0(s9)
800027c8: 93 86 0d 00  	mv	a3, s11
800027cc: 13 06 04 00  	mv	a2, s0
800027d0: 93 05 0b 00  	mv	a1, s6
800027d4: e7 80 0b 00  	jalr	s7
800027d8: 13 84 04 00  	mv	s0, s1
800027dc: 93 0c 0c 00  	mv	s9, s8
800027e0: 6f f0 8f e6  	j	0x80001e48 <_vsnprintf+0x98>
800027e4: 13 f6 06 40  	andi	a2, a3, 1024
800027e8: 63 00 06 2e  	beqz	a2, 0x80002ac8 <_vsnprintf+0xd18>
800027ec: 93 fe 26 ff  	andi	t4, a3, -14
800027f0: 13 0d 20 00  	li	s10, 2
800027f4: 6f f0 1f d3  	j	0x80002524 <_vsnprintf+0x774>
800027f8: 13 f6 06 40  	andi	a2, a3, 1024
800027fc: 63 00 06 34  	beqz	a2, 0x80002b3c <_vsnprintf+0xd8c>
80002800: 93 fe 26 ff  	andi	t4, a3, -14
80002804: 93 ee 0e 02  	ori	t4, t4, 32
80002808: 13 0d 00 01  	li	s10, 16
8000280c: 6f f0 9f d1  	j	0x80002524 <_vsnprintf+0x774>
80002810: 93 8c 7c 00  	addi	s9, s9, 7
80002814: 93 fc 8c ff  	andi	s9, s9, -8
80002818: 83 a6 0c 00  	lw	a3, 0(s9)
8000281c: 83 a4 4c 00  	lw	s1, 4(s9)
80002820: 93 8c 8c 00  	addi	s9, s9, 8
80002824: b3 e7 96 00  	or	a5, a3, s1
80002828: 63 9e 07 12  	bnez	a5, 0x80002964 <_vsnprintf+0xbb4>
8000282c: 93 fe fe fe  	andi	t4, t4, -17
80002830: 63 0a 06 12  	beqz	a2, 0x80002964 <_vsnprintf+0xbb4>
80002834: 13 0c 00 00  	li	s8, 0
80002838: 13 07 01 03  	addi	a4, sp, 48
8000283c: 23 22 11 01  	sw	a7, 4(sp)
80002840: 23 20 01 01  	sw	a6, 0(sp)
80002844: 13 06 04 00  	mv	a2, s0
80002848: 23 24 d1 01  	sw	t4, 8(sp)
8000284c: 93 08 0d 00  	mv	a7, s10
80002850: 13 08 00 00  	li	a6, 0
80002854: 93 07 0c 00  	mv	a5, s8
80002858: 6f f0 cf fa  	j	0x80002004 <_vsnprintf+0x254>
8000285c: 93 07 f0 06  	li	a5, 111
80002860: 63 18 f5 2e  	bne	a0, a5, 0x80002b50 <_vsnprintf+0xda0>
80002864: 13 f6 06 40  	andi	a2, a3, 1024
80002868: 93 fe 36 ff  	andi	t4, a3, -13
8000286c: 13 0d 80 00  	li	s10, 8
80002870: e3 0a 06 ca  	beqz	a2, 0x80002524 <_vsnprintf+0x774>
80002874: 13 8e 06 00  	mv	t3, a3
80002878: 13 0d 80 00  	li	s10, 8
8000287c: 93 7e 2e ff  	andi	t4, t3, -14
80002880: 6f f0 5f ca  	j	0x80002524 <_vsnprintf+0x774>
80002884: 13 f6 0e 02  	andi	a2, t4, 32
80002888: 13 07 10 06  	li	a4, 97
8000288c: 63 04 06 00  	beqz	a2, 0x80002894 <_vsnprintf+0xae4>
80002890: 13 07 10 04  	li	a4, 65
80002894: 13 7f f7 0f  	andi	t5, a4, 255
80002898: 13 03 90 00  	li	t1, 9
8000289c: 13 07 01 03  	addi	a4, sp, 48
800028a0: 13 0f 6f ff  	addi	t5, t5, -10
800028a4: 13 0e 00 02  	li	t3, 32
800028a8: 6f 00 80 02  	j	0x800028d0 <_vsnprintf+0xb20>
800028ac: 93 86 06 03  	addi	a3, a3, 48
800028b0: 93 f6 f6 0f  	andi	a3, a3, 255
800028b4: 93 87 17 00  	addi	a5, a5, 1
800028b8: 33 06 f7 00  	add	a2, a4, a5
800028bc: a3 0f d6 fe  	sb	a3, -1(a2)
800028c0: b3 d6 a5 03  	divu	a3, a1, s10
800028c4: e3 ea a5 c9  	bltu	a1, s10, 0x80002558 <_vsnprintf+0x7a8>
800028c8: e3 88 c7 c9  	beq	a5, t3, 0x80002558 <_vsnprintf+0x7a8>
800028cc: 93 85 06 00  	mv	a1, a3
800028d0: 33 f6 a5 03  	remu	a2, a1, s10
800028d4: 93 76 f6 0f  	andi	a3, a2, 255
800028d8: e3 7a c3 fc  	bgeu	t1, a2, 0x800028ac <_vsnprintf+0xafc>
800028dc: b3 86 e6 01  	add	a3, a3, t5
800028e0: 93 f6 f6 0f  	andi	a3, a3, 255
800028e4: 6f f0 1f fd  	j	0x800028b4 <_vsnprintf+0xb04>
800028e8: 13 07 01 03  	addi	a4, sp, 48
800028ec: e3 16 05 b4  	bnez	a0, 0x80002438 <_vsnprintf+0x688>
800028f0: 6f f0 1f b1  	j	0x80002400 <_vsnprintf+0x650>
800028f4: 83 a7 0c 00  	lw	a5, 0(s9)
800028f8: 93 d5 f7 01  	srli	a1, a5, 31
800028fc: 63 8c 07 1c  	beqz	a5, 0x80002ad4 <_vsnprintf+0xd24>
80002900: 13 d7 f7 41  	srai	a4, a5, 31
80002904: 33 45 f7 00  	xor	a0, a4, a5
80002908: 33 05 e5 40  	sub	a0, a0, a4
8000290c: 13 07 01 03  	addi	a4, sp, 48
80002910: 13 06 a0 00  	li	a2, 10
80002914: 93 0e 90 00  	li	t4, 9
80002918: 13 0f 00 02  	li	t5, 32
8000291c: 6f 00 80 00  	j	0x80002924 <_vsnprintf+0xb74>
80002920: 63 82 e6 03  	beq	a3, t5, 0x80002944 <_vsnprintf+0xb94>
80002924: b3 77 c5 02  	remu	a5, a0, a2
80002928: 93 86 16 00  	addi	a3, a3, 1
8000292c: b3 0f d7 00  	add	t6, a4, a3
80002930: 13 03 05 00  	mv	t1, a0
80002934: 93 87 07 03  	addi	a5, a5, 48
80002938: a3 8f ff fe  	sb	a5, -1(t6)
8000293c: 33 55 c5 02  	divu	a0, a0, a2
80002940: e3 e0 6e fe  	bltu	t4, t1, 0x80002920 <_vsnprintf+0xb70>
80002944: 23 22 11 01  	sw	a7, 4(sp)
80002948: 23 20 01 01  	sw	a6, 0(sp)
8000294c: 13 06 04 00  	mv	a2, s0
80002950: 23 24 c1 01  	sw	t3, 8(sp)
80002954: 93 08 a0 00  	li	a7, 10
80002958: 13 88 05 00  	mv	a6, a1
8000295c: 93 87 06 00  	mv	a5, a3
80002960: 6f f0 1f af  	j	0x80002450 <_vsnprintf+0x6a0>
80002964: 13 f7 0e 02  	andi	a4, t4, 32
80002968: 93 07 10 06  	li	a5, 97
8000296c: 63 04 07 00  	beqz	a4, 0x80002974 <_vsnprintf+0xbc4>
80002970: 93 07 10 04  	li	a5, 65
80002974: 13 f6 f7 0f  	andi	a2, a5, 255
80002978: 13 0c 00 00  	li	s8, 0
8000297c: 13 07 01 03  	addi	a4, sp, 48
80002980: 93 07 66 ff  	addi	a5, a2, -10
80002984: 23 20 81 02  	sw	s0, 32(sp)
80002988: 23 24 71 03  	sw	s7, 40(sp)
8000298c: 23 26 61 03  	sw	s6, 44(sp)
80002990: 23 2c 11 01  	sw	a7, 24(sp)
80002994: 13 0b 0c 00  	mv	s6, s8
80002998: 23 2e 01 01  	sw	a6, 28(sp)
8000299c: 13 0c 09 00  	mv	s8, s2
800029a0: 23 22 d1 03  	sw	t4, 36(sp)
800029a4: 13 84 06 00  	mv	s0, a3
800029a8: 93 0b 07 00  	mv	s7, a4
800029ac: 13 89 07 00  	mv	s2, a5
800029b0: 6f 00 40 04  	j	0x800029f4 <_vsnprintf+0xc44>
800029b4: 93 07 05 03  	addi	a5, a0, 48
800029b8: 93 f7 f7 0f  	andi	a5, a5, 255
800029bc: 13 0b 1b 00  	addi	s6, s6, 1
800029c0: 33 88 6b 01  	add	a6, s7, s6
800029c4: a3 0f f8 fe  	sb	a5, -1(a6)
800029c8: 13 06 0d 00  	mv	a2, s10
800029cc: 93 06 00 00  	li	a3, 0
800029d0: 13 05 04 00  	mv	a0, s0
800029d4: 93 85 04 00  	mv	a1, s1
800029d8: ef 00 00 63  	jal	0x80003008 <__udivdi3>
800029dc: 93 07 00 00  	li	a5, 0
800029e0: 63 80 97 10  	beq	a5, s1, 0x80002ae0 <_vsnprintf+0xd30>
800029e4: 93 07 00 02  	li	a5, 32
800029e8: 63 0e fb 0e  	beq	s6, a5, 0x80002ae4 <_vsnprintf+0xd34>
800029ec: 13 04 05 00  	mv	s0, a0
800029f0: 93 84 05 00  	mv	s1, a1
800029f4: 13 06 0d 00  	mv	a2, s10
800029f8: 93 06 00 00  	li	a3, 0
800029fc: 13 05 04 00  	mv	a0, s0
80002a00: 93 85 04 00  	mv	a1, s1
80002a04: ef 00 50 23  	jal	0x80003438 <__umoddi3>
80002a08: 13 75 f5 0f  	andi	a0, a0, 255
80002a0c: 93 07 90 00  	li	a5, 9
80002a10: e3 f2 a7 fa  	bgeu	a5, a0, 0x800029b4 <_vsnprintf+0xc04>
80002a14: b3 07 25 01  	add	a5, a0, s2
80002a18: 93 f7 f7 0f  	andi	a5, a5, 255
80002a1c: 6f f0 1f fa  	j	0x800029bc <_vsnprintf+0xc0c>
80002a20: 13 f7 0e 08  	andi	a4, t4, 128
80002a24: 63 0e 07 0e  	beqz	a4, 0x80002b20 <_vsnprintf+0xd70>
80002a28: 83 d5 0c 00  	lhu	a1, 0(s9)
80002a2c: 6f f0 9f b1  	j	0x80002544 <_vsnprintf+0x794>
80002a30: 83 a7 0c 00  	lw	a5, 0(s9)
80002a34: 63 98 07 00  	bnez	a5, 0x80002a44 <_vsnprintf+0xc94>
80002a38: 93 fe fe fe  	andi	t4, t4, -17
80002a3c: 13 07 01 03  	addi	a4, sp, 48
80002a40: 63 14 06 06  	bnez	a2, 0x80002aa8 <_vsnprintf+0xcf8>
80002a44: 13 f6 0e 02  	andi	a2, t4, 32
80002a48: 13 07 10 06  	li	a4, 97
80002a4c: 63 04 06 00  	beqz	a2, 0x80002a54 <_vsnprintf+0xca4>
80002a50: 13 07 10 04  	li	a4, 65
80002a54: 13 7f f7 0f  	andi	t5, a4, 255
80002a58: 13 0e 90 00  	li	t3, 9
80002a5c: 13 07 01 03  	addi	a4, sp, 48
80002a60: 13 0f 6f ff  	addi	t5, t5, -10
80002a64: 13 03 00 02  	li	t1, 32
80002a68: 6f 00 80 02  	j	0x80002a90 <_vsnprintf+0xce0>
80002a6c: 93 86 06 03  	addi	a3, a3, 48
80002a70: 93 f6 f6 0f  	andi	a3, a3, 255
80002a74: 93 85 15 00  	addi	a1, a1, 1
80002a78: 33 06 b7 00  	add	a2, a4, a1
80002a7c: a3 0f d6 fe  	sb	a3, -1(a2)
80002a80: b3 d6 a7 03  	divu	a3, a5, s10
80002a84: 63 e2 a7 03  	bltu	a5, s10, 0x80002aa8 <_vsnprintf+0xcf8>
80002a88: 63 80 65 02  	beq	a1, t1, 0x80002aa8 <_vsnprintf+0xcf8>
80002a8c: 93 87 06 00  	mv	a5, a3
80002a90: 33 f6 a7 03  	remu	a2, a5, s10
80002a94: 93 76 f6 0f  	andi	a3, a2, 255
80002a98: e3 7a ce fc  	bgeu	t3, a2, 0x80002a6c <_vsnprintf+0xcbc>
80002a9c: b3 86 e6 01  	add	a3, a3, t5
80002aa0: 93 f6 f6 0f  	andi	a3, a3, 255
80002aa4: 6f f0 1f fd  	j	0x80002a74 <_vsnprintf+0xcc4>
80002aa8: 23 22 11 01  	sw	a7, 4(sp)
80002aac: 23 20 01 01  	sw	a6, 0(sp)
80002ab0: 13 06 04 00  	mv	a2, s0
80002ab4: 23 24 d1 01  	sw	t4, 8(sp)
80002ab8: 93 08 0d 00  	mv	a7, s10
80002abc: 13 08 00 00  	li	a6, 0
80002ac0: 93 87 05 00  	mv	a5, a1
80002ac4: 6f f0 df 98  	j	0x80002450 <_vsnprintf+0x6a0>
80002ac8: 93 fe 36 ff  	andi	t4, a3, -13
80002acc: 13 0d 20 00  	li	s10, 2
80002ad0: 6f f0 5f a5  	j	0x80002524 <_vsnprintf+0x774>
80002ad4: 13 07 01 03  	addi	a4, sp, 48
80002ad8: e3 16 05 e6  	bnez	a0, 0x80002944 <_vsnprintf+0xb94>
80002adc: 6f f0 1f e3  	j	0x8000290c <_vsnprintf+0xb5c>
80002ae0: e3 72 a4 f1  	bgeu	s0, s10, 0x800029e4 <_vsnprintf+0xc34>
80002ae4: 13 09 0c 00  	mv	s2, s8
80002ae8: 13 87 0b 00  	mv	a4, s7
80002aec: 13 0c 0b 00  	mv	s8, s6
80002af0: 83 28 81 01  	lw	a7, 24(sp)
80002af4: 03 28 c1 01  	lw	a6, 28(sp)
80002af8: 03 24 01 02  	lw	s0, 32(sp)
80002afc: 83 2e 41 02  	lw	t4, 36(sp)
80002b00: 03 2b c1 02  	lw	s6, 44(sp)
80002b04: 83 2b 81 02  	lw	s7, 40(sp)
80002b08: 6f f0 5f d3  	j	0x8000283c <_vsnprintf+0xa8c>
80002b0c: 03 a7 0c 00  	lw	a4, 0(s9)
80002b10: 13 56 f7 41  	srai	a2, a4, 31
80002b14: b3 46 e6 00  	xor	a3, a2, a4
80002b18: b3 86 c6 40  	sub	a3, a3, a2
80002b1c: 6f f0 9f 8d  	j	0x800023f4 <_vsnprintf+0x644>
80002b20: 83 a5 0c 00  	lw	a1, 0(s9)
80002b24: 6f f0 1f a2  	j	0x80002544 <_vsnprintf+0x794>
80002b28: 93 07 00 00  	li	a5, 0
80002b2c: 13 07 01 03  	addi	a4, sp, 48
80002b30: 6f f0 9f c4  	j	0x80002778 <_vsnprintf+0x9c8>
80002b34: 93 84 14 00  	addi	s1, s1, 1
80002b38: 6f f0 9f b5  	j	0x80002690 <_vsnprintf+0x8e0>
80002b3c: 93 e6 06 02  	ori	a3, a3, 32
80002b40: 93 fe 36 ff  	andi	t4, a3, -13
80002b44: 13 06 00 00  	li	a2, 0
80002b48: 13 0d 00 01  	li	s10, 16
80002b4c: 6f f0 9f 9d  	j	0x80002524 <_vsnprintf+0x774>
80002b50: 93 07 90 06  	li	a5, 105
80002b54: 13 fe f6 fe  	andi	t3, a3, -17
80002b58: 63 1a f5 00  	bne	a0, a5, 0x80002b6c <_vsnprintf+0xdbc>
80002b5c: 13 f5 06 40  	andi	a0, a3, 1024
80002b60: e3 0c 05 84  	beqz	a0, 0x800023b8 <_vsnprintf+0x608>
80002b64: 13 fe e6 fe  	andi	t3, a3, -18
80002b68: 6f f0 1f 85  	j	0x800023b8 <_vsnprintf+0x608>
80002b6c: 13 f6 06 40  	andi	a2, a3, 1024
80002b70: 93 fe 36 fe  	andi	t4, a3, -29
80002b74: 13 0d a0 00  	li	s10, 10
80002b78: e3 06 06 9a  	beqz	a2, 0x80002524 <_vsnprintf+0x774>
80002b7c: 93 7e 2e ff  	andi	t4, t3, -14
80002b80: 6f f0 5f 9a  	j	0x80002524 <_vsnprintf+0x774>

80002b84 <tiny_vprintf>:
80002b84: 13 01 01 fe  	addi	sp, sp, -32
80002b88: 93 06 05 00  	mv	a3, a0
80002b8c: 13 87 05 00  	mv	a4, a1
80002b90: 13 06 f0 ff  	li	a2, -1
80002b94: 93 05 c1 00  	addi	a1, sp, 12
80002b98: 17 e5 ff ff  	auipc	a0, 1048574
80002b9c: 13 05 45 51  	addi	a0, a0, 1300
80002ba0: 23 2e 11 00  	sw	ra, 28(sp)
80002ba4: ef f0 cf a0  	jal	0x80001db0 <_vsnprintf>
80002ba8: 83 20 c1 01  	lw	ra, 28(sp)
80002bac: 13 01 01 02  	addi	sp, sp, 32
80002bb0: 67 80 00 00  	ret

80002bb4 <atexit>:
80002bb4: 93 05 05 00  	mv	a1, a0
80002bb8: 93 06 00 00  	li	a3, 0
80002bbc: 13 06 00 00  	li	a2, 0
80002bc0: 13 05 00 00  	li	a0, 0
80002bc4: 6f 00 40 28  	j	0x80002e48 <__register_exitproc>

80002bc8 <memcpy>:
80002bc8: b3 47 b5 00  	xor	a5, a0, a1
80002bcc: 93 f7 37 00  	andi	a5, a5, 3
80002bd0: b3 08 c5 00  	add	a7, a0, a2
80002bd4: 63 94 07 06  	bnez	a5, 0x80002c3c <memcpy+0x74>
80002bd8: 93 07 30 00  	li	a5, 3
80002bdc: 63 f0 c7 06  	bgeu	a5, a2, 0x80002c3c <memcpy+0x74>
80002be0: 93 77 35 00  	andi	a5, a0, 3
80002be4: 13 07 05 00  	mv	a4, a0
80002be8: 63 9a 07 06  	bnez	a5, 0x80002c5c <memcpy+0x94>
80002bec: 13 f6 c8 ff  	andi	a2, a7, -4
80002bf0: b3 06 e6 40  	sub	a3, a2, a4
80002bf4: 93 07 00 02  	li	a5, 32
80002bf8: 63 ce d7 08  	blt	a5, a3, 0x80002c94 <memcpy+0xcc>
80002bfc: 93 86 05 00  	mv	a3, a1
80002c00: 93 07 07 00  	mv	a5, a4
80002c04: 63 78 c7 02  	bgeu	a4, a2, 0x80002c34 <memcpy+0x6c>
80002c08: 03 a8 06 00  	lw	a6, 0(a3)
80002c0c: 93 87 47 00  	addi	a5, a5, 4
80002c10: 93 86 46 00  	addi	a3, a3, 4
80002c14: 23 ae 07 ff  	sw	a6, -4(a5)
80002c18: e3 e8 c7 fe  	bltu	a5, a2, 0x80002c08 <memcpy+0x40>
80002c1c: 93 07 f6 ff  	addi	a5, a2, -1
80002c20: b3 87 e7 40  	sub	a5, a5, a4
80002c24: 93 f7 c7 ff  	andi	a5, a5, -4
80002c28: 93 87 47 00  	addi	a5, a5, 4
80002c2c: 33 07 f7 00  	add	a4, a4, a5
80002c30: b3 85 f5 00  	add	a1, a1, a5
80002c34: 63 68 17 01  	bltu	a4, a7, 0x80002c44 <memcpy+0x7c>
80002c38: 67 80 00 00  	ret
80002c3c: 13 07 05 00  	mv	a4, a0
80002c40: 63 78 15 05  	bgeu	a0, a7, 0x80002c90 <memcpy+0xc8>
80002c44: 83 c7 05 00  	lbu	a5, 0(a1)
80002c48: 13 07 17 00  	addi	a4, a4, 1
80002c4c: 93 85 15 00  	addi	a1, a1, 1
80002c50: a3 0f f7 fe  	sb	a5, -1(a4)
80002c54: e3 98 e8 fe  	bne	a7, a4, 0x80002c44 <memcpy+0x7c>
80002c58: 67 80 00 00  	ret
80002c5c: 83 c6 05 00  	lbu	a3, 0(a1)
80002c60: 13 07 17 00  	addi	a4, a4, 1
80002c64: 93 77 37 00  	andi	a5, a4, 3
80002c68: a3 0f d7 fe  	sb	a3, -1(a4)
80002c6c: 93 85 15 00  	addi	a1, a1, 1
80002c70: e3 8e 07 f6  	beqz	a5, 0x80002bec <memcpy+0x24>
80002c74: 83 c6 05 00  	lbu	a3, 0(a1)
80002c78: 13 07 17 00  	addi	a4, a4, 1
80002c7c: 93 77 37 00  	andi	a5, a4, 3
80002c80: a3 0f d7 fe  	sb	a3, -1(a4)
80002c84: 93 85 15 00  	addi	a1, a1, 1
80002c88: e3 9a 07 fc  	bnez	a5, 0x80002c5c <memcpy+0x94>
80002c8c: 6f f0 1f f6  	j	0x80002bec <memcpy+0x24>
80002c90: 67 80 00 00  	ret
80002c94: 13 01 01 ff  	addi	sp, sp, -16
80002c98: 23 26 81 00  	sw	s0, 12(sp)
80002c9c: 13 04 00 02  	li	s0, 32
80002ca0: 83 a3 05 00  	lw	t2, 0(a1)
80002ca4: 83 a2 45 00  	lw	t0, 4(a1)
80002ca8: 83 af 85 00  	lw	t6, 8(a1)
80002cac: 03 af c5 00  	lw	t5, 12(a1)
80002cb0: 83 ae 05 01  	lw	t4, 16(a1)
80002cb4: 03 ae 45 01  	lw	t3, 20(a1)
80002cb8: 03 a3 85 01  	lw	t1, 24(a1)
80002cbc: 03 a8 c5 01  	lw	a6, 28(a1)
80002cc0: 83 a6 05 02  	lw	a3, 32(a1)
80002cc4: 13 07 47 02  	addi	a4, a4, 36
80002cc8: b3 07 e6 40  	sub	a5, a2, a4
80002ccc: 23 2e 77 fc  	sw	t2, -36(a4)
80002cd0: 23 20 57 fe  	sw	t0, -32(a4)
80002cd4: 23 22 f7 ff  	sw	t6, -28(a4)
80002cd8: 23 24 e7 ff  	sw	t5, -24(a4)
80002cdc: 23 26 d7 ff  	sw	t4, -20(a4)
80002ce0: 23 28 c7 ff  	sw	t3, -16(a4)
80002ce4: 23 2a 67 fe  	sw	t1, -12(a4)
80002ce8: 23 2c 07 ff  	sw	a6, -8(a4)
80002cec: 23 2e d7 fe  	sw	a3, -4(a4)
80002cf0: 93 85 45 02  	addi	a1, a1, 36
80002cf4: e3 46 f4 fa  	blt	s0, a5, 0x80002ca0 <memcpy+0xd8>
80002cf8: 93 86 05 00  	mv	a3, a1
80002cfc: 93 07 07 00  	mv	a5, a4
80002d00: 63 78 c7 02  	bgeu	a4, a2, 0x80002d30 <memcpy+0x168>
80002d04: 03 a8 06 00  	lw	a6, 0(a3)
80002d08: 93 87 47 00  	addi	a5, a5, 4
80002d0c: 93 86 46 00  	addi	a3, a3, 4
80002d10: 23 ae 07 ff  	sw	a6, -4(a5)
80002d14: e3 e8 c7 fe  	bltu	a5, a2, 0x80002d04 <memcpy+0x13c>
80002d18: 93 07 f6 ff  	addi	a5, a2, -1
80002d1c: b3 87 e7 40  	sub	a5, a5, a4
80002d20: 93 f7 c7 ff  	andi	a5, a5, -4
80002d24: 93 87 47 00  	addi	a5, a5, 4
80002d28: 33 07 f7 00  	add	a4, a4, a5
80002d2c: b3 85 f5 00  	add	a1, a1, a5
80002d30: 63 68 17 01  	bltu	a4, a7, 0x80002d40 <memcpy+0x178>
80002d34: 03 24 c1 00  	lw	s0, 12(sp)
80002d38: 13 01 01 01  	addi	sp, sp, 16
80002d3c: 67 80 00 00  	ret
80002d40: 83 c7 05 00  	lbu	a5, 0(a1)
80002d44: 13 07 17 00  	addi	a4, a4, 1
80002d48: 93 85 15 00  	addi	a1, a1, 1
80002d4c: a3 0f f7 fe  	sb	a5, -1(a4)
80002d50: e3 82 e8 fe  	beq	a7, a4, 0x80002d34 <memcpy+0x16c>
80002d54: 83 c7 05 00  	lbu	a5, 0(a1)
80002d58: 13 07 17 00  	addi	a4, a4, 1
80002d5c: 93 85 15 00  	addi	a1, a1, 1
80002d60: a3 0f f7 fe  	sb	a5, -1(a4)
80002d64: e3 9e e8 fc  	bne	a7, a4, 0x80002d40 <memcpy+0x178>
80002d68: 6f f0 df fc  	j	0x80002d34 <memcpy+0x16c>

80002d6c <memset>:
80002d6c: 13 03 f0 00  	li	t1, 15
80002d70: 13 07 05 00  	mv	a4, a0
80002d74: 63 7e c3 02  	bgeu	t1, a2, 0x80002db0 <memset+0x44>
80002d78: 93 77 f7 00  	andi	a5, a4, 15
80002d7c: 63 90 07 0a  	bnez	a5, 0x80002e1c <memset+0xb0>
80002d80: 63 92 05 08  	bnez	a1, 0x80002e04 <memset+0x98>
80002d84: 93 76 06 ff  	andi	a3, a2, -16
80002d88: 13 76 f6 00  	andi	a2, a2, 15
80002d8c: b3 86 e6 00  	add	a3, a3, a4
80002d90: 23 20 b7 00  	sw	a1, 0(a4)
80002d94: 23 22 b7 00  	sw	a1, 4(a4)
80002d98: 23 24 b7 00  	sw	a1, 8(a4)
80002d9c: 23 26 b7 00  	sw	a1, 12(a4)
80002da0: 13 07 07 01  	addi	a4, a4, 16
80002da4: e3 66 d7 fe  	bltu	a4, a3, 0x80002d90 <memset+0x24>
80002da8: 63 14 06 00  	bnez	a2, 0x80002db0 <memset+0x44>
80002dac: 67 80 00 00  	ret
80002db0: b3 06 c3 40  	sub	a3, t1, a2
80002db4: 93 96 26 00  	slli	a3, a3, 2
80002db8: 97 02 00 00  	auipc	t0, 0
80002dbc: b3 86 56 00  	add	a3, a3, t0
80002dc0: 67 80 c6 00  	jr	12(a3)
80002dc4: 23 07 b7 00  	sb	a1, 14(a4)
80002dc8: a3 06 b7 00  	sb	a1, 13(a4)
80002dcc: 23 06 b7 00  	sb	a1, 12(a4)
80002dd0: a3 05 b7 00  	sb	a1, 11(a4)
80002dd4: 23 05 b7 00  	sb	a1, 10(a4)
80002dd8: a3 04 b7 00  	sb	a1, 9(a4)
80002ddc: 23 04 b7 00  	sb	a1, 8(a4)
80002de0: a3 03 b7 00  	sb	a1, 7(a4)
80002de4: 23 03 b7 00  	sb	a1, 6(a4)
80002de8: a3 02 b7 00  	sb	a1, 5(a4)
80002dec: 23 02 b7 00  	sb	a1, 4(a4)
80002df0: a3 01 b7 00  	sb	a1, 3(a4)
80002df4: 23 01 b7 00  	sb	a1, 2(a4)
80002df8: a3 00 b7 00  	sb	a1, 1(a4)
80002dfc: 23 00 b7 00  	sb	a1, 0(a4)
80002e00: 67 80 00 00  	ret
80002e04: 93 f5 f5 0f  	andi	a1, a1, 255
80002e08: 93 96 85 00  	slli	a3, a1, 8
80002e0c: b3 e5 d5 00  	or	a1, a1, a3
80002e10: 93 96 05 01  	slli	a3, a1, 16
80002e14: b3 e5 d5 00  	or	a1, a1, a3
80002e18: 6f f0 df f6  	j	0x80002d84 <memset+0x18>
80002e1c: 93 96 27 00  	slli	a3, a5, 2
80002e20: 97 02 00 00  	auipc	t0, 0
80002e24: b3 86 56 00  	add	a3, a3, t0
80002e28: 93 82 00 00  	mv	t0, ra
80002e2c: e7 80 06 fa  	jalr	-96(a3)
80002e30: 93 80 02 00  	mv	ra, t0
80002e34: 93 87 07 ff  	addi	a5, a5, -16
80002e38: 33 07 f7 40  	sub	a4, a4, a5
80002e3c: 33 06 f6 00  	add	a2, a2, a5
80002e40: e3 78 c3 f6  	bgeu	t1, a2, 0x80002db0 <memset+0x44>
80002e44: 6f f0 df f3  	j	0x80002d80 <memset+0x14>

80002e48 <__register_exitproc>:
80002e48: 17 47 00 00  	auipc	a4, 4
80002e4c: 03 27 07 68  	lw	a4, 1664(a4)
80002e50: 83 27 87 14  	lw	a5, 328(a4)
80002e54: 63 8c 07 04  	beqz	a5, 0x80002eac <__register_exitproc+0x64>
80002e58: 03 a7 47 00  	lw	a4, 4(a5)
80002e5c: 13 08 f0 01  	li	a6, 31
80002e60: 63 4e e8 06  	blt	a6, a4, 0x80002edc <__register_exitproc+0x94>
80002e64: 13 18 27 00  	slli	a6, a4, 2
80002e68: 63 06 05 02  	beqz	a0, 0x80002e94 <__register_exitproc+0x4c>
80002e6c: 33 83 07 01  	add	t1, a5, a6
80002e70: 23 24 c3 08  	sw	a2, 136(t1)
80002e74: 83 a8 87 18  	lw	a7, 392(a5)
80002e78: 13 06 10 00  	li	a2, 1
80002e7c: 33 16 e6 00  	sll	a2, a2, a4
80002e80: b3 e8 c8 00  	or	a7, a7, a2
80002e84: 23 a4 17 19  	sw	a7, 392(a5)
80002e88: 23 24 d3 10  	sw	a3, 264(t1)
80002e8c: 93 06 20 00  	li	a3, 2
80002e90: 63 04 d5 02  	beq	a0, a3, 0x80002eb8 <__register_exitproc+0x70>
80002e94: 13 07 17 00  	addi	a4, a4, 1
80002e98: 23 a2 e7 00  	sw	a4, 4(a5)
80002e9c: b3 87 07 01  	add	a5, a5, a6
80002ea0: 23 a4 b7 00  	sw	a1, 8(a5)
80002ea4: 13 05 00 00  	li	a0, 0
80002ea8: 67 80 00 00  	ret
80002eac: 93 07 c7 14  	addi	a5, a4, 332
80002eb0: 23 24 f7 14  	sw	a5, 328(a4)
80002eb4: 6f f0 5f fa  	j	0x80002e58 <__register_exitproc+0x10>
80002eb8: 83 a6 c7 18  	lw	a3, 396(a5)
80002ebc: 13 07 17 00  	addi	a4, a4, 1
80002ec0: 23 a2 e7 00  	sw	a4, 4(a5)
80002ec4: b3 e6 c6 00  	or	a3, a3, a2
80002ec8: 23 a6 d7 18  	sw	a3, 396(a5)
80002ecc: b3 87 07 01  	add	a5, a5, a6
80002ed0: 23 a4 b7 00  	sw	a1, 8(a5)
80002ed4: 13 05 00 00  	li	a0, 0
80002ed8: 67 80 00 00  	ret
80002edc: 13 05 f0 ff  	li	a0, -1
80002ee0: 67 80 00 00  	ret

80002ee4 <__call_exitprocs>:
80002ee4: 13 01 01 fd  	addi	sp, sp, -48
80002ee8: 23 2c 41 01  	sw	s4, 24(sp)
80002eec: 17 4a 00 00  	auipc	s4, 4
80002ef0: 03 2a ca 5d  	lw	s4, 1500(s4)
80002ef4: 23 20 21 03  	sw	s2, 32(sp)
80002ef8: 03 29 8a 14  	lw	s2, 328(s4)
80002efc: 23 26 11 02  	sw	ra, 44(sp)
80002f00: 23 24 81 02  	sw	s0, 40(sp)
80002f04: 23 22 91 02  	sw	s1, 36(sp)
80002f08: 23 2e 31 01  	sw	s3, 28(sp)
80002f0c: 23 2a 51 01  	sw	s5, 20(sp)
80002f10: 23 28 61 01  	sw	s6, 16(sp)
80002f14: 23 26 71 01  	sw	s7, 12(sp)
80002f18: 23 24 81 01  	sw	s8, 8(sp)
80002f1c: 63 00 09 04  	beqz	s2, 0x80002f5c <__call_exitprocs+0x78>
80002f20: 13 0b 05 00  	mv	s6, a0
80002f24: 93 8b 05 00  	mv	s7, a1
80002f28: 93 0a 10 00  	li	s5, 1
80002f2c: 93 09 f0 ff  	li	s3, -1
80002f30: 83 24 49 00  	lw	s1, 4(s2)
80002f34: 13 84 f4 ff  	addi	s0, s1, -1
80002f38: 63 42 04 02  	bltz	s0, 0x80002f5c <__call_exitprocs+0x78>
80002f3c: 93 94 24 00  	slli	s1, s1, 2
80002f40: b3 04 99 00  	add	s1, s2, s1
80002f44: 63 84 0b 04  	beqz	s7, 0x80002f8c <__call_exitprocs+0xa8>
80002f48: 83 a7 44 10  	lw	a5, 260(s1)
80002f4c: 63 80 77 05  	beq	a5, s7, 0x80002f8c <__call_exitprocs+0xa8>
80002f50: 13 04 f4 ff  	addi	s0, s0, -1
80002f54: 93 84 c4 ff  	addi	s1, s1, -4
80002f58: e3 16 34 ff  	bne	s0, s3, 0x80002f44 <__call_exitprocs+0x60>
80002f5c: 83 20 c1 02  	lw	ra, 44(sp)
80002f60: 03 24 81 02  	lw	s0, 40(sp)
80002f64: 83 24 41 02  	lw	s1, 36(sp)
80002f68: 03 29 01 02  	lw	s2, 32(sp)
80002f6c: 83 29 c1 01  	lw	s3, 28(sp)
80002f70: 03 2a 81 01  	lw	s4, 24(sp)
80002f74: 83 2a 41 01  	lw	s5, 20(sp)
80002f78: 03 2b 01 01  	lw	s6, 16(sp)
80002f7c: 83 2b c1 00  	lw	s7, 12(sp)
80002f80: 03 2c 81 00  	lw	s8, 8(sp)
80002f84: 13 01 01 03  	addi	sp, sp, 48
80002f88: 67 80 00 00  	ret
80002f8c: 83 27 49 00  	lw	a5, 4(s2)
80002f90: 83 a6 44 00  	lw	a3, 4(s1)
80002f94: 93 87 f7 ff  	addi	a5, a5, -1
80002f98: 63 8e 87 04  	beq	a5, s0, 0x80002ff4 <__call_exitprocs+0x110>
80002f9c: 23 a2 04 00  	sw	zero, 4(s1)
80002fa0: e3 88 06 fa  	beqz	a3, 0x80002f50 <__call_exitprocs+0x6c>
80002fa4: 83 27 89 18  	lw	a5, 392(s2)
80002fa8: 33 97 8a 00  	sll	a4, s5, s0
80002fac: 03 2c 49 00  	lw	s8, 4(s2)
80002fb0: b3 77 f7 00  	and	a5, a4, a5
80002fb4: 63 92 07 02  	bnez	a5, 0x80002fd8 <__call_exitprocs+0xf4>
80002fb8: e7 80 06 00  	jalr	a3
80002fbc: 03 27 49 00  	lw	a4, 4(s2)
80002fc0: 83 27 8a 14  	lw	a5, 328(s4)
80002fc4: 63 14 87 01  	bne	a4, s8, 0x80002fcc <__call_exitprocs+0xe8>
80002fc8: e3 84 27 f9  	beq	a5, s2, 0x80002f50 <__call_exitprocs+0x6c>
80002fcc: e3 88 07 f8  	beqz	a5, 0x80002f5c <__call_exitprocs+0x78>
80002fd0: 13 89 07 00  	mv	s2, a5
80002fd4: 6f f0 df f5  	j	0x80002f30 <__call_exitprocs+0x4c>
80002fd8: 83 27 c9 18  	lw	a5, 396(s2)
80002fdc: 83 a5 44 08  	lw	a1, 132(s1)
80002fe0: 33 77 f7 00  	and	a4, a4, a5
80002fe4: 63 1c 07 00  	bnez	a4, 0x80002ffc <__call_exitprocs+0x118>
80002fe8: 13 05 0b 00  	mv	a0, s6
80002fec: e7 80 06 00  	jalr	a3
80002ff0: 6f f0 df fc  	j	0x80002fbc <__call_exitprocs+0xd8>
80002ff4: 23 22 89 00  	sw	s0, 4(s2)
80002ff8: 6f f0 9f fa  	j	0x80002fa0 <__call_exitprocs+0xbc>
80002ffc: 13 85 05 00  	mv	a0, a1
80003000: e7 80 06 00  	jalr	a3
80003004: 6f f0 9f fb  	j	0x80002fbc <__call_exitprocs+0xd8>

80003008 <__udivdi3>:
80003008: 93 08 05 00  	mv	a7, a0
8000300c: 13 83 05 00  	mv	t1, a1
80003010: 13 07 06 00  	mv	a4, a2
80003014: 13 08 05 00  	mv	a6, a0
80003018: 93 87 05 00  	mv	a5, a1
8000301c: 63 92 06 28  	bnez	a3, 0x800032a0 <__udivdi3+0x298>
80003020: 97 45 00 00  	auipc	a1, 4
80003024: 93 85 c5 bd  	addi	a1, a1, -1060
80003028: 63 76 c3 0e  	bgeu	t1, a2, 0x80003114 <__udivdi3+0x10c>
8000302c: b7 06 01 00  	lui	a3, 16
80003030: 63 78 d6 0c  	bgeu	a2, a3, 0x80003100 <__udivdi3+0xf8>
80003034: 93 36 06 10  	sltiu	a3, a2, 256
80003038: 93 c6 16 00  	xori	a3, a3, 1
8000303c: 93 96 36 00  	slli	a3, a3, 3
80003040: 33 55 d6 00  	srl	a0, a2, a3
80003044: b3 85 a5 00  	add	a1, a1, a0
80003048: 83 c5 05 00  	lbu	a1, 0(a1)
8000304c: 13 05 00 02  	li	a0, 32
80003050: b3 86 d5 00  	add	a3, a1, a3
80003054: b3 05 d5 40  	sub	a1, a0, a3
80003058: 63 0c d5 00  	beq	a0, a3, 0x80003070 <__udivdi3+0x68>
8000305c: b3 17 b3 00  	sll	a5, t1, a1
80003060: b3 d6 d8 00  	srl	a3, a7, a3
80003064: 33 17 b6 00  	sll	a4, a2, a1
80003068: b3 e7 f6 00  	or	a5, a3, a5
8000306c: 33 98 b8 00  	sll	a6, a7, a1
80003070: 93 55 07 01  	srli	a1, a4, 16
80003074: 33 d3 b7 02  	divu	t1, a5, a1
80003078: 13 16 07 01  	slli	a2, a4, 16
8000307c: 13 56 06 01  	srli	a2, a2, 16
80003080: b3 f7 b7 02  	remu	a5, a5, a1
80003084: 13 05 03 00  	mv	a0, t1
80003088: b3 08 66 02  	mul	a7, a2, t1
8000308c: 93 96 07 01  	slli	a3, a5, 16
80003090: 93 57 08 01  	srli	a5, a6, 16
80003094: b3 e7 d7 00  	or	a5, a5, a3
80003098: 63 fe 17 01  	bgeu	a5, a7, 0x800030b4 <__udivdi3+0xac>
8000309c: b3 07 f7 00  	add	a5, a4, a5
800030a0: 13 05 f3 ff  	addi	a0, t1, -1
800030a4: 63 e8 e7 00  	bltu	a5, a4, 0x800030b4 <__udivdi3+0xac>
800030a8: 63 f6 17 01  	bgeu	a5, a7, 0x800030b4 <__udivdi3+0xac>
800030ac: 13 05 e3 ff  	addi	a0, t1, -2
800030b0: b3 87 e7 00  	add	a5, a5, a4
800030b4: b3 87 17 41  	sub	a5, a5, a7
800030b8: b3 d8 b7 02  	divu	a7, a5, a1
800030bc: 13 18 08 01  	slli	a6, a6, 16
800030c0: 13 58 08 01  	srli	a6, a6, 16
800030c4: b3 f7 b7 02  	remu	a5, a5, a1
800030c8: b3 06 16 03  	mul	a3, a2, a7
800030cc: 93 97 07 01  	slli	a5, a5, 16
800030d0: 33 68 f8 00  	or	a6, a6, a5
800030d4: 93 87 08 00  	mv	a5, a7
800030d8: 63 7c d8 00  	bgeu	a6, a3, 0x800030f0 <__udivdi3+0xe8>
800030dc: 33 08 07 01  	add	a6, a4, a6
800030e0: 93 87 f8 ff  	addi	a5, a7, -1
800030e4: 63 66 e8 00  	bltu	a6, a4, 0x800030f0 <__udivdi3+0xe8>
800030e8: 63 74 d8 00  	bgeu	a6, a3, 0x800030f0 <__udivdi3+0xe8>
800030ec: 93 87 e8 ff  	addi	a5, a7, -2
800030f0: 13 15 05 01  	slli	a0, a0, 16
800030f4: 33 65 f5 00  	or	a0, a0, a5
800030f8: 93 05 00 00  	li	a1, 0
800030fc: 67 80 00 00  	ret
80003100: 37 05 00 01  	lui	a0, 4096
80003104: 93 06 00 01  	li	a3, 16
80003108: e3 6c a6 f2  	bltu	a2, a0, 0x80003040 <__udivdi3+0x38>
8000310c: 93 06 80 01  	li	a3, 24
80003110: 6f f0 1f f3  	j	0x80003040 <__udivdi3+0x38>
80003114: 93 06 00 00  	li	a3, 0
80003118: 63 0c 06 00  	beqz	a2, 0x80003130 <__udivdi3+0x128>
8000311c: b7 07 01 00  	lui	a5, 16
80003120: 63 70 f6 0c  	bgeu	a2, a5, 0x800031e0 <__udivdi3+0x1d8>
80003124: 93 36 06 10  	sltiu	a3, a2, 256
80003128: 93 c6 16 00  	xori	a3, a3, 1
8000312c: 93 96 36 00  	slli	a3, a3, 3
80003130: b3 57 d6 00  	srl	a5, a2, a3
80003134: b3 85 f5 00  	add	a1, a1, a5
80003138: 83 c7 05 00  	lbu	a5, 0(a1)
8000313c: b3 87 d7 00  	add	a5, a5, a3
80003140: 93 06 00 02  	li	a3, 32
80003144: b3 85 f6 40  	sub	a1, a3, a5
80003148: 63 96 f6 0a  	bne	a3, a5, 0x800031f4 <__udivdi3+0x1ec>
8000314c: b3 07 c3 40  	sub	a5, t1, a2
80003150: 93 05 10 00  	li	a1, 1
80003154: 93 58 07 01  	srli	a7, a4, 16
80003158: 33 de 17 03  	divu	t3, a5, a7
8000315c: 13 16 07 01  	slli	a2, a4, 16
80003160: 13 56 06 01  	srli	a2, a2, 16
80003164: 93 56 08 01  	srli	a3, a6, 16
80003168: b3 f7 17 03  	remu	a5, a5, a7
8000316c: 13 05 0e 00  	mv	a0, t3
80003170: 33 03 c6 03  	mul	t1, a2, t3
80003174: 93 97 07 01  	slli	a5, a5, 16
80003178: b3 e7 f6 00  	or	a5, a3, a5
8000317c: 63 fe 67 00  	bgeu	a5, t1, 0x80003198 <__udivdi3+0x190>
80003180: b3 07 f7 00  	add	a5, a4, a5
80003184: 13 05 fe ff  	addi	a0, t3, -1
80003188: 63 e8 e7 00  	bltu	a5, a4, 0x80003198 <__udivdi3+0x190>
8000318c: 63 f6 67 00  	bgeu	a5, t1, 0x80003198 <__udivdi3+0x190>
80003190: 13 05 ee ff  	addi	a0, t3, -2
80003194: b3 87 e7 00  	add	a5, a5, a4
80003198: b3 87 67 40  	sub	a5, a5, t1
8000319c: 33 d3 17 03  	divu	t1, a5, a7
800031a0: 13 18 08 01  	slli	a6, a6, 16
800031a4: 13 58 08 01  	srli	a6, a6, 16
800031a8: b3 f7 17 03  	remu	a5, a5, a7
800031ac: b3 06 66 02  	mul	a3, a2, t1
800031b0: 93 97 07 01  	slli	a5, a5, 16
800031b4: 33 68 f8 00  	or	a6, a6, a5
800031b8: 93 07 03 00  	mv	a5, t1
800031bc: 63 7c d8 00  	bgeu	a6, a3, 0x800031d4 <__udivdi3+0x1cc>
800031c0: 33 08 07 01  	add	a6, a4, a6
800031c4: 93 07 f3 ff  	addi	a5, t1, -1
800031c8: 63 66 e8 00  	bltu	a6, a4, 0x800031d4 <__udivdi3+0x1cc>
800031cc: 63 74 d8 00  	bgeu	a6, a3, 0x800031d4 <__udivdi3+0x1cc>
800031d0: 93 07 e3 ff  	addi	a5, t1, -2
800031d4: 13 15 05 01  	slli	a0, a0, 16
800031d8: 33 65 f5 00  	or	a0, a0, a5
800031dc: 67 80 00 00  	ret
800031e0: b7 07 00 01  	lui	a5, 4096
800031e4: 93 06 00 01  	li	a3, 16
800031e8: e3 64 f6 f4  	bltu	a2, a5, 0x80003130 <__udivdi3+0x128>
800031ec: 93 06 80 01  	li	a3, 24
800031f0: 6f f0 1f f4  	j	0x80003130 <__udivdi3+0x128>
800031f4: 33 17 b6 00  	sll	a4, a2, a1
800031f8: b3 56 f3 00  	srl	a3, t1, a5
800031fc: 13 55 07 01  	srli	a0, a4, 16
80003200: 33 13 b3 00  	sll	t1, t1, a1
80003204: b3 d7 f8 00  	srl	a5, a7, a5
80003208: b3 e7 67 00  	or	a5, a5, t1
8000320c: 33 d3 a6 02  	divu	t1, a3, a0
80003210: 13 16 07 01  	slli	a2, a4, 16
80003214: 13 56 06 01  	srli	a2, a2, 16
80003218: 33 98 b8 00  	sll	a6, a7, a1
8000321c: b3 f6 a6 02  	remu	a3, a3, a0
80003220: b3 08 66 02  	mul	a7, a2, t1
80003224: 93 95 06 01  	slli	a1, a3, 16
80003228: 93 d6 07 01  	srli	a3, a5, 16
8000322c: b3 e6 b6 00  	or	a3, a3, a1
80003230: 93 05 03 00  	mv	a1, t1
80003234: 63 fe 16 01  	bgeu	a3, a7, 0x80003250 <__udivdi3+0x248>
80003238: b3 06 d7 00  	add	a3, a4, a3
8000323c: 93 05 f3 ff  	addi	a1, t1, -1
80003240: 63 e8 e6 00  	bltu	a3, a4, 0x80003250 <__udivdi3+0x248>
80003244: 63 f6 16 01  	bgeu	a3, a7, 0x80003250 <__udivdi3+0x248>
80003248: 93 05 e3 ff  	addi	a1, t1, -2
8000324c: b3 86 e6 00  	add	a3, a3, a4
80003250: b3 86 16 41  	sub	a3, a3, a7
80003254: b3 d8 a6 02  	divu	a7, a3, a0
80003258: 93 97 07 01  	slli	a5, a5, 16
8000325c: 93 d7 07 01  	srli	a5, a5, 16
80003260: b3 f6 a6 02  	remu	a3, a3, a0
80003264: 33 06 16 03  	mul	a2, a2, a7
80003268: 93 96 06 01  	slli	a3, a3, 16
8000326c: b3 e7 d7 00  	or	a5, a5, a3
80003270: 93 86 08 00  	mv	a3, a7
80003274: 63 fe c7 00  	bgeu	a5, a2, 0x80003290 <__udivdi3+0x288>
80003278: b3 07 f7 00  	add	a5, a4, a5
8000327c: 93 86 f8 ff  	addi	a3, a7, -1
80003280: 63 e8 e7 00  	bltu	a5, a4, 0x80003290 <__udivdi3+0x288>
80003284: 63 f6 c7 00  	bgeu	a5, a2, 0x80003290 <__udivdi3+0x288>
80003288: 93 86 e8 ff  	addi	a3, a7, -2
8000328c: b3 87 e7 00  	add	a5, a5, a4
80003290: 93 95 05 01  	slli	a1, a1, 16
80003294: b3 87 c7 40  	sub	a5, a5, a2
80003298: b3 e5 d5 00  	or	a1, a1, a3
8000329c: 6f f0 9f eb  	j	0x80003154 <__udivdi3+0x14c>
800032a0: 63 e6 d5 18  	bltu	a1, a3, 0x8000342c <__udivdi3+0x424>
800032a4: b7 07 01 00  	lui	a5, 16
800032a8: 63 f4 f6 04  	bgeu	a3, a5, 0x800032f0 <__udivdi3+0x2e8>
800032ac: 13 b7 06 10  	sltiu	a4, a3, 256
800032b0: 13 47 17 00  	xori	a4, a4, 1
800032b4: 13 17 37 00  	slli	a4, a4, 3
800032b8: b3 d5 e6 00  	srl	a1, a3, a4
800032bc: 97 47 00 00  	auipc	a5, 4
800032c0: 93 87 07 94  	addi	a5, a5, -1728
800032c4: b3 87 b7 00  	add	a5, a5, a1
800032c8: 83 c7 07 00  	lbu	a5, 0(a5)
800032cc: b3 87 e7 00  	add	a5, a5, a4
800032d0: 13 07 00 02  	li	a4, 32
800032d4: b3 05 f7 40  	sub	a1, a4, a5
800032d8: 63 16 f7 02  	bne	a4, a5, 0x80003304 <__udivdi3+0x2fc>
800032dc: 13 05 10 00  	li	a0, 1
800032e0: e3 ee 66 e0  	bltu	a3, t1, 0x800030fc <__udivdi3+0xf4>
800032e4: 33 b5 c8 00  	sltu	a0, a7, a2
800032e8: 13 45 15 00  	xori	a0, a0, 1
800032ec: 67 80 00 00  	ret
800032f0: b7 07 00 01  	lui	a5, 4096
800032f4: 13 07 00 01  	li	a4, 16
800032f8: e3 e0 f6 fc  	bltu	a3, a5, 0x800032b8 <__udivdi3+0x2b0>
800032fc: 13 07 80 01  	li	a4, 24
80003300: 6f f0 9f fb  	j	0x800032b8 <__udivdi3+0x2b0>
80003304: 33 57 f6 00  	srl	a4, a2, a5
80003308: b3 96 b6 00  	sll	a3, a3, a1
8000330c: b3 66 d7 00  	or	a3, a4, a3
80003310: 33 57 f3 00  	srl	a4, t1, a5
80003314: 33 13 b3 00  	sll	t1, t1, a1
80003318: b3 d7 f8 00  	srl	a5, a7, a5
8000331c: b3 e7 67 00  	or	a5, a5, t1
80003320: 13 d3 06 01  	srli	t1, a3, 16
80003324: b3 5e 67 02  	divu	t4, a4, t1
80003328: 13 98 06 01  	slli	a6, a3, 16
8000332c: 13 58 08 01  	srli	a6, a6, 16
80003330: 33 16 b6 00  	sll	a2, a2, a1
80003334: 33 77 67 02  	remu	a4, a4, t1
80003338: 33 0e d8 03  	mul	t3, a6, t4
8000333c: 13 15 07 01  	slli	a0, a4, 16
80003340: 13 d7 07 01  	srli	a4, a5, 16
80003344: 33 67 a7 00  	or	a4, a4, a0
80003348: 13 85 0e 00  	mv	a0, t4
8000334c: 63 7e c7 01  	bgeu	a4, t3, 0x80003368 <__udivdi3+0x360>
80003350: 33 87 e6 00  	add	a4, a3, a4
80003354: 13 85 fe ff  	addi	a0, t4, -1
80003358: 63 68 d7 00  	bltu	a4, a3, 0x80003368 <__udivdi3+0x360>
8000335c: 63 76 c7 01  	bgeu	a4, t3, 0x80003368 <__udivdi3+0x360>
80003360: 13 85 ee ff  	addi	a0, t4, -2
80003364: 33 07 d7 00  	add	a4, a4, a3
80003368: 33 07 c7 41  	sub	a4, a4, t3
8000336c: 33 5e 67 02  	divu	t3, a4, t1
80003370: 93 97 07 01  	slli	a5, a5, 16
80003374: 93 d7 07 01  	srli	a5, a5, 16
80003378: 33 77 67 02  	remu	a4, a4, t1
8000337c: 33 08 c8 03  	mul	a6, a6, t3
80003380: 13 17 07 01  	slli	a4, a4, 16
80003384: b3 e7 e7 00  	or	a5, a5, a4
80003388: 13 07 0e 00  	mv	a4, t3
8000338c: 63 fe 07 01  	bgeu	a5, a6, 0x800033a8 <__udivdi3+0x3a0>
80003390: b3 87 f6 00  	add	a5, a3, a5
80003394: 13 07 fe ff  	addi	a4, t3, -1
80003398: 63 e8 d7 00  	bltu	a5, a3, 0x800033a8 <__udivdi3+0x3a0>
8000339c: 63 f6 07 01  	bgeu	a5, a6, 0x800033a8 <__udivdi3+0x3a0>
800033a0: 13 07 ee ff  	addi	a4, t3, -2
800033a4: b3 87 d7 00  	add	a5, a5, a3
800033a8: 13 15 05 01  	slli	a0, a0, 16
800033ac: 37 0e 01 00  	lui	t3, 16
800033b0: 33 65 e5 00  	or	a0, a0, a4
800033b4: 93 06 fe ff  	addi	a3, t3, -1
800033b8: 33 77 d5 00  	and	a4, a0, a3
800033bc: b3 87 07 41  	sub	a5, a5, a6
800033c0: b3 76 d6 00  	and	a3, a2, a3
800033c4: 13 58 05 01  	srli	a6, a0, 16
800033c8: 13 56 06 01  	srli	a2, a2, 16
800033cc: 33 03 d7 02  	mul	t1, a4, a3
800033d0: b3 06 d8 02  	mul	a3, a6, a3
800033d4: 33 07 c7 02  	mul	a4, a4, a2
800033d8: 33 08 c8 02  	mul	a6, a6, a2
800033dc: 33 06 d7 00  	add	a2, a4, a3
800033e0: 13 57 03 01  	srli	a4, t1, 16
800033e4: 33 07 c7 00  	add	a4, a4, a2
800033e8: 63 74 d7 00  	bgeu	a4, a3, 0x800033f0 <__udivdi3+0x3e8>
800033ec: 33 08 c8 01  	add	a6, a6, t3
800033f0: 93 56 07 01  	srli	a3, a4, 16
800033f4: b3 86 06 01  	add	a3, a3, a6
800033f8: 63 e6 d7 02  	bltu	a5, a3, 0x80003424 <__udivdi3+0x41c>
800033fc: e3 9e d7 ce  	bne	a5, a3, 0x800030f8 <__udivdi3+0xf0>
80003400: b7 07 01 00  	lui	a5, 16
80003404: 93 87 f7 ff  	addi	a5, a5, -1
80003408: 33 77 f7 00  	and	a4, a4, a5
8000340c: 13 17 07 01  	slli	a4, a4, 16
80003410: 33 73 f3 00  	and	t1, t1, a5
80003414: b3 98 b8 00  	sll	a7, a7, a1
80003418: 33 07 67 00  	add	a4, a4, t1
8000341c: 93 05 00 00  	li	a1, 0
80003420: e3 fe e8 cc  	bgeu	a7, a4, 0x800030fc <__udivdi3+0xf4>
80003424: 13 05 f5 ff  	addi	a0, a0, -1
80003428: 6f f0 1f cd  	j	0x800030f8 <__udivdi3+0xf0>
8000342c: 93 05 00 00  	li	a1, 0
80003430: 13 05 00 00  	li	a0, 0
80003434: 67 80 00 00  	ret

80003438 <__umoddi3>:
80003438: 13 08 06 00  	mv	a6, a2
8000343c: 93 07 05 00  	mv	a5, a0
80003440: 13 87 05 00  	mv	a4, a1
80003444: 63 96 06 20  	bnez	a3, 0x80003650 <__umoddi3+0x218>
80003448: 97 38 00 00  	auipc	a7, 3
8000344c: 93 88 48 7b  	addi	a7, a7, 1972
80003450: 63 fc c5 0c  	bgeu	a1, a2, 0x80003528 <__umoddi3+0xf0>
80003454: b7 06 01 00  	lui	a3, 16
80003458: 63 7e d6 0a  	bgeu	a2, a3, 0x80003514 <__umoddi3+0xdc>
8000345c: 93 36 06 10  	sltiu	a3, a2, 256
80003460: 93 c6 16 00  	xori	a3, a3, 1
80003464: 93 96 36 00  	slli	a3, a3, 3
80003468: 33 53 d6 00  	srl	t1, a2, a3
8000346c: b3 88 68 00  	add	a7, a7, t1
80003470: 83 c8 08 00  	lbu	a7, 0(a7)
80003474: 13 03 00 02  	li	t1, 32
80003478: b3 86 d8 00  	add	a3, a7, a3
8000347c: b3 08 d3 40  	sub	a7, t1, a3
80003480: 63 0c d3 00  	beq	t1, a3, 0x80003498 <__umoddi3+0x60>
80003484: 33 97 15 01  	sll	a4, a1, a7
80003488: b3 56 d5 00  	srl	a3, a0, a3
8000348c: 33 18 16 01  	sll	a6, a2, a7
80003490: 33 e7 e6 00  	or	a4, a3, a4
80003494: b3 17 15 01  	sll	a5, a0, a7
80003498: 13 56 08 01  	srli	a2, a6, 16
8000349c: b3 56 c7 02  	divu	a3, a4, a2
800034a0: 13 15 08 01  	slli	a0, a6, 16
800034a4: 13 55 05 01  	srli	a0, a0, 16
800034a8: 33 77 c7 02  	remu	a4, a4, a2
800034ac: b3 86 a6 02  	mul	a3, a3, a0
800034b0: 93 15 07 01  	slli	a1, a4, 16
800034b4: 13 d7 07 01  	srli	a4, a5, 16
800034b8: 33 67 b7 00  	or	a4, a4, a1
800034bc: 63 7a d7 00  	bgeu	a4, a3, 0x800034d0 <__umoddi3+0x98>
800034c0: 33 07 e8 00  	add	a4, a6, a4
800034c4: 63 66 07 01  	bltu	a4, a6, 0x800034d0 <__umoddi3+0x98>
800034c8: 63 74 d7 00  	bgeu	a4, a3, 0x800034d0 <__umoddi3+0x98>
800034cc: 33 07 07 01  	add	a4, a4, a6
800034d0: 33 07 d7 40  	sub	a4, a4, a3
800034d4: b3 56 c7 02  	divu	a3, a4, a2
800034d8: 33 77 c7 02  	remu	a4, a4, a2
800034dc: b3 86 a6 02  	mul	a3, a3, a0
800034e0: 93 97 07 01  	slli	a5, a5, 16
800034e4: 13 17 07 01  	slli	a4, a4, 16
800034e8: 93 d7 07 01  	srli	a5, a5, 16
800034ec: b3 e7 e7 00  	or	a5, a5, a4
800034f0: 63 fa d7 00  	bgeu	a5, a3, 0x80003504 <__umoddi3+0xcc>
800034f4: b3 07 f8 00  	add	a5, a6, a5
800034f8: 63 e6 07 01  	bltu	a5, a6, 0x80003504 <__umoddi3+0xcc>
800034fc: 63 f4 d7 00  	bgeu	a5, a3, 0x80003504 <__umoddi3+0xcc>
80003500: b3 87 07 01  	add	a5, a5, a6
80003504: b3 87 d7 40  	sub	a5, a5, a3
80003508: 33 d5 17 01  	srl	a0, a5, a7
8000350c: 93 05 00 00  	li	a1, 0
80003510: 67 80 00 00  	ret
80003514: 37 03 00 01  	lui	t1, 4096
80003518: 93 06 00 01  	li	a3, 16
8000351c: e3 66 66 f4  	bltu	a2, t1, 0x80003468 <__umoddi3+0x30>
80003520: 93 06 80 01  	li	a3, 24
80003524: 6f f0 5f f4  	j	0x80003468 <__umoddi3+0x30>
80003528: 93 06 00 00  	li	a3, 0
8000352c: 63 0c 06 00  	beqz	a2, 0x80003544 <__umoddi3+0x10c>
80003530: 37 07 01 00  	lui	a4, 16
80003534: 63 7e e6 06  	bgeu	a2, a4, 0x800035b0 <__umoddi3+0x178>
80003538: 93 36 06 10  	sltiu	a3, a2, 256
8000353c: 93 c6 16 00  	xori	a3, a3, 1
80003540: 93 96 36 00  	slli	a3, a3, 3
80003544: 33 57 d6 00  	srl	a4, a2, a3
80003548: b3 88 e8 00  	add	a7, a7, a4
8000354c: 03 c7 08 00  	lbu	a4, 0(a7)
80003550: 33 07 d7 00  	add	a4, a4, a3
80003554: 93 06 00 02  	li	a3, 32
80003558: b3 88 e6 40  	sub	a7, a3, a4
8000355c: 63 94 e6 06  	bne	a3, a4, 0x800035c4 <__umoddi3+0x18c>
80003560: 33 87 c5 40  	sub	a4, a1, a2
80003564: 93 55 08 01  	srli	a1, a6, 16
80003568: 33 56 b7 02  	divu	a2, a4, a1
8000356c: 13 15 08 01  	slli	a0, a6, 16
80003570: 13 55 05 01  	srli	a0, a0, 16
80003574: 93 d6 07 01  	srli	a3, a5, 16
80003578: 33 77 b7 02  	remu	a4, a4, a1
8000357c: 33 06 a6 02  	mul	a2, a2, a0
80003580: 13 17 07 01  	slli	a4, a4, 16
80003584: 33 e7 e6 00  	or	a4, a3, a4
80003588: 63 7a c7 00  	bgeu	a4, a2, 0x8000359c <__umoddi3+0x164>
8000358c: 33 07 e8 00  	add	a4, a6, a4
80003590: 63 66 07 01  	bltu	a4, a6, 0x8000359c <__umoddi3+0x164>
80003594: 63 74 c7 00  	bgeu	a4, a2, 0x8000359c <__umoddi3+0x164>
80003598: 33 07 07 01  	add	a4, a4, a6
8000359c: 33 07 c7 40  	sub	a4, a4, a2
800035a0: b3 56 b7 02  	divu	a3, a4, a1
800035a4: 33 77 b7 02  	remu	a4, a4, a1
800035a8: b3 86 a6 02  	mul	a3, a3, a0
800035ac: 6f f0 5f f3  	j	0x800034e0 <__umoddi3+0xa8>
800035b0: 37 07 00 01  	lui	a4, 4096
800035b4: 93 06 00 01  	li	a3, 16
800035b8: e3 66 e6 f8  	bltu	a2, a4, 0x80003544 <__umoddi3+0x10c>
800035bc: 93 06 80 01  	li	a3, 24
800035c0: 6f f0 5f f8  	j	0x80003544 <__umoddi3+0x10c>
800035c4: 33 18 16 01  	sll	a6, a2, a7
800035c8: b3 d6 e5 00  	srl	a3, a1, a4
800035cc: b3 17 15 01  	sll	a5, a0, a7
800035d0: b3 95 15 01  	sll	a1, a1, a7
800035d4: 33 57 e5 00  	srl	a4, a0, a4
800035d8: 13 55 08 01  	srli	a0, a6, 16
800035dc: 33 67 b7 00  	or	a4, a4, a1
800035e0: b3 d5 a6 02  	divu	a1, a3, a0
800035e4: 13 13 08 01  	slli	t1, a6, 16
800035e8: 13 53 03 01  	srli	t1, t1, 16
800035ec: b3 f6 a6 02  	remu	a3, a3, a0
800035f0: b3 85 65 02  	mul	a1, a1, t1
800035f4: 13 96 06 01  	slli	a2, a3, 16
800035f8: 93 56 07 01  	srli	a3, a4, 16
800035fc: b3 e6 c6 00  	or	a3, a3, a2
80003600: 63 fa b6 00  	bgeu	a3, a1, 0x80003614 <__umoddi3+0x1dc>
80003604: b3 06 d8 00  	add	a3, a6, a3
80003608: 63 e6 06 01  	bltu	a3, a6, 0x80003614 <__umoddi3+0x1dc>
8000360c: 63 f4 b6 00  	bgeu	a3, a1, 0x80003614 <__umoddi3+0x1dc>
80003610: b3 86 06 01  	add	a3, a3, a6
80003614: b3 86 b6 40  	sub	a3, a3, a1
80003618: 33 d6 a6 02  	divu	a2, a3, a0
8000361c: 13 17 07 01  	slli	a4, a4, 16
80003620: 13 57 07 01  	srli	a4, a4, 16
80003624: b3 f6 a6 02  	remu	a3, a3, a0
80003628: 33 06 66 02  	mul	a2, a2, t1
8000362c: 93 96 06 01  	slli	a3, a3, 16
80003630: 33 67 d7 00  	or	a4, a4, a3
80003634: 63 7a c7 00  	bgeu	a4, a2, 0x80003648 <__umoddi3+0x210>
80003638: 33 07 e8 00  	add	a4, a6, a4
8000363c: 63 66 07 01  	bltu	a4, a6, 0x80003648 <__umoddi3+0x210>
80003640: 63 74 c7 00  	bgeu	a4, a2, 0x80003648 <__umoddi3+0x210>
80003644: 33 07 07 01  	add	a4, a4, a6
80003648: 33 07 c7 40  	sub	a4, a4, a2
8000364c: 6f f0 9f f1  	j	0x80003564 <__umoddi3+0x12c>
80003650: 63 e4 d5 1c  	bltu	a1, a3, 0x80003818 <__umoddi3+0x3e0>
80003654: 37 08 01 00  	lui	a6, 16
80003658: 63 fe 06 05  	bgeu	a3, a6, 0x800036b4 <__umoddi3+0x27c>
8000365c: 13 b8 06 10  	sltiu	a6, a3, 256
80003660: 13 48 18 00  	xori	a6, a6, 1
80003664: 13 18 38 00  	slli	a6, a6, 3
80003668: 33 d3 06 01  	srl	t1, a3, a6
8000366c: 97 38 00 00  	auipc	a7, 3
80003670: 93 88 08 59  	addi	a7, a7, 1424
80003674: b3 88 68 00  	add	a7, a7, t1
80003678: 83 c8 08 00  	lbu	a7, 0(a7)
8000367c: 13 03 00 02  	li	t1, 32
80003680: b3 88 08 01  	add	a7, a7, a6
80003684: 33 08 13 41  	sub	a6, t1, a7
80003688: 63 10 13 05  	bne	t1, a7, 0x800036c8 <__umoddi3+0x290>
8000368c: 63 e4 b6 00  	bltu	a3, a1, 0x80003694 <__umoddi3+0x25c>
80003690: 63 6c c5 00  	bltu	a0, a2, 0x800036a8 <__umoddi3+0x270>
80003694: 33 06 c5 40  	sub	a2, a0, a2
80003698: b3 86 d5 40  	sub	a3, a1, a3
8000369c: 33 37 c5 00  	sltu	a4, a0, a2
800036a0: 93 07 06 00  	mv	a5, a2
800036a4: 33 87 e6 40  	sub	a4, a3, a4
800036a8: 13 85 07 00  	mv	a0, a5
800036ac: 93 05 07 00  	mv	a1, a4
800036b0: 67 80 00 00  	ret
800036b4: b7 08 00 01  	lui	a7, 4096
800036b8: 13 08 00 01  	li	a6, 16
800036bc: e3 e6 16 fb  	bltu	a3, a7, 0x80003668 <__umoddi3+0x230>
800036c0: 13 08 80 01  	li	a6, 24
800036c4: 6f f0 5f fa  	j	0x80003668 <__umoddi3+0x230>
800036c8: b3 57 16 01  	srl	a5, a2, a7
800036cc: b3 96 06 01  	sll	a3, a3, a6
800036d0: b3 e6 d7 00  	or	a3, a5, a3
800036d4: 33 d7 15 01  	srl	a4, a1, a7
800036d8: 13 de 06 01  	srli	t3, a3, 16
800036dc: 33 5f c7 03  	divu	t5, a4, t3
800036e0: 13 93 06 01  	slli	t1, a3, 16
800036e4: 13 53 03 01  	srli	t1, t1, 16
800036e8: b3 97 05 01  	sll	a5, a1, a6
800036ec: b3 55 15 01  	srl	a1, a0, a7
800036f0: b3 e5 f5 00  	or	a1, a1, a5
800036f4: 93 d7 05 01  	srli	a5, a1, 16
800036f8: 33 16 06 01  	sll	a2, a2, a6
800036fc: 33 15 05 01  	sll	a0, a0, a6
80003700: 33 77 c7 03  	remu	a4, a4, t3
80003704: b3 0e e3 03  	mul	t4, t1, t5
80003708: 13 17 07 01  	slli	a4, a4, 16
8000370c: b3 e7 e7 00  	or	a5, a5, a4
80003710: 13 07 0f 00  	mv	a4, t5
80003714: 63 fe d7 01  	bgeu	a5, t4, 0x80003730 <__umoddi3+0x2f8>
80003718: b3 87 f6 00  	add	a5, a3, a5
8000371c: 13 07 ff ff  	addi	a4, t5, -1
80003720: 63 e8 d7 00  	bltu	a5, a3, 0x80003730 <__umoddi3+0x2f8>
80003724: 63 f6 d7 01  	bgeu	a5, t4, 0x80003730 <__umoddi3+0x2f8>
80003728: 13 07 ef ff  	addi	a4, t5, -2
8000372c: b3 87 d7 00  	add	a5, a5, a3
80003730: b3 87 d7 41  	sub	a5, a5, t4
80003734: b3 de c7 03  	divu	t4, a5, t3
80003738: 93 95 05 01  	slli	a1, a1, 16
8000373c: 93 d5 05 01  	srli	a1, a1, 16
80003740: b3 f7 c7 03  	remu	a5, a5, t3
80003744: 13 8e 0e 00  	mv	t3, t4
80003748: 33 03 d3 03  	mul	t1, t1, t4
8000374c: 93 97 07 01  	slli	a5, a5, 16
80003750: b3 e5 f5 00  	or	a1, a1, a5
80003754: 63 fe 65 00  	bgeu	a1, t1, 0x80003770 <__umoddi3+0x338>
80003758: b3 85 b6 00  	add	a1, a3, a1
8000375c: 13 8e fe ff  	addi	t3, t4, -1
80003760: 63 e8 d5 00  	bltu	a1, a3, 0x80003770 <__umoddi3+0x338>
80003764: 63 f6 65 00  	bgeu	a1, t1, 0x80003770 <__umoddi3+0x338>
80003768: 13 8e ee ff  	addi	t3, t4, -2
8000376c: b3 85 d5 00  	add	a1, a1, a3
80003770: 93 17 07 01  	slli	a5, a4, 16
80003774: 37 0f 01 00  	lui	t5, 16
80003778: b3 e7 c7 01  	or	a5, a5, t3
8000377c: b3 85 65 40  	sub	a1, a1, t1
80003780: 13 03 ff ff  	addi	t1, t5, -1
80003784: 33 f7 67 00  	and	a4, a5, t1
80003788: 13 5e 06 01  	srli	t3, a2, 16
8000378c: 93 d7 07 01  	srli	a5, a5, 16
80003790: 33 73 66 00  	and	t1, a2, t1
80003794: b3 0e 67 02  	mul	t4, a4, t1
80003798: 33 83 67 02  	mul	t1, a5, t1
8000379c: 33 07 c7 03  	mul	a4, a4, t3
800037a0: b3 87 c7 03  	mul	a5, a5, t3
800037a4: 33 0e 67 00  	add	t3, a4, t1
800037a8: 13 d7 0e 01  	srli	a4, t4, 16
800037ac: 33 07 c7 01  	add	a4, a4, t3
800037b0: 63 74 67 00  	bgeu	a4, t1, 0x800037b8 <__umoddi3+0x380>
800037b4: b3 87 e7 01  	add	a5, a5, t5
800037b8: 13 53 07 01  	srli	t1, a4, 16
800037bc: b3 07 f3 00  	add	a5, t1, a5
800037c0: 37 03 01 00  	lui	t1, 16
800037c4: 13 03 f3 ff  	addi	t1, t1, -1
800037c8: 33 77 67 00  	and	a4, a4, t1
800037cc: 13 17 07 01  	slli	a4, a4, 16
800037d0: b3 fe 6e 00  	and	t4, t4, t1
800037d4: 33 07 d7 01  	add	a4, a4, t4
800037d8: 63 e6 f5 00  	bltu	a1, a5, 0x800037e4 <__umoddi3+0x3ac>
800037dc: 63 9e f5 00  	bne	a1, a5, 0x800037f8 <__umoddi3+0x3c0>
800037e0: 63 7c e5 00  	bgeu	a0, a4, 0x800037f8 <__umoddi3+0x3c0>
800037e4: 33 06 c7 40  	sub	a2, a4, a2
800037e8: 33 33 c7 00  	sltu	t1, a4, a2
800037ec: b3 06 d3 00  	add	a3, t1, a3
800037f0: 13 07 06 00  	mv	a4, a2
800037f4: b3 87 d7 40  	sub	a5, a5, a3
800037f8: 33 07 e5 40  	sub	a4, a0, a4
800037fc: 33 35 e5 00  	sltu	a0, a0, a4
80003800: b3 85 f5 40  	sub	a1, a1, a5
80003804: b3 85 a5 40  	sub	a1, a1, a0
80003808: b3 98 15 01  	sll	a7, a1, a7
8000380c: 33 57 07 01  	srl	a4, a4, a6
80003810: 33 e5 e8 00  	or	a0, a7, a4
80003814: b3 d5 05 01  	srl	a1, a1, a6
80003818: 67 80 00 00  	ret

8000381c <__adddf3>:
8000381c: 13 01 01 fe  	addi	sp, sp, -32
80003820: 23 2e 11 00  	sw	ra, 28(sp)
80003824: 23 2c 81 00  	sw	s0, 24(sp)
80003828: 23 2a 91 00  	sw	s1, 20(sp)
8000382c: 23 28 21 01  	sw	s2, 16(sp)
80003830: 23 26 31 01  	sw	s3, 12(sp)
80003834: 23 24 41 01  	sw	s4, 8(sp)
80003838: f3 29 20 00  	frrm	s3
8000383c: b7 07 10 00  	lui	a5, 256
80003840: 93 87 f7 ff  	addi	a5, a5, -1
80003844: 33 f7 b7 00  	and	a4, a5, a1
80003848: 13 d4 45 01  	srli	s0, a1, 20
8000384c: 13 17 37 00  	slli	a4, a4, 3
80003850: 13 58 d5 01  	srli	a6, a0, 29
80003854: b3 f7 d7 00  	and	a5, a5, a3
80003858: 93 d8 46 01  	srli	a7, a3, 20
8000385c: 13 74 f4 7f  	andi	s0, s0, 2047
80003860: 93 d4 f5 01  	srli	s1, a1, 31
80003864: 33 68 e8 00  	or	a6, a6, a4
80003868: 93 f8 f8 7f  	andi	a7, a7, 2047
8000386c: 13 57 d6 01  	srli	a4, a2, 29
80003870: 93 97 37 00  	slli	a5, a5, 3
80003874: 93 d6 f6 01  	srli	a3, a3, 31
80003878: 13 15 35 00  	slli	a0, a0, 3
8000387c: 33 67 f7 00  	or	a4, a4, a5
80003880: 13 16 36 00  	slli	a2, a2, 3
80003884: b3 05 14 41  	sub	a1, s0, a7
80003888: 63 9e d4 4a  	bne	s1, a3, 0x80003d44 <__adddf3+0x528>
8000388c: 93 86 05 00  	mv	a3, a1
80003890: 63 50 b0 1a  	blez	a1, 0x80003a30 <__adddf3+0x214>
80003894: 63 9a 08 0a  	bnez	a7, 0x80003948 <__adddf3+0x12c>
80003898: b3 67 c7 00  	or	a5, a4, a2
8000389c: 63 90 07 02  	bnez	a5, 0x800038bc <__adddf3+0xa0>
800038a0: 93 07 f0 7f  	li	a5, 2047
800038a4: 63 80 f5 08  	beq	a1, a5, 0x80003924 <__adddf3+0x108>
800038a8: 13 07 08 00  	mv	a4, a6
800038ac: 13 06 05 00  	mv	a2, a0
800038b0: 93 07 00 00  	li	a5, 0
800038b4: 93 88 05 00  	mv	a7, a1
800038b8: 6f 00 c0 02  	j	0x800038e4 <__adddf3+0xc8>
800038bc: 93 87 f5 ff  	addi	a5, a1, -1
800038c0: 63 9e 07 04  	bnez	a5, 0x8000391c <__adddf3+0x100>
800038c4: 33 06 c5 00  	add	a2, a0, a2
800038c8: 33 07 e8 00  	add	a4, a6, a4
800038cc: 33 35 a6 00  	sltu	a0, a2, a0
800038d0: 33 07 a7 00  	add	a4, a4, a0
800038d4: b7 06 80 00  	lui	a3, 2048
800038d8: b3 76 d7 00  	and	a3, a4, a3
800038dc: 63 90 06 42  	bnez	a3, 0x80003cfc <__adddf3+0x4e0>
800038e0: 93 08 10 00  	li	a7, 1
800038e4: 93 76 76 00  	andi	a3, a2, 7
800038e8: 13 08 07 00  	mv	a6, a4
800038ec: 13 05 06 00  	mv	a0, a2
800038f0: e3 8c 06 20  	beqz	a3, 0x80004308 <__adddf3+0xaec>
800038f4: 93 06 00 00  	li	a3, 0
800038f8: 13 07 20 00  	li	a4, 2
800038fc: 93 e7 17 00  	ori	a5, a5, 1
80003900: 63 96 e9 3a  	bne	s3, a4, 0x80003cac <__adddf3+0x490>
80003904: 63 88 04 3c  	beqz	s1, 0x80003cd4 <__adddf3+0x4b8>
80003908: 13 07 85 00  	addi	a4, a0, 8
8000390c: 33 36 a7 00  	sltu	a2, a4, a0
80003910: 33 08 c8 00  	add	a6, a6, a2
80003914: 13 05 07 00  	mv	a0, a4
80003918: 6f 00 d0 2b  	j	0x800043d4 <__adddf3+0xbb8>
8000391c: 93 06 f0 7f  	li	a3, 2047
80003920: 63 94 d5 0c  	bne	a1, a3, 0x800039e8 <__adddf3+0x1cc>
80003924: b3 65 a8 00  	or	a1, a6, a0
80003928: e3 88 05 32  	beqz	a1, 0x80004458 <__adddf3+0xc3c>
8000392c: 93 57 68 01  	srli	a5, a6, 22
80003930: 93 c7 17 00  	xori	a5, a5, 1
80003934: 93 f7 17 00  	andi	a5, a5, 1
80003938: 93 97 47 00  	slli	a5, a5, 4
8000393c: 13 07 08 00  	mv	a4, a6
80003940: 13 06 05 00  	mv	a2, a0
80003944: 6f 00 40 12  	j	0x80003a68 <__adddf3+0x24c>
80003948: 93 07 f0 7f  	li	a5, 2047
8000394c: 63 1c f4 00  	bne	s0, a5, 0x80003964 <__adddf3+0x148>
80003950: b3 65 a8 00  	or	a1, a6, a0
80003954: e3 9c 05 fc  	bnez	a1, 0x8000392c <__adddf3+0x110>
80003958: 13 08 00 00  	li	a6, 0
8000395c: 93 08 f0 7f  	li	a7, 2047
80003960: 6f 00 c0 64  	j	0x80003fac <__adddf3+0x790>
80003964: 93 07 80 03  	li	a5, 56
80003968: 63 c4 b7 08  	blt	a5, a1, 0x800039f0 <__adddf3+0x1d4>
8000396c: b7 07 80 00  	lui	a5, 2048
80003970: 33 67 f7 00  	or	a4, a4, a5
80003974: 93 87 05 00  	mv	a5, a1
80003978: 93 06 f0 01  	li	a3, 31
8000397c: 63 c0 f6 08  	blt	a3, a5, 0x800039fc <__adddf3+0x1e0>
80003980: 93 05 00 02  	li	a1, 32
80003984: b3 85 f5 40  	sub	a1, a1, a5
80003988: b3 16 b7 00  	sll	a3, a4, a1
8000398c: b3 58 f6 00  	srl	a7, a2, a5
80003990: b3 15 b6 00  	sll	a1, a2, a1
80003994: b3 e6 16 01  	or	a3, a3, a7
80003998: b3 35 b0 00  	snez	a1, a1
8000399c: b3 e6 b6 00  	or	a3, a3, a1
800039a0: b3 57 f7 00  	srl	a5, a4, a5
800039a4: 33 86 a6 00  	add	a2, a3, a0
800039a8: b3 87 07 01  	add	a5, a5, a6
800039ac: b3 36 d6 00  	sltu	a3, a2, a3
800039b0: 33 87 d7 00  	add	a4, a5, a3
800039b4: 93 08 04 00  	mv	a7, s0
800039b8: b7 07 80 00  	lui	a5, 2048
800039bc: b3 77 f7 00  	and	a5, a4, a5
800039c0: 63 82 07 2c  	beqz	a5, 0x80003c84 <__adddf3+0x468>
800039c4: 93 88 18 00  	addi	a7, a7, 1
800039c8: 93 07 f0 7f  	li	a5, 2047
800039cc: 63 9a f8 32  	bne	a7, a5, 0x80003d00 <__adddf3+0x4e4>
800039d0: 63 82 09 36  	beqz	s3, 0x80003d34 <__adddf3+0x518>
800039d4: 93 07 30 00  	li	a5, 3
800039d8: 63 98 f9 34  	bne	s3, a5, 0x80003d28 <__adddf3+0x50c>
800039dc: 63 8c 04 34  	beqz	s1, 0x80003d34 <__adddf3+0x518>
800039e0: 93 06 00 00  	li	a3, 0
800039e4: 6f 00 80 2b  	j	0x80003c9c <__adddf3+0x480>
800039e8: 93 06 80 03  	li	a3, 56
800039ec: e3 d6 f6 f8  	bge	a3, a5, 0x80003978 <__adddf3+0x15c>
800039f0: 93 07 00 00  	li	a5, 0
800039f4: 93 06 10 00  	li	a3, 1
800039f8: 6f f0 df fa  	j	0x800039a4 <__adddf3+0x188>
800039fc: 93 86 07 fe  	addi	a3, a5, -32
80003a00: 93 08 00 02  	li	a7, 32
80003a04: b3 56 d7 00  	srl	a3, a4, a3
80003a08: 93 05 00 00  	li	a1, 0
80003a0c: 63 88 17 01  	beq	a5, a7, 0x80003a1c <__adddf3+0x200>
80003a10: 93 05 00 04  	li	a1, 64
80003a14: b3 85 f5 40  	sub	a1, a1, a5
80003a18: b3 15 b7 00  	sll	a1, a4, a1
80003a1c: b3 e5 c5 00  	or	a1, a1, a2
80003a20: b3 35 b0 00  	snez	a1, a1
80003a24: b3 e6 b6 00  	or	a3, a3, a1
80003a28: 93 07 00 00  	li	a5, 0
80003a2c: 6f f0 9f f7  	j	0x800039a4 <__adddf3+0x188>
80003a30: 63 82 05 10  	beqz	a1, 0x80003b34 <__adddf3+0x318>
80003a34: b3 86 88 40  	sub	a3, a7, s0
80003a38: 63 1e 04 04  	bnez	s0, 0x80003a94 <__adddf3+0x278>
80003a3c: b3 67 a8 00  	or	a5, a6, a0
80003a40: 63 98 07 02  	bnez	a5, 0x80003a70 <__adddf3+0x254>
80003a44: 93 07 f0 7f  	li	a5, 2047
80003a48: 93 88 06 00  	mv	a7, a3
80003a4c: 63 9c f6 22  	bne	a3, a5, 0x80003c84 <__adddf3+0x468>
80003a50: b3 65 c7 00  	or	a1, a4, a2
80003a54: e3 8a 05 20  	beqz	a1, 0x80004468 <__adddf3+0xc4c>
80003a58: 93 57 67 01  	srli	a5, a4, 22
80003a5c: 93 c7 17 00  	xori	a5, a5, 1
80003a60: 93 f7 17 00  	andi	a5, a5, 1
80003a64: 93 97 47 00  	slli	a5, a5, 4
80003a68: 93 08 f0 7f  	li	a7, 2047
80003a6c: 6f f0 9f e7  	j	0x800038e4 <__adddf3+0xc8>
80003a70: 93 87 f6 ff  	addi	a5, a3, -1
80003a74: e3 88 07 e4  	beqz	a5, 0x800038c4 <__adddf3+0xa8>
80003a78: 93 05 f0 7f  	li	a1, 2047
80003a7c: e3 8a b6 fc  	beq	a3, a1, 0x80003a50 <__adddf3+0x234>
80003a80: 93 06 80 03  	li	a3, 56
80003a84: 63 de f6 02  	bge	a3, a5, 0x80003ac0 <__adddf3+0x2a4>
80003a88: 93 07 00 00  	li	a5, 0
80003a8c: 93 06 10 00  	li	a3, 1
80003a90: 6f 00 c0 05  	j	0x80003aec <__adddf3+0x2d0>
80003a94: 93 07 f0 7f  	li	a5, 2047
80003a98: 63 9a f8 00  	bne	a7, a5, 0x80003aac <__adddf3+0x290>
80003a9c: b3 65 c7 00  	or	a1, a4, a2
80003aa0: 63 9c 05 12  	bnez	a1, 0x80003bd8 <__adddf3+0x3bc>
80003aa4: 13 08 00 00  	li	a6, 0
80003aa8: 6f 00 40 50  	j	0x80003fac <__adddf3+0x790>
80003aac: 93 07 80 03  	li	a5, 56
80003ab0: e3 cc d7 fc  	blt	a5, a3, 0x80003a88 <__adddf3+0x26c>
80003ab4: b7 07 80 00  	lui	a5, 2048
80003ab8: 33 68 f8 00  	or	a6, a6, a5
80003abc: 93 87 06 00  	mv	a5, a3
80003ac0: 93 06 f0 01  	li	a3, 31
80003ac4: 63 ce f6 02  	blt	a3, a5, 0x80003b00 <__adddf3+0x2e4>
80003ac8: 93 05 00 02  	li	a1, 32
80003acc: b3 85 f5 40  	sub	a1, a1, a5
80003ad0: b3 16 b8 00  	sll	a3, a6, a1
80003ad4: 33 53 f5 00  	srl	t1, a0, a5
80003ad8: b3 15 b5 00  	sll	a1, a0, a1
80003adc: b3 e6 66 00  	or	a3, a3, t1
80003ae0: b3 35 b0 00  	snez	a1, a1
80003ae4: b3 e6 b6 00  	or	a3, a3, a1
80003ae8: b3 57 f8 00  	srl	a5, a6, a5
80003aec: 33 86 c6 00  	add	a2, a3, a2
80003af0: b3 87 e7 00  	add	a5, a5, a4
80003af4: b3 36 d6 00  	sltu	a3, a2, a3
80003af8: 33 87 d7 00  	add	a4, a5, a3
80003afc: 6f f0 df eb  	j	0x800039b8 <__adddf3+0x19c>
80003b00: 93 86 07 fe  	addi	a3, a5, -32
80003b04: 13 03 00 02  	li	t1, 32
80003b08: b3 56 d8 00  	srl	a3, a6, a3
80003b0c: 93 05 00 00  	li	a1, 0
80003b10: 63 88 67 00  	beq	a5, t1, 0x80003b20 <__adddf3+0x304>
80003b14: 93 05 00 04  	li	a1, 64
80003b18: b3 85 f5 40  	sub	a1, a1, a5
80003b1c: b3 15 b8 00  	sll	a1, a6, a1
80003b20: b3 e5 a5 00  	or	a1, a1, a0
80003b24: b3 35 b0 00  	snez	a1, a1
80003b28: b3 e6 b6 00  	or	a3, a3, a1
80003b2c: 93 07 00 00  	li	a5, 0
80003b30: 6f f0 df fb  	j	0x80003aec <__adddf3+0x2d0>
80003b34: 93 05 14 00  	addi	a1, s0, 1
80003b38: 93 f7 e5 7f  	andi	a5, a1, 2046
80003b3c: 63 9e 07 10  	bnez	a5, 0x80003c58 <__adddf3+0x43c>
80003b40: b3 65 a8 00  	or	a1, a6, a0
80003b44: 63 10 04 04  	bnez	s0, 0x80003b84 <__adddf3+0x368>
80003b48: 63 82 05 6e  	beqz	a1, 0x8000422c <__adddf3+0xa10>
80003b4c: b3 66 c7 00  	or	a3, a4, a2
80003b50: 63 8a 06 5e  	beqz	a3, 0x80004144 <__adddf3+0x928>
80003b54: 33 06 c5 00  	add	a2, a0, a2
80003b58: b3 36 a6 00  	sltu	a3, a2, a0
80003b5c: 33 07 e8 00  	add	a4, a6, a4
80003b60: 33 08 d7 00  	add	a6, a4, a3
80003b64: 37 07 80 00  	lui	a4, 2048
80003b68: 33 77 e8 00  	and	a4, a6, a4
80003b6c: 13 05 06 00  	mv	a0, a2
80003b70: 63 0a 07 5c  	beqz	a4, 0x80004144 <__adddf3+0x928>
80003b74: 37 07 80 ff  	lui	a4, 1046528
80003b78: 13 07 f7 ff  	addi	a4, a4, -1
80003b7c: 33 77 e8 00  	and	a4, a6, a4
80003b80: 6f f0 1f d6  	j	0x800038e0 <__adddf3+0xc4>
80003b84: 93 06 f0 7f  	li	a3, 2047
80003b88: 63 1a d4 02  	bne	s0, a3, 0x80003bbc <__adddf3+0x3a0>
80003b8c: 63 96 05 00  	bnez	a1, 0x80003b98 <__adddf3+0x37c>
80003b90: e3 9c 88 ec  	bne	a7, s0, 0x80003a68 <__adddf3+0x24c>
80003b94: 6f f0 9f f0  	j	0x80003a9c <__adddf3+0x280>
80003b98: b7 06 40 00  	lui	a3, 1024
80003b9c: b3 76 d8 00  	and	a3, a6, a3
80003ba0: 33 63 c7 00  	or	t1, a4, a2
80003ba4: e3 80 06 0e  	beqz	a3, 0x80004484 <__adddf3+0xc68>
80003ba8: 63 98 88 08  	bne	a7, s0, 0x80003c38 <__adddf3+0x41c>
80003bac: 63 10 03 04  	bnez	t1, 0x80003bec <__adddf3+0x3d0>
80003bb0: 13 07 08 00  	mv	a4, a6
80003bb4: 13 06 05 00  	mv	a2, a0
80003bb8: 6f f0 df d2  	j	0x800038e4 <__adddf3+0xc8>
80003bbc: 13 04 00 00  	li	s0, 0
80003bc0: 63 96 d8 06  	bne	a7, a3, 0x80003c2c <__adddf3+0x410>
80003bc4: b3 66 c7 00  	or	a3, a4, a2
80003bc8: 63 9e 06 02  	bnez	a3, 0x80003c04 <__adddf3+0x3e8>
80003bcc: e3 92 05 fe  	bnez	a1, 0x80003bb0 <__adddf3+0x394>
80003bd0: 13 08 00 00  	li	a6, 0
80003bd4: 6f 00 10 03  	j	0x80004404 <__adddf3+0xbe8>
80003bd8: 93 57 67 01  	srli	a5, a4, 22
80003bdc: 93 c7 17 00  	xori	a5, a5, 1
80003be0: 93 f7 17 00  	andi	a5, a5, 1
80003be4: 93 97 47 00  	slli	a5, a5, 4
80003be8: 6f f0 df cf  	j	0x800038e4 <__adddf3+0xc8>
80003bec: b7 07 40 00  	lui	a5, 1024
80003bf0: b3 77 f7 00  	and	a5, a4, a5
80003bf4: 63 8e 07 04  	beqz	a5, 0x80003c50 <__adddf3+0x434>
80003bf8: 13 04 00 00  	li	s0, 0
80003bfc: 6f 00 80 01  	j	0x80003c14 <__adddf3+0x3f8>
80003c00: 13 04 00 01  	li	s0, 16
80003c04: b7 07 40 00  	lui	a5, 1024
80003c08: b3 77 f7 00  	and	a5, a4, a5
80003c0c: 63 8e 07 00  	beqz	a5, 0x80003c28 <__adddf3+0x40c>
80003c10: 63 80 05 02  	beqz	a1, 0x80003c30 <__adddf3+0x414>
80003c14: 93 04 00 00  	li	s1, 0
80003c18: 37 08 40 00  	lui	a6, 1024
80003c1c: 93 05 00 00  	li	a1, 0
80003c20: 93 08 f0 7f  	li	a7, 2047
80003c24: 6f 00 00 7e  	j	0x80004404 <__adddf3+0xbe8>
80003c28: 13 04 00 01  	li	s0, 16
80003c2c: 63 98 05 00  	bnez	a1, 0x80003c3c <__adddf3+0x420>
80003c30: 93 07 04 00  	mv	a5, s0
80003c34: 6f f0 5f e3  	j	0x80003a68 <__adddf3+0x24c>
80003c38: 13 04 00 00  	li	s0, 0
80003c3c: 33 67 c7 00  	or	a4, a4, a2
80003c40: e3 1a 07 fc  	bnez	a4, 0x80003c14 <__adddf3+0x3f8>
80003c44: 13 07 08 00  	mv	a4, a6
80003c48: 13 06 05 00  	mv	a2, a0
80003c4c: 6f f0 5f fe  	j	0x80003c30 <__adddf3+0x414>
80003c50: 13 04 00 01  	li	s0, 16
80003c54: 6f f0 9f fe  	j	0x80003c3c <__adddf3+0x420>
80003c58: 93 07 f0 7f  	li	a5, 2047
80003c5c: 63 88 f5 02  	beq	a1, a5, 0x80003c8c <__adddf3+0x470>
80003c60: 33 06 c5 00  	add	a2, a0, a2
80003c64: 33 35 a6 00  	sltu	a0, a2, a0
80003c68: 33 07 e8 00  	add	a4, a6, a4
80003c6c: 33 07 a7 00  	add	a4, a4, a0
80003c70: 93 17 f7 01  	slli	a5, a4, 31
80003c74: 13 56 16 00  	srli	a2, a2, 1
80003c78: 33 e6 c7 00  	or	a2, a5, a2
80003c7c: 13 57 17 00  	srli	a4, a4, 1
80003c80: 93 88 05 00  	mv	a7, a1
80003c84: 93 07 00 00  	li	a5, 0
80003c88: 6f f0 df c5  	j	0x800038e4 <__adddf3+0xc8>
80003c8c: 63 82 09 7c  	beqz	s3, 0x80004450 <__adddf3+0xc34>
80003c90: 93 07 30 00  	li	a5, 3
80003c94: 63 94 f9 04  	bne	s3, a5, 0x80003cdc <__adddf3+0x4c0>
80003c98: 63 8c 04 7a  	beqz	s1, 0x80004450 <__adddf3+0xc34>
80003c9c: 13 08 f0 ff  	li	a6, -1
80003ca0: 13 05 f0 ff  	li	a0, -1
80003ca4: 93 08 e0 7f  	li	a7, 2046
80003ca8: 93 07 50 00  	li	a5, 5
80003cac: 13 07 30 00  	li	a4, 3
80003cb0: 63 80 e9 72  	beq	s3, a4, 0x800043d0 <__adddf3+0xbb4>
80003cb4: 63 90 09 02  	bnez	s3, 0x80003cd4 <__adddf3+0x4b8>
80003cb8: 13 77 f5 00  	andi	a4, a0, 15
80003cbc: 13 06 40 00  	li	a2, 4
80003cc0: 63 0a c7 00  	beq	a4, a2, 0x80003cd4 <__adddf3+0x4b8>
80003cc4: 13 07 45 00  	addi	a4, a0, 4
80003cc8: 33 36 a7 00  	sltu	a2, a4, a0
80003ccc: 33 08 c8 00  	add	a6, a6, a2
80003cd0: 13 05 07 00  	mv	a0, a4
80003cd4: 63 96 06 58  	bnez	a3, 0x80004260 <__adddf3+0xa44>
80003cd8: 6f 00 00 63  	j	0x80004308 <__adddf3+0xaec>
80003cdc: 93 07 20 00  	li	a5, 2
80003ce0: 63 94 f9 00  	bne	s3, a5, 0x80003ce8 <__adddf3+0x4cc>
80003ce4: 63 96 04 76  	bnez	s1, 0x80004450 <__adddf3+0xc34>
80003ce8: 13 08 f0 ff  	li	a6, -1
80003cec: 13 05 f0 ff  	li	a0, -1
80003cf0: 93 08 e0 7f  	li	a7, 2046
80003cf4: 93 07 50 00  	li	a5, 5
80003cf8: 6f 00 00 61  	j	0x80004308 <__adddf3+0xaec>
80003cfc: 93 08 20 00  	li	a7, 2
80003d00: b7 07 80 ff  	lui	a5, 1046528
80003d04: 93 87 f7 ff  	addi	a5, a5, -1
80003d08: b3 77 f7 00  	and	a5, a4, a5
80003d0c: 13 57 16 00  	srli	a4, a2, 1
80003d10: 13 76 16 00  	andi	a2, a2, 1
80003d14: 33 67 c7 00  	or	a4, a4, a2
80003d18: 13 96 f7 01  	slli	a2, a5, 31
80003d1c: 33 66 e6 00  	or	a2, a2, a4
80003d20: 13 d7 17 00  	srli	a4, a5, 1
80003d24: 6f f0 1f f6  	j	0x80003c84 <__adddf3+0x468>
80003d28: 93 07 20 00  	li	a5, 2
80003d2c: e3 9e f9 fa  	bne	s3, a5, 0x80003ce8 <__adddf3+0x4cc>
80003d30: e3 8c 04 fa  	beqz	s1, 0x80003ce8 <__adddf3+0x4cc>
80003d34: 13 08 00 00  	li	a6, 0
80003d38: 93 05 00 00  	li	a1, 0
80003d3c: 13 04 50 00  	li	s0, 5
80003d40: 6f 00 40 6c  	j	0x80004404 <__adddf3+0xbe8>
80003d44: 63 50 b0 10  	blez	a1, 0x80003e44 <__adddf3+0x628>
80003d48: 63 94 08 04  	bnez	a7, 0x80003d90 <__adddf3+0x574>
80003d4c: b3 67 c7 00  	or	a5, a4, a2
80003d50: e3 88 07 b4  	beqz	a5, 0x800038a0 <__adddf3+0x84>
80003d54: 93 87 f5 ff  	addi	a5, a1, -1
80003d58: 63 9e 07 00  	bnez	a5, 0x80003d74 <__adddf3+0x558>
80003d5c: 33 06 c5 40  	sub	a2, a0, a2
80003d60: 33 07 e8 40  	sub	a4, a6, a4
80003d64: 33 35 c5 00  	sltu	a0, a0, a2
80003d68: 33 07 a7 40  	sub	a4, a4, a0
80003d6c: 93 08 10 00  	li	a7, 1
80003d70: 6f 00 00 08  	j	0x80003df0 <__adddf3+0x5d4>
80003d74: 93 06 f0 7f  	li	a3, 2047
80003d78: e3 86 d5 ba  	beq	a1, a3, 0x80003924 <__adddf3+0x108>
80003d7c: 93 06 80 03  	li	a3, 56
80003d80: 63 d6 f6 02  	bge	a3, a5, 0x80003dac <__adddf3+0x590>
80003d84: 93 07 00 00  	li	a5, 0
80003d88: 93 06 10 00  	li	a3, 1
80003d8c: 6f 00 c0 04  	j	0x80003dd8 <__adddf3+0x5bc>
80003d90: 93 07 f0 7f  	li	a5, 2047
80003d94: e3 0e f4 ba  	beq	s0, a5, 0x80003950 <__adddf3+0x134>
80003d98: 93 07 80 03  	li	a5, 56
80003d9c: e3 c4 b7 fe  	blt	a5, a1, 0x80003d84 <__adddf3+0x568>
80003da0: b7 07 80 00  	lui	a5, 2048
80003da4: 33 67 f7 00  	or	a4, a4, a5
80003da8: 93 87 05 00  	mv	a5, a1
80003dac: 93 06 f0 01  	li	a3, 31
80003db0: 63 c0 f6 06  	blt	a3, a5, 0x80003e10 <__adddf3+0x5f4>
80003db4: 93 05 00 02  	li	a1, 32
80003db8: b3 85 f5 40  	sub	a1, a1, a5
80003dbc: b3 16 b7 00  	sll	a3, a4, a1
80003dc0: b3 58 f6 00  	srl	a7, a2, a5
80003dc4: b3 15 b6 00  	sll	a1, a2, a1
80003dc8: b3 e6 16 01  	or	a3, a3, a7
80003dcc: b3 35 b0 00  	snez	a1, a1
80003dd0: b3 e6 b6 00  	or	a3, a3, a1
80003dd4: b3 57 f7 00  	srl	a5, a4, a5
80003dd8: b3 06 d5 40  	sub	a3, a0, a3
80003ddc: b3 07 f8 40  	sub	a5, a6, a5
80003de0: 33 37 d5 00  	sltu	a4, a0, a3
80003de4: 13 86 06 00  	mv	a2, a3
80003de8: 33 87 e7 40  	sub	a4, a5, a4
80003dec: 93 08 04 00  	mv	a7, s0
80003df0: 37 09 80 00  	lui	s2, 2048
80003df4: b3 77 27 01  	and	a5, a4, s2
80003df8: e3 86 07 e8  	beqz	a5, 0x80003c84 <__adddf3+0x468>
80003dfc: 13 09 f9 ff  	addi	s2, s2, -1
80003e00: 33 79 27 01  	and	s2, a4, s2
80003e04: 13 0a 06 00  	mv	s4, a2
80003e08: 13 84 08 00  	mv	s0, a7
80003e0c: 6f 00 00 2e  	j	0x800040ec <__adddf3+0x8d0>
80003e10: 93 86 07 fe  	addi	a3, a5, -32
80003e14: 93 08 00 02  	li	a7, 32
80003e18: b3 56 d7 00  	srl	a3, a4, a3
80003e1c: 93 05 00 00  	li	a1, 0
80003e20: 63 88 17 01  	beq	a5, a7, 0x80003e30 <__adddf3+0x614>
80003e24: 93 05 00 04  	li	a1, 64
80003e28: b3 85 f5 40  	sub	a1, a1, a5
80003e2c: b3 15 b7 00  	sll	a1, a4, a1
80003e30: b3 e5 c5 00  	or	a1, a1, a2
80003e34: b3 35 b0 00  	snez	a1, a1
80003e38: b3 e6 b6 00  	or	a3, a3, a1
80003e3c: 93 07 00 00  	li	a5, 0
80003e40: 6f f0 9f f9  	j	0x80003dd8 <__adddf3+0x5bc>
80003e44: 63 8a 05 12  	beqz	a1, 0x80003f78 <__adddf3+0x75c>
80003e48: b3 85 88 40  	sub	a1, a7, s0
80003e4c: 63 1c 04 06  	bnez	s0, 0x80003ec4 <__adddf3+0x6a8>
80003e50: b3 67 a8 00  	or	a5, a6, a0
80003e54: 63 98 07 02  	bnez	a5, 0x80003e84 <__adddf3+0x668>
80003e58: 93 07 f0 7f  	li	a5, 2047
80003e5c: 63 92 f5 3c  	bne	a1, a5, 0x80004220 <__adddf3+0xa04>
80003e60: b3 65 c7 00  	or	a1, a4, a2
80003e64: 63 80 05 60  	beqz	a1, 0x80004464 <__adddf3+0xc48>
80003e68: 93 57 67 01  	srli	a5, a4, 22
80003e6c: 93 c7 17 00  	xori	a5, a5, 1
80003e70: 93 f7 17 00  	andi	a5, a5, 1
80003e74: 93 97 47 00  	slli	a5, a5, 4
80003e78: 93 08 f0 7f  	li	a7, 2047
80003e7c: 93 84 06 00  	mv	s1, a3
80003e80: 6f f0 5f a6  	j	0x800038e4 <__adddf3+0xc8>
80003e84: 93 87 f5 ff  	addi	a5, a1, -1
80003e88: 63 90 07 02  	bnez	a5, 0x80003ea8 <__adddf3+0x68c>
80003e8c: 33 05 a6 40  	sub	a0, a2, a0
80003e90: b3 37 a6 00  	sltu	a5, a2, a0
80003e94: 33 07 07 41  	sub	a4, a4, a6
80003e98: 13 06 05 00  	mv	a2, a0
80003e9c: 33 07 f7 40  	sub	a4, a4, a5
80003ea0: 93 84 06 00  	mv	s1, a3
80003ea4: 6f f0 9f ec  	j	0x80003d6c <__adddf3+0x550>
80003ea8: 13 03 f0 7f  	li	t1, 2047
80003eac: e3 8a 65 fa  	beq	a1, t1, 0x80003e60 <__adddf3+0x644>
80003eb0: 93 05 80 03  	li	a1, 56
80003eb4: 63 d4 f5 04  	bge	a1, a5, 0x80003efc <__adddf3+0x6e0>
80003eb8: 93 07 00 00  	li	a5, 0
80003ebc: 93 05 10 00  	li	a1, 1
80003ec0: 6f 00 80 06  	j	0x80003f28 <__adddf3+0x70c>
80003ec4: 93 07 f0 7f  	li	a5, 2047
80003ec8: 63 90 f8 02  	bne	a7, a5, 0x80003ee8 <__adddf3+0x6cc>
80003ecc: b3 65 c7 00  	or	a1, a4, a2
80003ed0: 63 80 05 5a  	beqz	a1, 0x80004470 <__adddf3+0xc54>
80003ed4: 93 57 67 01  	srli	a5, a4, 22
80003ed8: 93 c7 17 00  	xori	a5, a5, 1
80003edc: 93 f7 17 00  	andi	a5, a5, 1
80003ee0: 93 97 47 00  	slli	a5, a5, 4
80003ee4: 6f f0 9f f9  	j	0x80003e7c <__adddf3+0x660>
80003ee8: 93 07 80 03  	li	a5, 56
80003eec: e3 c6 b7 fc  	blt	a5, a1, 0x80003eb8 <__adddf3+0x69c>
80003ef0: b7 07 80 00  	lui	a5, 2048
80003ef4: 33 68 f8 00  	or	a6, a6, a5
80003ef8: 93 87 05 00  	mv	a5, a1
80003efc: 93 05 f0 01  	li	a1, 31
80003f00: 63 c2 f5 04  	blt	a1, a5, 0x80003f44 <__adddf3+0x728>
80003f04: 13 03 00 02  	li	t1, 32
80003f08: 33 03 f3 40  	sub	t1, t1, a5
80003f0c: b3 15 68 00  	sll	a1, a6, t1
80003f10: 33 5e f5 00  	srl	t3, a0, a5
80003f14: 33 13 65 00  	sll	t1, a0, t1
80003f18: b3 e5 c5 01  	or	a1, a1, t3
80003f1c: 33 33 60 00  	snez	t1, t1
80003f20: b3 e5 65 00  	or	a1, a1, t1
80003f24: b3 57 f8 00  	srl	a5, a6, a5
80003f28: b3 05 b6 40  	sub	a1, a2, a1
80003f2c: 33 35 b6 00  	sltu	a0, a2, a1
80003f30: b3 07 f7 40  	sub	a5, a4, a5
80003f34: 13 86 05 00  	mv	a2, a1
80003f38: 33 87 a7 40  	sub	a4, a5, a0
80003f3c: 93 84 06 00  	mv	s1, a3
80003f40: 6f f0 1f eb  	j	0x80003df0 <__adddf3+0x5d4>
80003f44: 93 85 07 fe  	addi	a1, a5, -32
80003f48: 13 0e 00 02  	li	t3, 32
80003f4c: b3 55 b8 00  	srl	a1, a6, a1
80003f50: 13 03 00 00  	li	t1, 0
80003f54: 63 88 c7 01  	beq	a5, t3, 0x80003f64 <__adddf3+0x748>
80003f58: 13 03 00 04  	li	t1, 64
80003f5c: 33 03 f3 40  	sub	t1, t1, a5
80003f60: 33 13 68 00  	sll	t1, a6, t1
80003f64: 33 63 a3 00  	or	t1, t1, a0
80003f68: 33 33 60 00  	snez	t1, t1
80003f6c: b3 e5 65 00  	or	a1, a1, t1
80003f70: 93 07 00 00  	li	a5, 0
80003f74: 6f f0 5f fb  	j	0x80003f28 <__adddf3+0x70c>
80003f78: 93 07 14 00  	addi	a5, s0, 1
80003f7c: 93 f7 e7 7f  	andi	a5, a5, 2046
80003f80: 63 9c 07 12  	bnez	a5, 0x800040b8 <__adddf3+0x89c>
80003f84: 33 63 a8 00  	or	t1, a6, a0
80003f88: b3 65 c7 00  	or	a1, a4, a2
80003f8c: 63 1a 04 06  	bnez	s0, 0x80004000 <__adddf3+0x7e4>
80003f90: 63 12 03 02  	bnez	t1, 0x80003fb4 <__adddf3+0x798>
80003f94: 63 92 05 2a  	bnez	a1, 0x80004238 <__adddf3+0xa1c>
80003f98: 93 84 e9 ff  	addi	s1, s3, -2
80003f9c: 93 b4 14 00  	seqz	s1, s1
80003fa0: 13 08 00 00  	li	a6, 0
80003fa4: 93 05 00 00  	li	a1, 0
80003fa8: 93 08 00 00  	li	a7, 0
80003fac: 13 04 00 00  	li	s0, 0
80003fb0: 6f 00 40 45  	j	0x80004404 <__adddf3+0xbe8>
80003fb4: 63 88 05 18  	beqz	a1, 0x80004144 <__adddf3+0x928>
80003fb8: b3 05 c5 40  	sub	a1, a0, a2
80003fbc: b3 38 b5 00  	sltu	a7, a0, a1
80003fc0: b3 07 e8 40  	sub	a5, a6, a4
80003fc4: b3 87 17 41  	sub	a5, a5, a7
80003fc8: b7 08 80 00  	lui	a7, 2048
80003fcc: b3 f8 17 01  	and	a7, a5, a7
80003fd0: 63 8e 08 00  	beqz	a7, 0x80003fec <__adddf3+0x7d0>
80003fd4: 33 05 a6 40  	sub	a0, a2, a0
80003fd8: 33 07 07 41  	sub	a4, a4, a6
80003fdc: 33 36 a6 00  	sltu	a2, a2, a0
80003fe0: 33 08 c7 40  	sub	a6, a4, a2
80003fe4: 93 84 06 00  	mv	s1, a3
80003fe8: 6f 00 c0 15  	j	0x80004144 <__adddf3+0x928>
80003fec: 33 e7 f5 00  	or	a4, a1, a5
80003ff0: e3 04 07 fa  	beqz	a4, 0x80003f98 <__adddf3+0x77c>
80003ff4: 13 88 07 00  	mv	a6, a5
80003ff8: 13 85 05 00  	mv	a0, a1
80003ffc: 6f 00 80 14  	j	0x80004144 <__adddf3+0x928>
80004000: 13 0e f0 7f  	li	t3, 2047
80004004: 63 14 c4 05  	bne	s0, t3, 0x8000404c <__adddf3+0x830>
80004008: 63 1e 03 00  	bnez	t1, 0x80004024 <__adddf3+0x808>
8000400c: 63 9e 88 08  	bne	a7, s0, 0x800040a8 <__adddf3+0x88c>
80004010: 63 98 05 04  	bnez	a1, 0x80004060 <__adddf3+0x844>
80004014: 93 04 00 00  	li	s1, 0
80004018: 37 08 40 00  	lui	a6, 1024
8000401c: 13 04 00 01  	li	s0, 16
80004020: 6f 00 40 3e  	j	0x80004404 <__adddf3+0xbe8>
80004024: b7 06 40 00  	lui	a3, 1024
80004028: b3 76 d8 00  	and	a3, a6, a3
8000402c: 63 88 06 46  	beqz	a3, 0x8000449c <__adddf3+0xc80>
80004030: 63 90 88 08  	bne	a7, s0, 0x800040b0 <__adddf3+0x894>
80004034: e3 84 05 90  	beqz	a1, 0x8000393c <__adddf3+0x120>
80004038: b7 07 40 00  	lui	a5, 1024
8000403c: b3 77 f7 00  	and	a5, a4, a5
80004040: e3 9c 07 ba  	bnez	a5, 0x80003bf8 <__adddf3+0x3dc>
80004044: 13 04 00 01  	li	s0, 16
80004048: 6f 00 00 47  	j	0x800044b8 <__adddf3+0xc9c>
8000404c: 13 04 00 00  	li	s0, 0
80004050: 63 9e c8 03  	bne	a7, t3, 0x8000408c <__adddf3+0x870>
80004054: 63 90 05 02  	bnez	a1, 0x80004074 <__adddf3+0x858>
80004058: e3 12 03 8e  	bnez	t1, 0x8000393c <__adddf3+0x120>
8000405c: 6f f0 9f fb  	j	0x80004014 <__adddf3+0x7f8>
80004060: 37 05 40 00  	lui	a0, 1024
80004064: 33 75 a7 00  	and	a0, a4, a0
80004068: e3 1a 05 e0  	bnez	a0, 0x80003e7c <__adddf3+0x660>
8000406c: 13 04 00 01  	li	s0, 16
80004070: 6f 00 00 02  	j	0x80004090 <__adddf3+0x874>
80004074: 37 0e 40 00  	lui	t3, 1024
80004078: 33 7e c7 01  	and	t3, a4, t3
8000407c: 63 06 0e 00  	beqz	t3, 0x80004088 <__adddf3+0x86c>
80004080: e3 1c 03 b6  	bnez	t1, 0x80003bf8 <__adddf3+0x3dc>
80004084: 6f f0 9f df  	j	0x80003e7c <__adddf3+0x660>
80004088: 13 04 00 01  	li	s0, 16
8000408c: 63 16 03 42  	bnez	t1, 0x800044b8 <__adddf3+0xc9c>
80004090: 93 84 06 00  	mv	s1, a3
80004094: e3 9e 05 b8  	bnez	a1, 0x80003c30 <__adddf3+0x414>
80004098: 93 04 00 00  	li	s1, 0
8000409c: 37 08 40 00  	lui	a6, 1024
800040a0: 93 08 f0 7f  	li	a7, 2047
800040a4: 6f f0 9f f7  	j	0x8000401c <__adddf3+0x800>
800040a8: 13 04 00 00  	li	s0, 0
800040ac: 6f f0 5f fe  	j	0x80004090 <__adddf3+0x874>
800040b0: 13 04 00 00  	li	s0, 0
800040b4: 6f 00 40 40  	j	0x800044b8 <__adddf3+0xc9c>
800040b8: b3 07 c5 40  	sub	a5, a0, a2
800040bc: b3 35 f5 00  	sltu	a1, a0, a5
800040c0: 33 09 e8 40  	sub	s2, a6, a4
800040c4: 33 09 b9 40  	sub	s2, s2, a1
800040c8: b7 05 80 00  	lui	a1, 2048
800040cc: b3 75 b9 00  	and	a1, s2, a1
800040d0: 13 8a 07 00  	mv	s4, a5
800040d4: 63 86 05 0c  	beqz	a1, 0x800041a0 <__adddf3+0x984>
800040d8: 33 0a a6 40  	sub	s4, a2, a0
800040dc: 33 09 07 41  	sub	s2, a4, a6
800040e0: 33 36 46 01  	sltu	a2, a2, s4
800040e4: 33 09 c9 40  	sub	s2, s2, a2
800040e8: 93 84 06 00  	mv	s1, a3
800040ec: 63 00 09 0c  	beqz	s2, 0x800041ac <__adddf3+0x990>
800040f0: 13 05 09 00  	mv	a0, s2
800040f4: ef 20 00 6b  	jal	0x800067a4 <__clzsi2>
800040f8: 93 07 85 ff  	addi	a5, a0, -8
800040fc: 13 07 00 02  	li	a4, 32
80004100: 33 07 f7 40  	sub	a4, a4, a5
80004104: 33 19 f9 00  	sll	s2, s2, a5
80004108: 33 57 ea 00  	srl	a4, s4, a4
8000410c: 33 67 27 01  	or	a4, a4, s2
80004110: 33 19 fa 00  	sll	s2, s4, a5
80004114: 63 ca 87 0e  	blt	a5, s0, 0x80004208 <__adddf3+0x9ec>
80004118: b3 87 87 40  	sub	a5, a5, s0
8000411c: 13 88 17 00  	addi	a6, a5, 1
80004120: 93 07 00 02  	li	a5, 32
80004124: b3 87 07 41  	sub	a5, a5, a6
80004128: 33 15 f7 00  	sll	a0, a4, a5
8000412c: b3 56 09 01  	srl	a3, s2, a6
80004130: b3 17 f9 00  	sll	a5, s2, a5
80004134: 33 65 d5 00  	or	a0, a0, a3
80004138: b3 37 f0 00  	snez	a5, a5
8000413c: 33 65 f5 00  	or	a0, a0, a5
80004140: 33 58 07 01  	srl	a6, a4, a6
80004144: b3 67 05 01  	or	a5, a0, a6
80004148: e3 8c 07 e4  	beqz	a5, 0x80003fa0 <__adddf3+0x784>
8000414c: 93 57 f5 01  	srli	a5, a0, 31
80004150: 13 17 18 00  	slli	a4, a6, 1
80004154: 33 07 f7 00  	add	a4, a4, a5
80004158: 93 17 15 00  	slli	a5, a0, 1
8000415c: 13 f6 77 00  	andi	a2, a5, 7
80004160: 93 76 75 00  	andi	a3, a0, 7
80004164: 63 06 06 18  	beqz	a2, 0x800042f0 <__adddf3+0xad4>
80004168: 13 06 20 00  	li	a2, 2
8000416c: 63 82 c9 12  	beq	s3, a2, 0x80004290 <__adddf3+0xa74>
80004170: 13 06 30 00  	li	a2, 3
80004174: 63 88 c9 0c  	beq	s3, a2, 0x80004244 <__adddf3+0xa28>
80004178: 63 9e 09 14  	bnez	s3, 0x800042d4 <__adddf3+0xab8>
8000417c: 13 f6 f7 00  	andi	a2, a5, 15
80004180: 93 05 40 00  	li	a1, 4
80004184: 93 b7 c7 ff  	sltiu	a5, a5, -4
80004188: 63 12 b6 0e  	bne	a2, a1, 0x8000426c <__adddf3+0xa50>
8000418c: b7 07 00 01  	lui	a5, 4096
80004190: 33 77 f7 00  	and	a4, a4, a5
80004194: 63 06 07 0e  	beqz	a4, 0x80004280 <__adddf3+0xa64>
80004198: 93 07 10 00  	li	a5, 1
8000419c: 6f 00 80 1f  	j	0x80004394 <__adddf3+0xb78>
800041a0: b3 e7 27 01  	or	a5, a5, s2
800041a4: e3 94 07 f4  	bnez	a5, 0x800040ec <__adddf3+0x8d0>
800041a8: 6f f0 1f df  	j	0x80003f98 <__adddf3+0x77c>
800041ac: 13 05 0a 00  	mv	a0, s4
800041b0: ef 20 40 5f  	jal	0x800067a4 <__clzsi2>
800041b4: 93 07 85 01  	addi	a5, a0, 24
800041b8: 93 06 f0 01  	li	a3, 31
800041bc: e3 d0 f6 f4  	bge	a3, a5, 0x800040fc <__adddf3+0x8e0>
800041c0: 13 07 85 ff  	addi	a4, a0, -8
800041c4: 33 17 ea 00  	sll	a4, s4, a4
800041c8: 63 c0 87 04  	blt	a5, s0, 0x80004208 <__adddf3+0x9ec>
800041cc: b3 87 87 40  	sub	a5, a5, s0
800041d0: 13 88 17 00  	addi	a6, a5, 1
800041d4: e3 d6 06 f5  	bge	a3, a6, 0x80004120 <__adddf3+0x904>
800041d8: 93 87 17 fe  	addi	a5, a5, -31
800041dc: 93 06 00 02  	li	a3, 32
800041e0: b3 57 f7 00  	srl	a5, a4, a5
800041e4: 13 05 00 00  	li	a0, 0
800041e8: 63 08 d8 00  	beq	a6, a3, 0x800041f8 <__adddf3+0x9dc>
800041ec: 13 05 00 04  	li	a0, 64
800041f0: 33 05 05 41  	sub	a0, a0, a6
800041f4: 33 15 a7 00  	sll	a0, a4, a0
800041f8: 33 35 a0 00  	snez	a0, a0
800041fc: 33 65 f5 00  	or	a0, a0, a5
80004200: 13 08 00 00  	li	a6, 0
80004204: 6f f0 1f f4  	j	0x80004144 <__adddf3+0x928>
80004208: b3 08 f4 40  	sub	a7, s0, a5
8000420c: b7 07 80 ff  	lui	a5, 1046528
80004210: 93 87 f7 ff  	addi	a5, a5, -1
80004214: 33 77 f7 00  	and	a4, a4, a5
80004218: 13 06 09 00  	mv	a2, s2
8000421c: 6f f0 9f a6  	j	0x80003c84 <__adddf3+0x468>
80004220: 93 88 05 00  	mv	a7, a1
80004224: 93 84 06 00  	mv	s1, a3
80004228: 6f f0 df a5  	j	0x80003c84 <__adddf3+0x468>
8000422c: 13 08 07 00  	mv	a6, a4
80004230: 13 05 06 00  	mv	a0, a2
80004234: 6f f0 1f f1  	j	0x80004144 <__adddf3+0x928>
80004238: 13 08 07 00  	mv	a6, a4
8000423c: 13 05 06 00  	mv	a0, a2
80004240: 6f f0 5f da  	j	0x80003fe4 <__adddf3+0x7c8>
80004244: 63 82 04 02  	beqz	s1, 0x80004268 <__adddf3+0xa4c>
80004248: b7 07 00 01  	lui	a5, 4096
8000424c: 33 77 f7 00  	and	a4, a4, a5
80004250: 63 10 07 14  	bnez	a4, 0x80004390 <__adddf3+0xb74>
80004254: 63 90 06 16  	bnez	a3, 0x800043b4 <__adddf3+0xb98>
80004258: 93 87 04 00  	mv	a5, s1
8000425c: 93 08 00 00  	li	a7, 0
80004260: 93 e7 27 00  	ori	a5, a5, 2
80004264: 6f 00 40 0a  	j	0x80004308 <__adddf3+0xaec>
80004268: 93 b7 87 ff  	sltiu	a5, a5, -8
8000426c: 93 c7 17 00  	xori	a5, a5, 1
80004270: b3 87 e7 00  	add	a5, a5, a4
80004274: 37 07 00 01  	lui	a4, 4096
80004278: b3 f7 e7 00  	and	a5, a5, a4
8000427c: e3 9e 07 f0  	bnez	a5, 0x80004198 <__adddf3+0x97c>
80004280: 93 08 00 00  	li	a7, 0
80004284: 63 90 06 14  	bnez	a3, 0x800043c4 <__adddf3+0xba8>
80004288: 93 07 10 00  	li	a5, 1
8000428c: 6f f0 5f fd  	j	0x80004260 <__adddf3+0xa44>
80004290: 63 9c 04 00  	bnez	s1, 0x800042a8 <__adddf3+0xa8c>
80004294: b7 07 00 01  	lui	a5, 4096
80004298: 33 77 f7 00  	and	a4, a4, a5
8000429c: e3 1e 07 ee  	bnez	a4, 0x80004198 <__adddf3+0x97c>
800042a0: 93 08 00 00  	li	a7, 0
800042a4: 6f f0 5f fe  	j	0x80004288 <__adddf3+0xa6c>
800042a8: 93 b7 87 ff  	sltiu	a5, a5, -8
800042ac: 93 c7 17 00  	xori	a5, a5, 1
800042b0: b3 87 e7 00  	add	a5, a5, a4
800042b4: 37 07 00 01  	lui	a4, 4096
800042b8: b3 f7 e7 00  	and	a5, a5, a4
800042bc: 63 9a 07 0c  	bnez	a5, 0x80004390 <__adddf3+0xb74>
800042c0: e3 8c 06 f8  	beqz	a3, 0x80004258 <__adddf3+0xa3c>
800042c4: 93 86 04 00  	mv	a3, s1
800042c8: 93 87 04 00  	mv	a5, s1
800042cc: 93 08 00 00  	li	a7, 0
800042d0: 6f f0 4f e3  	j	0x80003904 <__adddf3+0xe8>
800042d4: b7 07 00 01  	lui	a5, 4096
800042d8: 33 77 f7 00  	and	a4, a4, a5
800042dc: e3 1e 07 ea  	bnez	a4, 0x80004198 <__adddf3+0x97c>
800042e0: e3 80 06 fc  	beqz	a3, 0x800042a0 <__adddf3+0xa84>
800042e4: 93 06 10 00  	li	a3, 1
800042e8: 93 08 00 00  	li	a7, 0
800042ec: 6f 00 c0 0d  	j	0x800043c8 <__adddf3+0xbac>
800042f0: b7 07 00 01  	lui	a5, 4096
800042f4: 33 77 f7 00  	and	a4, a4, a5
800042f8: 63 12 07 0a  	bnez	a4, 0x8000439c <__adddf3+0xb80>
800042fc: 63 94 06 0a  	bnez	a3, 0x800043a4 <__adddf3+0xb88>
80004300: 93 08 00 00  	li	a7, 0
80004304: 93 07 00 00  	li	a5, 0
80004308: 37 07 80 00  	lui	a4, 2048
8000430c: 33 77 e8 00  	and	a4, a6, a4
80004310: 63 04 07 16  	beqz	a4, 0x80004478 <__adddf3+0xc5c>
80004314: 93 88 18 00  	addi	a7, a7, 1
80004318: 13 07 f0 7f  	li	a4, 2047
8000431c: 63 86 e8 0c  	beq	a7, a4, 0x800043e8 <__adddf3+0xbcc>
80004320: 37 07 80 ff  	lui	a4, 1046528
80004324: 13 07 f7 ff  	addi	a4, a4, -1
80004328: 33 77 e8 00  	and	a4, a6, a4
8000432c: 93 15 d7 01  	slli	a1, a4, 29
80004330: 13 55 35 00  	srli	a0, a0, 3
80004334: b3 e5 a5 00  	or	a1, a1, a0
80004338: 13 57 37 00  	srli	a4, a4, 3
8000433c: 13 84 07 00  	mv	s0, a5
80004340: 93 97 48 01  	slli	a5, a7, 20
80004344: b7 06 f0 7f  	lui	a3, 524032
80004348: 13 17 c7 00  	slli	a4, a4, 12
8000434c: 13 57 c7 00  	srli	a4, a4, 12
80004350: b3 f7 d7 00  	and	a5, a5, a3
80004354: b3 e7 e7 00  	or	a5, a5, a4
80004358: 93 94 f4 01  	slli	s1, s1, 31
8000435c: 33 e7 97 00  	or	a4, a5, s1
80004360: 13 85 05 00  	mv	a0, a1
80004364: 93 05 07 00  	mv	a1, a4
80004368: 63 04 04 00  	beqz	s0, 0x80004370 <__adddf3+0xb54>
8000436c: 73 20 14 00  	csrs	fflags, s0
80004370: 83 20 c1 01  	lw	ra, 28(sp)
80004374: 03 24 81 01  	lw	s0, 24(sp)
80004378: 83 24 41 01  	lw	s1, 20(sp)
8000437c: 03 29 01 01  	lw	s2, 16(sp)
80004380: 83 29 c1 00  	lw	s3, 12(sp)
80004384: 03 2a 81 00  	lw	s4, 8(sp)
80004388: 13 01 01 02  	addi	sp, sp, 32
8000438c: 67 80 00 00  	ret
80004390: 93 87 04 00  	mv	a5, s1
80004394: 93 08 00 00  	li	a7, 0
80004398: 6f f0 8f d5  	j	0x800038f0 <__adddf3+0xd4>
8000439c: 93 07 00 00  	li	a5, 0
800043a0: 6f f0 5f ff  	j	0x80004394 <__adddf3+0xb78>
800043a4: 93 06 10 00  	li	a3, 1
800043a8: 93 08 00 00  	li	a7, 0
800043ac: 93 07 00 00  	li	a5, 0
800043b0: 6f f0 8f d4  	j	0x800038f8 <__adddf3+0xdc>
800043b4: 93 86 04 00  	mv	a3, s1
800043b8: 93 87 04 00  	mv	a5, s1
800043bc: 93 08 00 00  	li	a7, 0
800043c0: 6f f0 df 8e  	j	0x80003cac <__adddf3+0x490>
800043c4: 93 06 10 00  	li	a3, 1
800043c8: 93 07 10 00  	li	a5, 1
800043cc: 6f f0 1f 8e  	j	0x80003cac <__adddf3+0x490>
800043d0: 63 88 04 00  	beqz	s1, 0x800043e0 <__adddf3+0xbc4>
800043d4: e3 8a 06 f2  	beqz	a3, 0x80004308 <__adddf3+0xaec>
800043d8: 93 84 06 00  	mv	s1, a3
800043dc: 6f f0 5f e8  	j	0x80004260 <__adddf3+0xa44>
800043e0: 13 07 85 00  	addi	a4, a0, 8
800043e4: 6f f0 5f 8e  	j	0x80003cc8 <__adddf3+0x4ac>
800043e8: 93 05 00 00  	li	a1, 0
800043ec: 63 88 09 00  	beqz	s3, 0x800043fc <__adddf3+0xbe0>
800043f0: 13 07 30 00  	li	a4, 3
800043f4: 63 92 e9 04  	bne	s3, a4, 0x80004438 <__adddf3+0xc1c>
800043f8: 63 96 04 04  	bnez	s1, 0x80004444 <__adddf3+0xc28>
800043fc: 13 e4 57 00  	ori	s0, a5, 5
80004400: 13 88 05 00  	mv	a6, a1
80004404: 93 17 d8 01  	slli	a5, a6, 29
80004408: 93 d5 35 00  	srli	a1, a1, 3
8000440c: b3 e5 b7 00  	or	a1, a5, a1
80004410: 93 07 f0 7f  	li	a5, 2047
80004414: 13 57 38 00  	srli	a4, a6, 3
80004418: e3 94 f8 f2  	bne	a7, a5, 0x80004340 <__adddf3+0xb24>
8000441c: b3 e5 e5 00  	or	a1, a1, a4
80004420: 13 07 00 00  	li	a4, 0
80004424: e3 8e 05 f0  	beqz	a1, 0x80004340 <__adddf3+0xb24>
80004428: 37 07 08 00  	lui	a4, 128
8000442c: 93 05 00 00  	li	a1, 0
80004430: 93 04 00 00  	li	s1, 0
80004434: 6f f0 df f0  	j	0x80004340 <__adddf3+0xb24>
80004438: 13 07 20 00  	li	a4, 2
8000443c: 63 94 e9 00  	bne	s3, a4, 0x80004444 <__adddf3+0xc28>
80004440: e3 9e 04 fa  	bnez	s1, 0x800043fc <__adddf3+0xbe0>
80004444: 93 05 f0 ff  	li	a1, -1
80004448: 93 08 e0 7f  	li	a7, 2046
8000444c: 6f f0 1f fb  	j	0x800043fc <__adddf3+0xbe0>
80004450: 93 08 f0 7f  	li	a7, 2047
80004454: 6f f0 1f 8e  	j	0x80003d34 <__adddf3+0x518>
80004458: 13 08 00 00  	li	a6, 0
8000445c: 13 04 00 00  	li	s0, 0
80004460: 6f f0 0f fc  	j	0x80003c20 <__adddf3+0x404>
80004464: 93 84 06 00  	mv	s1, a3
80004468: 13 08 00 00  	li	a6, 0
8000446c: 6f f0 4f fb  	j	0x80003c20 <__adddf3+0x404>
80004470: 93 84 06 00  	mv	s1, a3
80004474: 6f f0 0f e3  	j	0x80003aa4 <__adddf3+0x288>
80004478: 93 05 05 00  	mv	a1, a0
8000447c: 13 84 07 00  	mv	s0, a5
80004480: 6f f0 5f f8  	j	0x80004404 <__adddf3+0xbe8>
80004484: 63 96 88 fc  	bne	a7, s0, 0x80003c50 <__adddf3+0x434>
80004488: 63 1c 03 f6  	bnez	t1, 0x80003c00 <__adddf3+0x3e4>
8000448c: 13 07 08 00  	mv	a4, a6
80004490: 13 06 05 00  	mv	a2, a0
80004494: 93 07 00 01  	li	a5, 16
80004498: 6f f0 cf c4  	j	0x800038e4 <__adddf3+0xc8>
8000449c: e3 94 88 ba  	bne	a7, s0, 0x80004044 <__adddf3+0x828>
800044a0: 93 07 00 01  	li	a5, 16
800044a4: 63 8c 05 c8  	beqz	a1, 0x8000393c <__adddf3+0x120>
800044a8: b7 07 40 00  	lui	a5, 1024
800044ac: b3 77 f7 00  	and	a5, a4, a5
800044b0: 13 04 00 01  	li	s0, 16
800044b4: 63 90 07 f6  	bnez	a5, 0x80003c14 <__adddf3+0x3f8>
800044b8: 63 9e 05 f4  	bnez	a1, 0x80003c14 <__adddf3+0x3f8>
800044bc: 6f f0 8f f8  	j	0x80003c44 <__adddf3+0x428>

800044c0 <__divdf3>:
800044c0: 13 01 01 fd  	addi	sp, sp, -48
800044c4: 23 24 81 02  	sw	s0, 40(sp)
800044c8: 23 2a 51 01  	sw	s5, 20(sp)
800044cc: 23 22 91 01  	sw	s9, 4(sp)
800044d0: 23 26 11 02  	sw	ra, 44(sp)
800044d4: 23 22 91 02  	sw	s1, 36(sp)
800044d8: 23 20 21 03  	sw	s2, 32(sp)
800044dc: 23 2e 31 01  	sw	s3, 28(sp)
800044e0: 23 2c 41 01  	sw	s4, 24(sp)
800044e4: 23 28 61 01  	sw	s6, 16(sp)
800044e8: 23 26 71 01  	sw	s7, 12(sp)
800044ec: 23 24 81 01  	sw	s8, 8(sp)
800044f0: 13 04 05 00  	mv	s0, a0
800044f4: 93 0c 06 00  	mv	s9, a2
800044f8: 93 8a 06 00  	mv	s5, a3
800044fc: f3 24 20 00  	frrm	s1
80004500: 13 d8 45 01  	srli	a6, a1, 20
80004504: 13 99 c5 00  	slli	s2, a1, 12
80004508: 13 78 f8 7f  	andi	a6, a6, 2047
8000450c: 13 59 c9 00  	srli	s2, s2, 12
80004510: 13 da f5 01  	srli	s4, a1, 31
80004514: 63 0a 08 02  	beqz	a6, 0x80004548 <__divdf3+0x88>
80004518: 93 07 f0 7f  	li	a5, 2047
8000451c: 63 0a f8 08  	beq	a6, a5, 0x800045b0 <__divdf3+0xf0>
80004520: 13 5b d5 01  	srli	s6, a0, 29
80004524: 13 19 39 00  	slli	s2, s2, 3
80004528: 33 6b 2b 01  	or	s6, s6, s2
8000452c: b7 07 80 00  	lui	a5, 2048
80004530: 33 6b fb 00  	or	s6, s6, a5
80004534: 93 19 35 00  	slli	s3, a0, 3
80004538: 13 0c 18 c0  	addi	s8, a6, -1023
8000453c: 93 0b 00 00  	li	s7, 0
80004540: 13 04 00 00  	li	s0, 0
80004544: 6f 00 00 09  	j	0x800045d4 <__divdf3+0x114>
80004548: 33 6b a9 00  	or	s6, s2, a0
8000454c: 63 02 0b 10  	beqz	s6, 0x80004650 <__divdf3+0x190>
80004550: 63 0e 09 02  	beqz	s2, 0x8000458c <__divdf3+0xcc>
80004554: 13 05 09 00  	mv	a0, s2
80004558: ef 20 c0 24  	jal	0x800067a4 <__clzsi2>
8000455c: 93 07 55 ff  	addi	a5, a0, -11
80004560: 13 0b d0 01  	li	s6, 29
80004564: 13 07 85 ff  	addi	a4, a0, -8
80004568: 33 0b fb 40  	sub	s6, s6, a5
8000456c: 33 19 e9 00  	sll	s2, s2, a4
80004570: 33 5b 64 01  	srl	s6, s0, s6
80004574: 33 6b 2b 01  	or	s6, s6, s2
80004578: 33 19 e4 00  	sll	s2, s0, a4
8000457c: 13 08 d0 c0  	li	a6, -1011
80004580: 33 0c a8 40  	sub	s8, a6, a0
80004584: 93 09 09 00  	mv	s3, s2
80004588: 6f f0 5f fb  	j	0x8000453c <__divdf3+0x7c>
8000458c: ef 20 80 21  	jal	0x800067a4 <__clzsi2>
80004590: 13 0b 05 00  	mv	s6, a0
80004594: 93 07 5b 01  	addi	a5, s6, 21
80004598: 13 07 c0 01  	li	a4, 28
8000459c: 13 05 05 02  	addi	a0, a0, 32
800045a0: e3 50 f7 fc  	bge	a4, a5, 0x80004560 <__divdf3+0xa0>
800045a4: 13 0b 8b ff  	addi	s6, s6, -8
800045a8: 33 1b 64 01  	sll	s6, s0, s6
800045ac: 6f f0 1f fd  	j	0x8000457c <__divdf3+0xbc>
800045b0: 33 6b a9 00  	or	s6, s2, a0
800045b4: 63 06 0b 0a  	beqz	s6, 0x80004660 <__divdf3+0x1a0>
800045b8: 37 04 08 00  	lui	s0, 128
800045bc: 33 34 89 00  	sltu	s0, s2, s0
800045c0: 93 09 05 00  	mv	s3, a0
800045c4: 13 14 44 00  	slli	s0, s0, 4
800045c8: 13 0b 09 00  	mv	s6, s2
800045cc: 13 0c f0 7f  	li	s8, 2047
800045d0: 93 0b 30 00  	li	s7, 3
800045d4: 13 d7 4a 01  	srli	a4, s5, 20
800045d8: 13 99 ca 00  	slli	s2, s5, 12
800045dc: 13 77 f7 7f  	andi	a4, a4, 2047
800045e0: 93 87 0c 00  	mv	a5, s9
800045e4: 13 59 c9 00  	srli	s2, s2, 12
800045e8: 93 da fa 01  	srli	s5, s5, 31
800045ec: 63 02 07 08  	beqz	a4, 0x80004670 <__divdf3+0x1b0>
800045f0: 93 06 f0 7f  	li	a3, 2047
800045f4: 63 06 d7 0e  	beq	a4, a3, 0x800046e0 <__divdf3+0x220>
800045f8: 13 19 39 00  	slli	s2, s2, 3
800045fc: 93 d7 dc 01  	srli	a5, s9, 29
80004600: b3 e7 27 01  	or	a5, a5, s2
80004604: 37 09 80 00  	lui	s2, 2048
80004608: 33 e9 27 01  	or	s2, a5, s2
8000460c: 93 06 17 c0  	addi	a3, a4, -1023
80004610: 93 97 3c 00  	slli	a5, s9, 3
80004614: 93 05 00 00  	li	a1, 0
80004618: 13 97 2b 00  	slli	a4, s7, 2
8000461c: 33 67 b7 00  	or	a4, a4, a1
80004620: 33 08 dc 40  	sub	a6, s8, a3
80004624: 13 07 f7 ff  	addi	a4, a4, -1
80004628: 93 06 e0 00  	li	a3, 14
8000462c: 33 46 5a 01  	xor	a2, s4, s5
80004630: 63 ec e6 0e  	bltu	a3, a4, 0x80004728 <__divdf3+0x268>
80004634: 97 26 00 00  	auipc	a3, 2
80004638: 93 86 c6 58  	addi	a3, a3, 1420
8000463c: 13 17 27 00  	slli	a4, a4, 2
80004640: 33 07 d7 00  	add	a4, a4, a3
80004644: 03 27 07 00  	lw	a4, 0(a4)
80004648: 33 07 d7 00  	add	a4, a4, a3
8000464c: 67 00 07 00  	jr	a4
80004650: 93 09 00 00  	li	s3, 0
80004654: 13 0c 00 00  	li	s8, 0
80004658: 93 0b 10 00  	li	s7, 1
8000465c: 6f f0 5f ee  	j	0x80004540 <__divdf3+0x80>
80004660: 93 09 00 00  	li	s3, 0
80004664: 13 0c f0 7f  	li	s8, 2047
80004668: 93 0b 20 00  	li	s7, 2
8000466c: 6f f0 5f ed  	j	0x80004540 <__divdf3+0x80>
80004670: b3 67 99 01  	or	a5, s2, s9
80004674: 63 86 07 08  	beqz	a5, 0x80004700 <__divdf3+0x240>
80004678: 63 00 09 04  	beqz	s2, 0x800046b8 <__divdf3+0x1f8>
8000467c: 13 05 09 00  	mv	a0, s2
80004680: ef 20 40 12  	jal	0x800067a4 <__clzsi2>
80004684: 93 06 55 ff  	addi	a3, a0, -11
80004688: 13 07 d0 01  	li	a4, 29
8000468c: 93 07 85 ff  	addi	a5, a0, -8
80004690: 33 07 d7 40  	sub	a4, a4, a3
80004694: 33 19 f9 00  	sll	s2, s2, a5
80004698: 33 d7 ec 00  	srl	a4, s9, a4
8000469c: 33 67 27 01  	or	a4, a4, s2
800046a0: 33 99 fc 00  	sll	s2, s9, a5
800046a4: 93 06 d0 c0  	li	a3, -1011
800046a8: 93 07 09 00  	mv	a5, s2
800046ac: b3 86 a6 40  	sub	a3, a3, a0
800046b0: 13 09 07 00  	mv	s2, a4
800046b4: 6f f0 1f f6  	j	0x80004614 <__divdf3+0x154>
800046b8: 13 85 0c 00  	mv	a0, s9
800046bc: ef 20 80 0e  	jal	0x800067a4 <__clzsi2>
800046c0: 93 07 05 00  	mv	a5, a0
800046c4: 93 86 57 01  	addi	a3, a5, 21
800046c8: 13 07 c0 01  	li	a4, 28
800046cc: 13 05 05 02  	addi	a0, a0, 32
800046d0: e3 5c d7 fa  	bge	a4, a3, 0x80004688 <__divdf3+0x1c8>
800046d4: 93 87 87 ff  	addi	a5, a5, -8
800046d8: 33 97 fc 00  	sll	a4, s9, a5
800046dc: 6f f0 9f fc  	j	0x800046a4 <__divdf3+0x1e4>
800046e0: 33 66 99 01  	or	a2, s2, s9
800046e4: 63 08 06 02  	beqz	a2, 0x80004714 <__divdf3+0x254>
800046e8: 37 07 08 00  	lui	a4, 128
800046ec: 93 06 f0 7f  	li	a3, 2047
800046f0: 93 05 30 00  	li	a1, 3
800046f4: e3 72 e9 f2  	bgeu	s2, a4, 0x80004618 <__divdf3+0x158>
800046f8: 13 04 00 01  	li	s0, 16
800046fc: 6f f0 df f1  	j	0x80004618 <__divdf3+0x158>
80004700: 13 09 00 00  	li	s2, 0
80004704: 93 07 00 00  	li	a5, 0
80004708: 93 06 00 00  	li	a3, 0
8000470c: 93 05 10 00  	li	a1, 1
80004710: 6f f0 9f f0  	j	0x80004618 <__divdf3+0x158>
80004714: 13 09 00 00  	li	s2, 0
80004718: 93 07 00 00  	li	a5, 0
8000471c: 93 06 f0 7f  	li	a3, 2047
80004720: 93 05 20 00  	li	a1, 2
80004724: 6f f0 5f ef  	j	0x80004618 <__divdf3+0x158>
80004728: 63 66 69 01  	bltu	s2, s6, 0x80004734 <__divdf3+0x274>
8000472c: 63 1c 2b 2f  	bne	s6, s2, 0x80004a24 <__divdf3+0x564>
80004730: 63 ea f9 2e  	bltu	s3, a5, 0x80004a24 <__divdf3+0x564>
80004734: 93 16 fb 01  	slli	a3, s6, 31
80004738: 13 d7 19 00  	srli	a4, s3, 1
8000473c: 93 9e f9 01  	slli	t4, s3, 31
80004740: 13 5b 1b 00  	srli	s6, s6, 1
80004744: b3 e9 e6 00  	or	s3, a3, a4
80004748: 13 15 89 00  	slli	a0, s2, 8
8000474c: 93 d6 87 01  	srli	a3, a5, 24
80004750: b3 e6 a6 00  	or	a3, a3, a0
80004754: 13 55 05 01  	srli	a0, a0, 16
80004758: 33 53 ab 02  	divu	t1, s6, a0
8000475c: 93 98 06 01  	slli	a7, a3, 16
80004760: 93 d8 08 01  	srli	a7, a7, 16
80004764: 93 95 87 00  	slli	a1, a5, 8
80004768: 93 d7 09 01  	srli	a5, s3, 16
8000476c: 33 7b ab 02  	remu	s6, s6, a0
80004770: 13 0f 03 00  	mv	t5, t1
80004774: 33 87 68 02  	mul	a4, a7, t1
80004778: 13 1b 0b 01  	slli	s6, s6, 16
8000477c: b3 e7 67 01  	or	a5, a5, s6
80004780: 63 fe e7 00  	bgeu	a5, a4, 0x8000479c <__divdf3+0x2dc>
80004784: b3 87 f6 00  	add	a5, a3, a5
80004788: 13 0f f3 ff  	addi	t5, t1, -1
8000478c: 63 e8 d7 00  	bltu	a5, a3, 0x8000479c <__divdf3+0x2dc>
80004790: 63 f6 e7 00  	bgeu	a5, a4, 0x8000479c <__divdf3+0x2dc>
80004794: 13 0f e3 ff  	addi	t5, t1, -2
80004798: b3 87 d7 00  	add	a5, a5, a3
8000479c: b3 87 e7 40  	sub	a5, a5, a4
800047a0: 33 de a7 02  	divu	t3, a5, a0
800047a4: 13 97 09 01  	slli	a4, s3, 16
800047a8: 13 57 07 01  	srli	a4, a4, 16
800047ac: b3 f7 a7 02  	remu	a5, a5, a0
800047b0: 33 83 c8 03  	mul	t1, a7, t3
800047b4: 93 97 07 01  	slli	a5, a5, 16
800047b8: 33 67 f7 00  	or	a4, a4, a5
800047bc: 93 07 0e 00  	mv	a5, t3
800047c0: 63 7e 67 00  	bgeu	a4, t1, 0x800047dc <__divdf3+0x31c>
800047c4: 33 87 e6 00  	add	a4, a3, a4
800047c8: 93 07 fe ff  	addi	a5, t3, -1
800047cc: 63 68 d7 00  	bltu	a4, a3, 0x800047dc <__divdf3+0x31c>
800047d0: 63 76 67 00  	bgeu	a4, t1, 0x800047dc <__divdf3+0x31c>
800047d4: 93 07 ee ff  	addi	a5, t3, -2
800047d8: 33 07 d7 00  	add	a4, a4, a3
800047dc: 13 1f 0f 01  	slli	t5, t5, 16
800047e0: 37 09 01 00  	lui	s2, 16
800047e4: 33 6f ff 00  	or	t5, t5, a5
800047e8: 33 07 67 40  	sub	a4, a4, t1
800047ec: 13 03 f9 ff  	addi	t1, s2, -1
800047f0: b3 77 6f 00  	and	a5, t5, t1
800047f4: 93 52 0f 01  	srli	t0, t5, 16
800047f8: 13 de 05 01  	srli	t3, a1, 16
800047fc: 33 f3 65 00  	and	t1, a1, t1
80004800: b3 83 67 02  	mul	t2, a5, t1
80004804: b3 89 62 02  	mul	s3, t0, t1
80004808: b3 07 fe 02  	mul	a5, t3, a5
8000480c: b3 8f 37 01  	add	t6, a5, s3
80004810: 93 d7 03 01  	srli	a5, t2, 16
80004814: b3 87 f7 01  	add	a5, a5, t6
80004818: b3 82 c2 03  	mul	t0, t0, t3
8000481c: 63 f4 37 01  	bgeu	a5, s3, 0x80004824 <__divdf3+0x364>
80004820: b3 82 22 01  	add	t0, t0, s2
80004824: 93 df 07 01  	srli	t6, a5, 16
80004828: b3 8f 5f 00  	add	t6, t6, t0
8000482c: b7 02 01 00  	lui	t0, 16
80004830: 93 82 f2 ff  	addi	t0, t0, -1
80004834: b3 f7 57 00  	and	a5, a5, t0
80004838: 93 97 07 01  	slli	a5, a5, 16
8000483c: b3 f3 53 00  	and	t2, t2, t0
80004840: b3 87 77 00  	add	a5, a5, t2
80004844: 63 68 f7 01  	bltu	a4, t6, 0x80004854 <__divdf3+0x394>
80004848: 13 09 0f 00  	mv	s2, t5
8000484c: 63 18 f7 05  	bne	a4, t6, 0x8000489c <__divdf3+0x3dc>
80004850: 63 f6 fe 04  	bgeu	t4, a5, 0x8000489c <__divdf3+0x3dc>
80004854: b3 82 be 00  	add	t0, t4, a1
80004858: b3 b3 d2 01  	sltu	t2, t0, t4
8000485c: b3 89 d3 00  	add	s3, t2, a3
80004860: 33 07 37 01  	add	a4, a4, s3
80004864: 13 09 ff ff  	addi	s2, t5, -1
80004868: 93 8e 02 00  	mv	t4, t0
8000486c: 63 e6 e6 00  	bltu	a3, a4, 0x80004878 <__divdf3+0x3b8>
80004870: 63 96 e6 02  	bne	a3, a4, 0x8000489c <__divdf3+0x3dc>
80004874: 63 94 03 02  	bnez	t2, 0x8000489c <__divdf3+0x3dc>
80004878: 63 66 f7 01  	bltu	a4, t6, 0x80004884 <__divdf3+0x3c4>
8000487c: 63 90 ef 02  	bne	t6, a4, 0x8000489c <__divdf3+0x3dc>
80004880: 63 fe f2 00  	bgeu	t0, a5, 0x8000489c <__divdf3+0x3dc>
80004884: b3 82 55 00  	add	t0, a1, t0
80004888: 13 09 ef ff  	addi	s2, t5, -2
8000488c: 33 bf b2 00  	sltu	t5, t0, a1
80004890: 33 0f df 00  	add	t5, t5, a3
80004894: 93 8e 02 00  	mv	t4, t0
80004898: 33 07 e7 01  	add	a4, a4, t5
8000489c: 33 8f fe 40  	sub	t5, t4, a5
800048a0: 33 07 f7 41  	sub	a4, a4, t6
800048a4: b3 be ee 01  	sltu	t4, t4, t5
800048a8: 33 07 d7 41  	sub	a4, a4, t4
800048ac: 93 07 f0 ff  	li	a5, -1
800048b0: 63 86 e6 12  	beq	a3, a4, 0x800049dc <__divdf3+0x51c>
800048b4: b3 52 a7 02  	divu	t0, a4, a0
800048b8: 93 57 0f 01  	srli	a5, t5, 16
800048bc: 33 77 a7 02  	remu	a4, a4, a0
800048c0: 93 8e 02 00  	mv	t4, t0
800048c4: b3 8f 58 02  	mul	t6, a7, t0
800048c8: 13 17 07 01  	slli	a4, a4, 16
800048cc: b3 e7 e7 00  	or	a5, a5, a4
800048d0: 63 fe f7 01  	bgeu	a5, t6, 0x800048ec <__divdf3+0x42c>
800048d4: b3 87 f6 00  	add	a5, a3, a5
800048d8: 93 8e f2 ff  	addi	t4, t0, -1
800048dc: 63 e8 d7 00  	bltu	a5, a3, 0x800048ec <__divdf3+0x42c>
800048e0: 63 f6 f7 01  	bgeu	a5, t6, 0x800048ec <__divdf3+0x42c>
800048e4: 93 8e e2 ff  	addi	t4, t0, -2
800048e8: b3 87 d7 00  	add	a5, a5, a3
800048ec: b3 87 f7 41  	sub	a5, a5, t6
800048f0: b3 df a7 02  	divu	t6, a5, a0
800048f4: 13 17 0f 01  	slli	a4, t5, 16
800048f8: 13 57 07 01  	srli	a4, a4, 16
800048fc: b3 f7 a7 02  	remu	a5, a5, a0
80004900: b3 88 f8 03  	mul	a7, a7, t6
80004904: 93 97 07 01  	slli	a5, a5, 16
80004908: b3 67 f7 00  	or	a5, a4, a5
8000490c: 13 87 0f 00  	mv	a4, t6
80004910: 63 fe 17 01  	bgeu	a5, a7, 0x8000492c <__divdf3+0x46c>
80004914: b3 87 f6 00  	add	a5, a3, a5
80004918: 13 87 ff ff  	addi	a4, t6, -1
8000491c: 63 e8 d7 00  	bltu	a5, a3, 0x8000492c <__divdf3+0x46c>
80004920: 63 f6 17 01  	bgeu	a5, a7, 0x8000492c <__divdf3+0x46c>
80004924: 13 87 ef ff  	addi	a4, t6, -2
80004928: b3 87 d7 00  	add	a5, a5, a3
8000492c: 13 95 0e 01  	slli	a0, t4, 16
80004930: 33 65 e5 00  	or	a0, a0, a4
80004934: 13 17 05 01  	slli	a4, a0, 16
80004938: 13 57 07 01  	srli	a4, a4, 16
8000493c: b3 88 17 41  	sub	a7, a5, a7
80004940: 93 57 05 01  	srli	a5, a0, 16
80004944: b3 0e e3 02  	mul	t4, t1, a4
80004948: 33 83 67 02  	mul	t1, a5, t1
8000494c: b3 07 fe 02  	mul	a5, t3, a5
80004950: 33 0e ee 02  	mul	t3, t3, a4
80004954: 13 d7 0e 01  	srli	a4, t4, 16
80004958: 33 0e 6e 00  	add	t3, t3, t1
8000495c: 33 07 c7 01  	add	a4, a4, t3
80004960: 63 76 67 00  	bgeu	a4, t1, 0x8000496c <__divdf3+0x4ac>
80004964: 37 03 01 00  	lui	t1, 16
80004968: b3 87 67 00  	add	a5, a5, t1
8000496c: 13 53 07 01  	srli	t1, a4, 16
80004970: 33 03 f3 00  	add	t1, t1, a5
80004974: b7 07 01 00  	lui	a5, 16
80004978: 93 87 f7 ff  	addi	a5, a5, -1
8000497c: 33 77 f7 00  	and	a4, a4, a5
80004980: 13 17 07 01  	slli	a4, a4, 16
80004984: b3 fe fe 00  	and	t4, t4, a5
80004988: 33 07 d7 01  	add	a4, a4, t4
8000498c: 63 e8 68 00  	bltu	a7, t1, 0x8000499c <__divdf3+0x4dc>
80004990: 93 07 05 00  	mv	a5, a0
80004994: 63 92 68 04  	bne	a7, t1, 0x800049d8 <__divdf3+0x518>
80004998: 63 02 07 04  	beqz	a4, 0x800049dc <__divdf3+0x51c>
8000499c: b3 88 16 01  	add	a7, a3, a7
800049a0: 93 07 f5 ff  	addi	a5, a0, -1
800049a4: 13 8e 08 00  	mv	t3, a7
800049a8: 63 e4 d8 02  	bltu	a7, a3, 0x800049d0 <__divdf3+0x510>
800049ac: 63 e6 68 00  	bltu	a7, t1, 0x800049b8 <__divdf3+0x4f8>
800049b0: 63 94 68 02  	bne	a7, t1, 0x800049d8 <__divdf3+0x518>
800049b4: 63 f0 e5 02  	bgeu	a1, a4, 0x800049d4 <__divdf3+0x514>
800049b8: 93 07 e5 ff  	addi	a5, a0, -2
800049bc: 13 95 15 00  	slli	a0, a1, 1
800049c0: 33 3e b5 00  	sltu	t3, a0, a1
800049c4: 33 0e de 00  	add	t3, t3, a3
800049c8: 33 8e c8 01  	add	t3, a7, t3
800049cc: 93 05 05 00  	mv	a1, a0
800049d0: 63 14 6e 00  	bne	t3, t1, 0x800049d8 <__divdf3+0x518>
800049d4: 63 04 b7 00  	beq	a4, a1, 0x800049dc <__divdf3+0x51c>
800049d8: 93 e7 17 00  	ori	a5, a5, 1
800049dc: 13 07 f8 3f  	addi	a4, a6, 1023
800049e0: 63 52 e0 18  	blez	a4, 0x80004b64 <__divdf3+0x6a4>
800049e4: 93 f6 77 00  	andi	a3, a5, 7
800049e8: 63 82 06 10  	beqz	a3, 0x80004aec <__divdf3+0x62c>
800049ec: 93 06 20 00  	li	a3, 2
800049f0: 13 64 14 00  	ori	s0, s0, 1
800049f4: 63 8a d4 0e  	beq	s1, a3, 0x80004ae8 <__divdf3+0x628>
800049f8: 93 06 30 00  	li	a3, 3
800049fc: 63 80 d4 0e  	beq	s1, a3, 0x80004adc <__divdf3+0x61c>
80004a00: 63 96 04 0e  	bnez	s1, 0x80004aec <__divdf3+0x62c>
80004a04: 93 f6 f7 00  	andi	a3, a5, 15
80004a08: 93 05 40 00  	li	a1, 4
80004a0c: 63 80 b6 0e  	beq	a3, a1, 0x80004aec <__divdf3+0x62c>
80004a10: 93 86 47 00  	addi	a3, a5, 4
80004a14: b3 b5 f6 00  	sltu	a1, a3, a5
80004a18: 33 09 b9 00  	add	s2, s2, a1
80004a1c: 93 87 06 00  	mv	a5, a3
80004a20: 6f 00 c0 0c  	j	0x80004aec <__divdf3+0x62c>
80004a24: 13 08 f8 ff  	addi	a6, a6, -1
80004a28: 93 0e 00 00  	li	t4, 0
80004a2c: 6f f0 df d1  	j	0x80004748 <__divdf3+0x288>
80004a30: 13 86 0a 00  	mv	a2, s5
80004a34: 93 8b 05 00  	mv	s7, a1
80004a38: 13 07 10 00  	li	a4, 1
80004a3c: 63 88 eb 30  	beq	s7, a4, 0x80004d4c <__divdf3+0x88c>
80004a40: e3 8e 0b f8  	beqz	s7, 0x800049dc <__divdf3+0x51c>
80004a44: 93 07 20 00  	li	a5, 2
80004a48: 63 8a fb 06  	beq	s7, a5, 0x80004abc <__divdf3+0x5fc>
80004a4c: 37 05 08 00  	lui	a0, 128
80004a50: 93 07 00 00  	li	a5, 0
80004a54: 13 07 f0 7f  	li	a4, 2047
80004a58: 13 06 00 00  	li	a2, 0
80004a5c: 13 15 c5 00  	slli	a0, a0, 12
80004a60: 13 55 c5 00  	srli	a0, a0, 12
80004a64: 13 17 47 01  	slli	a4, a4, 20
80004a68: 33 67 a7 00  	or	a4, a4, a0
80004a6c: 13 16 f6 01  	slli	a2, a2, 31
80004a70: b3 66 c7 00  	or	a3, a4, a2
80004a74: 13 85 07 00  	mv	a0, a5
80004a78: 93 85 06 00  	mv	a1, a3
80004a7c: 63 04 04 00  	beqz	s0, 0x80004a84 <__divdf3+0x5c4>
80004a80: 73 20 14 00  	csrs	fflags, s0
80004a84: 83 20 c1 02  	lw	ra, 44(sp)
80004a88: 03 24 81 02  	lw	s0, 40(sp)
80004a8c: 83 24 41 02  	lw	s1, 36(sp)
80004a90: 03 29 01 02  	lw	s2, 32(sp)
80004a94: 83 29 c1 01  	lw	s3, 28(sp)
80004a98: 03 2a 81 01  	lw	s4, 24(sp)
80004a9c: 83 2a 41 01  	lw	s5, 20(sp)
80004aa0: 03 2b 01 01  	lw	s6, 16(sp)
80004aa4: 83 2b c1 00  	lw	s7, 12(sp)
80004aa8: 03 2c 81 00  	lw	s8, 8(sp)
80004aac: 83 2c 41 00  	lw	s9, 4(sp)
80004ab0: 13 01 01 03  	addi	sp, sp, 48
80004ab4: 67 80 00 00  	ret
80004ab8: 13 64 84 00  	ori	s0, s0, 8
80004abc: 13 05 00 00  	li	a0, 0
80004ac0: 93 07 00 00  	li	a5, 0
80004ac4: 13 07 f0 7f  	li	a4, 2047
80004ac8: 6f f0 5f f9  	j	0x80004a5c <__divdf3+0x59c>
80004acc: 13 06 0a 00  	mv	a2, s4
80004ad0: 13 09 0b 00  	mv	s2, s6
80004ad4: 93 87 09 00  	mv	a5, s3
80004ad8: 6f f0 1f f6  	j	0x80004a38 <__divdf3+0x578>
80004adc: 63 18 06 00  	bnez	a2, 0x80004aec <__divdf3+0x62c>
80004ae0: 93 86 87 00  	addi	a3, a5, 8
80004ae4: 6f f0 1f f3  	j	0x80004a14 <__divdf3+0x554>
80004ae8: e3 1c 06 fe  	bnez	a2, 0x80004ae0 <__divdf3+0x620>
80004aec: b7 06 00 01  	lui	a3, 4096
80004af0: b3 76 d9 00  	and	a3, s2, a3
80004af4: 63 8a 06 00  	beqz	a3, 0x80004b08 <__divdf3+0x648>
80004af8: 37 07 00 ff  	lui	a4, 1044480
80004afc: 13 07 f7 ff  	addi	a4, a4, -1
80004b00: 33 79 e9 00  	and	s2, s2, a4
80004b04: 13 07 08 40  	addi	a4, a6, 1024
80004b08: 93 06 e0 7f  	li	a3, 2046
80004b0c: 63 cc e6 00  	blt	a3, a4, 0x80004b24 <__divdf3+0x664>
80004b10: 93 d6 37 00  	srli	a3, a5, 3
80004b14: 93 17 d9 01  	slli	a5, s2, 29
80004b18: b3 e7 d7 00  	or	a5, a5, a3
80004b1c: 13 55 39 00  	srli	a0, s2, 3
80004b20: 6f f0 df f3  	j	0x80004a5c <__divdf3+0x59c>
80004b24: 93 07 20 00  	li	a5, 2
80004b28: 63 8a f4 02  	beq	s1, a5, 0x80004b5c <__divdf3+0x69c>
80004b2c: 93 07 30 00  	li	a5, 3
80004b30: 63 8a f4 00  	beq	s1, a5, 0x80004b44 <__divdf3+0x684>
80004b34: 63 8a 04 00  	beqz	s1, 0x80004b48 <__divdf3+0x688>
80004b38: 93 07 f0 ff  	li	a5, -1
80004b3c: 13 07 e0 7f  	li	a4, 2046
80004b40: 6f 00 00 01  	j	0x80004b50 <__divdf3+0x690>
80004b44: e3 1a 06 fe  	bnez	a2, 0x80004b38 <__divdf3+0x678>
80004b48: 93 07 00 00  	li	a5, 0
80004b4c: 13 07 f0 7f  	li	a4, 2047
80004b50: 13 64 54 00  	ori	s0, s0, 5
80004b54: 13 85 07 00  	mv	a0, a5
80004b58: 6f f0 5f f0  	j	0x80004a5c <__divdf3+0x59c>
80004b5c: e3 0e 06 fc  	beqz	a2, 0x80004b38 <__divdf3+0x678>
80004b60: 6f f0 9f fe  	j	0x80004b48 <__divdf3+0x688>
80004b64: 63 12 07 0c  	bnez	a4, 0x80004c28 <__divdf3+0x768>
80004b68: 93 f6 77 00  	andi	a3, a5, 7
80004b6c: 13 07 09 00  	mv	a4, s2
80004b70: 63 84 06 04  	beqz	a3, 0x80004bb8 <__divdf3+0x6f8>
80004b74: 93 06 20 00  	li	a3, 2
80004b78: 13 64 14 00  	ori	s0, s0, 1
80004b7c: 63 8c d4 02  	beq	s1, a3, 0x80004bb4 <__divdf3+0x6f4>
80004b80: 93 06 30 00  	li	a3, 3
80004b84: 63 82 d4 02  	beq	s1, a3, 0x80004ba8 <__divdf3+0x6e8>
80004b88: 63 98 04 02  	bnez	s1, 0x80004bb8 <__divdf3+0x6f8>
80004b8c: 93 f6 f7 00  	andi	a3, a5, 15
80004b90: 93 05 40 00  	li	a1, 4
80004b94: 63 82 b6 02  	beq	a3, a1, 0x80004bb8 <__divdf3+0x6f8>
80004b98: 13 b7 c7 ff  	sltiu	a4, a5, -4
80004b9c: 13 47 17 00  	xori	a4, a4, 1
80004ba0: 33 07 27 01  	add	a4, a4, s2
80004ba4: 6f 00 40 01  	j	0x80004bb8 <__divdf3+0x6f8>
80004ba8: 63 18 06 00  	bnez	a2, 0x80004bb8 <__divdf3+0x6f8>
80004bac: 13 b7 87 ff  	sltiu	a4, a5, -8
80004bb0: 6f f0 df fe  	j	0x80004b9c <__divdf3+0x6dc>
80004bb4: e3 1c 06 fe  	bnez	a2, 0x80004bac <__divdf3+0x6ec>
80004bb8: 13 57 87 01  	srli	a4, a4, 24
80004bbc: 13 47 17 00  	xori	a4, a4, 1
80004bc0: 13 77 17 00  	andi	a4, a4, 1
80004bc4: 13 05 10 00  	li	a0, 1
80004bc8: 13 08 e8 41  	addi	a6, a6, 1054
80004bcc: b3 d6 a7 00  	srl	a3, a5, a0
80004bd0: b3 97 07 01  	sll	a5, a5, a6
80004bd4: b3 37 f0 00  	snez	a5, a5
80004bd8: 33 18 09 01  	sll	a6, s2, a6
80004bdc: b3 e7 07 01  	or	a5, a5, a6
80004be0: b3 e7 f6 00  	or	a5, a3, a5
80004be4: 33 55 a9 00  	srl	a0, s2, a0
80004be8: 93 f6 77 00  	andi	a3, a5, 7
80004bec: 63 82 06 0a  	beqz	a3, 0x80004c90 <__divdf3+0x7d0>
80004bf0: 93 06 20 00  	li	a3, 2
80004bf4: 13 64 14 00  	ori	s0, s0, 1
80004bf8: 63 8a d4 08  	beq	s1, a3, 0x80004c8c <__divdf3+0x7cc>
80004bfc: 93 06 30 00  	li	a3, 3
80004c00: 63 80 d4 08  	beq	s1, a3, 0x80004c80 <__divdf3+0x7c0>
80004c04: 63 96 04 08  	bnez	s1, 0x80004c90 <__divdf3+0x7d0>
80004c08: 93 f6 f7 00  	andi	a3, a5, 15
80004c0c: 93 05 40 00  	li	a1, 4
80004c10: 63 80 b6 08  	beq	a3, a1, 0x80004c90 <__divdf3+0x7d0>
80004c14: 93 86 47 00  	addi	a3, a5, 4
80004c18: b3 b5 f6 00  	sltu	a1, a3, a5
80004c1c: 33 05 b5 00  	add	a0, a0, a1
80004c20: 93 87 06 00  	mv	a5, a3
80004c24: 6f 00 c0 06  	j	0x80004c90 <__divdf3+0x7d0>
80004c28: 13 05 10 00  	li	a0, 1
80004c2c: 33 05 e5 40  	sub	a0, a0, a4
80004c30: 93 06 80 03  	li	a3, 56
80004c34: 63 c4 a6 0a  	blt	a3, a0, 0x80004cdc <__divdf3+0x81c>
80004c38: 93 06 f0 01  	li	a3, 31
80004c3c: 63 c6 a6 00  	blt	a3, a0, 0x80004c48 <__divdf3+0x788>
80004c40: 13 07 10 00  	li	a4, 1
80004c44: 6f f0 5f f8  	j	0x80004bc8 <__divdf3+0x708>
80004c48: 93 06 10 fe  	li	a3, -31
80004c4c: 33 87 e6 40  	sub	a4, a3, a4
80004c50: 93 05 00 02  	li	a1, 32
80004c54: 33 57 e9 00  	srl	a4, s2, a4
80004c58: 93 06 00 00  	li	a3, 0
80004c5c: 63 06 b5 00  	beq	a0, a1, 0x80004c68 <__divdf3+0x7a8>
80004c60: 13 08 e8 43  	addi	a6, a6, 1086
80004c64: b3 16 09 01  	sll	a3, s2, a6
80004c68: b3 e6 f6 00  	or	a3, a3, a5
80004c6c: b3 36 d0 00  	snez	a3, a3
80004c70: b3 67 d7 00  	or	a5, a4, a3
80004c74: 13 05 00 00  	li	a0, 0
80004c78: 13 07 10 00  	li	a4, 1
80004c7c: 6f f0 df f6  	j	0x80004be8 <__divdf3+0x728>
80004c80: 63 18 06 00  	bnez	a2, 0x80004c90 <__divdf3+0x7d0>
80004c84: 93 86 87 00  	addi	a3, a5, 8
80004c88: 6f f0 1f f9  	j	0x80004c18 <__divdf3+0x758>
80004c8c: e3 1c 06 fe  	bnez	a2, 0x80004c84 <__divdf3+0x7c4>
80004c90: b7 06 80 00  	lui	a3, 2048
80004c94: b3 76 d5 00  	and	a3, a0, a3
80004c98: 63 8e 06 00  	beqz	a3, 0x80004cb4 <__divdf3+0x7f4>
80004c9c: 13 64 14 00  	ori	s0, s0, 1
80004ca0: 13 05 00 00  	li	a0, 0
80004ca4: 93 07 00 00  	li	a5, 0
80004ca8: 63 16 07 02  	bnez	a4, 0x80004cd4 <__divdf3+0x814>
80004cac: 13 07 10 00  	li	a4, 1
80004cb0: 6f f0 df da  	j	0x80004a5c <__divdf3+0x59c>
80004cb4: 93 d6 37 00  	srli	a3, a5, 3
80004cb8: 93 17 d5 01  	slli	a5, a0, 29
80004cbc: b3 e7 d7 00  	or	a5, a5, a3
80004cc0: 13 55 35 00  	srli	a0, a0, 3
80004cc4: e3 0c 07 d8  	beqz	a4, 0x80004a5c <__divdf3+0x59c>
80004cc8: 13 77 14 00  	andi	a4, s0, 1
80004ccc: e3 08 07 d8  	beqz	a4, 0x80004a5c <__divdf3+0x59c>
80004cd0: 13 07 00 00  	li	a4, 0
80004cd4: 13 64 24 00  	ori	s0, s0, 2
80004cd8: 6f f0 5f d8  	j	0x80004a5c <__divdf3+0x59c>
80004cdc: b3 e7 27 01  	or	a5, a5, s2
80004ce0: 63 84 07 02  	beqz	a5, 0x80004d08 <__divdf3+0x848>
80004ce4: 93 07 20 00  	li	a5, 2
80004ce8: 13 64 14 00  	ori	s0, s0, 1
80004cec: 63 8e f4 02  	beq	s1, a5, 0x80004d28 <__divdf3+0x868>
80004cf0: 93 07 30 00  	li	a5, 3
80004cf4: 63 82 f4 02  	beq	s1, a5, 0x80004d18 <__divdf3+0x858>
80004cf8: 93 07 50 00  	li	a5, 5
80004cfc: 63 84 04 00  	beqz	s1, 0x80004d04 <__divdf3+0x844>
80004d00: 93 07 10 00  	li	a5, 1
80004d04: 93 d7 37 00  	srli	a5, a5, 3
80004d08: 13 64 24 00  	ori	s0, s0, 2
80004d0c: 13 05 00 00  	li	a0, 0
80004d10: 13 07 00 00  	li	a4, 0
80004d14: 6f f0 9f d4  	j	0x80004a5c <__divdf3+0x59c>
80004d18: 93 07 10 00  	li	a5, 1
80004d1c: e3 14 06 fe  	bnez	a2, 0x80004d04 <__divdf3+0x844>
80004d20: 93 07 90 00  	li	a5, 9
80004d24: 6f f0 1f fe  	j	0x80004d04 <__divdf3+0x844>
80004d28: 93 07 10 00  	li	a5, 1
80004d2c: e3 0c 06 fc  	beqz	a2, 0x80004d04 <__divdf3+0x844>
80004d30: 6f f0 1f ff  	j	0x80004d20 <__divdf3+0x860>
80004d34: 37 05 08 00  	lui	a0, 128
80004d38: 93 07 00 00  	li	a5, 0
80004d3c: 13 07 f0 7f  	li	a4, 2047
80004d40: 13 06 00 00  	li	a2, 0
80004d44: 13 04 00 01  	li	s0, 16
80004d48: 6f f0 5f d1  	j	0x80004a5c <__divdf3+0x59c>
80004d4c: 13 05 00 00  	li	a0, 0
80004d50: 93 07 00 00  	li	a5, 0
80004d54: 6f f0 df fb  	j	0x80004d10 <__divdf3+0x850>

80004d58 <__nedf2>:
80004d58: 13 07 05 00  	mv	a4, a0
80004d5c: f3 27 20 00  	frrm	a5
80004d60: b7 07 10 00  	lui	a5, 256
80004d64: 13 d8 45 01  	srli	a6, a1, 20
80004d68: 93 87 f7 ff  	addi	a5, a5, -1
80004d6c: 13 d3 46 01  	srli	t1, a3, 20
80004d70: 13 78 f8 7f  	andi	a6, a6, 2047
80004d74: 13 05 f0 7f  	li	a0, 2047
80004d78: b3 f8 b7 00  	and	a7, a5, a1
80004d7c: 13 73 f3 7f  	andi	t1, t1, 2047
80004d80: b3 f7 d7 00  	and	a5, a5, a3
80004d84: 93 d5 f5 01  	srli	a1, a1, 31
80004d88: 93 d6 f6 01  	srli	a3, a3, 31
80004d8c: 63 14 a8 02  	bne	a6, a0, 0x80004db4 <__nedf2+0x5c>
80004d90: 33 e7 e8 00  	or	a4, a7, a4
80004d94: 63 1a 07 02  	bnez	a4, 0x80004dc8 <__nedf2+0x70>
80004d98: 13 05 10 00  	li	a0, 1
80004d9c: 63 1e 03 07  	bne	t1, a6, 0x80004e18 <__nedf2+0xc0>
80004da0: 33 e6 c7 00  	or	a2, a5, a2
80004da4: 63 1e 06 02  	bnez	a2, 0x80004de0 <__nedf2+0x88>
80004da8: b3 85 d5 40  	sub	a1, a1, a3
80004dac: 33 35 b0 00  	snez	a0, a1
80004db0: 67 80 00 00  	ret
80004db4: 63 1e a3 02  	bne	t1, a0, 0x80004df0 <__nedf2+0x98>
80004db8: 33 e6 c7 00  	or	a2, a5, a2
80004dbc: 63 12 06 02  	bnez	a2, 0x80004de0 <__nedf2+0x88>
80004dc0: 13 05 10 00  	li	a0, 1
80004dc4: 67 80 00 00  	ret
80004dc8: 37 07 08 00  	lui	a4, 128
80004dcc: 63 ee e8 00  	bltu	a7, a4, 0x80004de8 <__nedf2+0x90>
80004dd0: 13 05 10 00  	li	a0, 1
80004dd4: 63 12 03 05  	bne	t1, a6, 0x80004e18 <__nedf2+0xc0>
80004dd8: 33 e6 c7 00  	or	a2, a5, a2
80004ddc: 63 0e 06 02  	beqz	a2, 0x80004e18 <__nedf2+0xc0>
80004de0: 37 07 08 00  	lui	a4, 128
80004de4: e3 fe e7 fc  	bgeu	a5, a4, 0x80004dc0 <__nedf2+0x68>
80004de8: 73 60 18 00  	csrsi	fflags, 16
80004dec: 6f f0 5f fd  	j	0x80004dc0 <__nedf2+0x68>
80004df0: 13 05 10 00  	li	a0, 1
80004df4: 63 12 68 02  	bne	a6, t1, 0x80004e18 <__nedf2+0xc0>
80004df8: 63 90 f8 02  	bne	a7, a5, 0x80004e18 <__nedf2+0xc0>
80004dfc: 63 1e c7 00  	bne	a4, a2, 0x80004e18 <__nedf2+0xc0>
80004e00: 63 8a d5 00  	beq	a1, a3, 0x80004e14 <__nedf2+0xbc>
80004e04: 63 1a 08 00  	bnez	a6, 0x80004e18 <__nedf2+0xc0>
80004e08: b3 e8 e8 00  	or	a7, a7, a4
80004e0c: 33 35 10 01  	snez	a0, a7
80004e10: 67 80 00 00  	ret
80004e14: 13 05 00 00  	li	a0, 0
80004e18: 67 80 00 00  	ret

80004e1c <__gtdf2>:
80004e1c: 13 08 05 00  	mv	a6, a0
80004e20: f3 27 20 00  	frrm	a5
80004e24: 37 07 10 00  	lui	a4, 256
80004e28: 93 d7 46 01  	srli	a5, a3, 20
80004e2c: 13 d3 45 01  	srli	t1, a1, 20
80004e30: 13 07 f7 ff  	addi	a4, a4, -1
80004e34: 13 0e 05 00  	mv	t3, a0
80004e38: 13 73 f3 7f  	andi	t1, t1, 2047
80004e3c: 13 f5 f7 7f  	andi	a0, a5, 2047
80004e40: 93 07 f0 7f  	li	a5, 2047
80004e44: b3 78 b7 00  	and	a7, a4, a1
80004e48: 93 0e 06 00  	mv	t4, a2
80004e4c: 33 77 d7 00  	and	a4, a4, a3
80004e50: 93 d5 f5 01  	srli	a1, a1, 31
80004e54: 93 d6 f6 01  	srli	a3, a3, 31
80004e58: 63 1a f3 02  	bne	t1, a5, 0x80004e8c <__gtdf2+0x70>
80004e5c: b3 e8 08 01  	or	a7, a7, a6
80004e60: 63 90 08 0c  	bnez	a7, 0x80004f20 <__gtdf2+0x104>
80004e64: 63 0a 65 00  	beq	a0, t1, 0x80004e78 <__gtdf2+0x5c>
80004e68: 13 05 10 00  	li	a0, 1
80004e6c: 63 88 05 0a  	beqz	a1, 0x80004f1c <__gtdf2+0x100>
80004e70: 13 05 f0 ff  	li	a0, -1
80004e74: 67 80 00 00  	ret
80004e78: 33 67 c7 00  	or	a4, a4, a2
80004e7c: 63 12 07 0a  	bnez	a4, 0x80004f20 <__gtdf2+0x104>
80004e80: e3 94 d5 fe  	bne	a1, a3, 0x80004e68 <__gtdf2+0x4c>
80004e84: 13 05 00 00  	li	a0, 0
80004e88: 67 80 00 00  	ret
80004e8c: 63 1e f5 02  	bne	a0, a5, 0x80004ec8 <__gtdf2+0xac>
80004e90: 33 67 c7 00  	or	a4, a4, a2
80004e94: 63 16 07 08  	bnez	a4, 0x80004f20 <__gtdf2+0x104>
80004e98: 63 0c 03 00  	beqz	t1, 0x80004eb0 <__gtdf2+0x94>
80004e9c: e3 96 d5 fc  	bne	a1, a3, 0x80004e68 <__gtdf2+0x4c>
80004ea0: 13 05 f0 ff  	li	a0, -1
80004ea4: 63 8c 05 06  	beqz	a1, 0x80004f1c <__gtdf2+0x100>
80004ea8: 13 85 05 00  	mv	a0, a1
80004eac: 67 80 00 00  	ret
80004eb0: b3 e8 08 01  	or	a7, a7, a6
80004eb4: e3 94 08 fe  	bnez	a7, 0x80004e9c <__gtdf2+0x80>
80004eb8: 13 05 f0 ff  	li	a0, -1
80004ebc: 63 80 06 06  	beqz	a3, 0x80004f1c <__gtdf2+0x100>
80004ec0: 13 85 06 00  	mv	a0, a3
80004ec4: 67 80 00 00  	ret
80004ec8: 63 06 03 02  	beqz	t1, 0x80004ef4 <__gtdf2+0xd8>
80004ecc: e3 0e 05 f8  	beqz	a0, 0x80004e68 <__gtdf2+0x4c>
80004ed0: e3 9c d5 f8  	bne	a1, a3, 0x80004e68 <__gtdf2+0x4c>
80004ed4: e3 4a 65 f8  	blt	a0, t1, 0x80004e68 <__gtdf2+0x4c>
80004ed8: e3 44 a3 fc  	blt	t1, a0, 0x80004ea0 <__gtdf2+0x84>
80004edc: e3 66 17 f9  	bltu	a4, a7, 0x80004e68 <__gtdf2+0x4c>
80004ee0: e3 90 e8 fc  	bne	a7, a4, 0x80004ea0 <__gtdf2+0x84>
80004ee4: e3 e2 ce f9  	bltu	t4, t3, 0x80004e68 <__gtdf2+0x4c>
80004ee8: 13 05 00 00  	li	a0, 0
80004eec: 63 78 de 03  	bgeu	t3, t4, 0x80004f1c <__gtdf2+0x100>
80004ef0: 6f f0 1f fb  	j	0x80004ea0 <__gtdf2+0x84>
80004ef4: 33 e8 08 01  	or	a6, a7, a6
80004ef8: 63 06 05 00  	beqz	a0, 0x80004f04 <__gtdf2+0xe8>
80004efc: e3 0e 08 fa  	beqz	a6, 0x80004eb8 <__gtdf2+0x9c>
80004f00: 6f f0 df f9  	j	0x80004e9c <__gtdf2+0x80>
80004f04: 33 66 c7 00  	or	a2, a4, a2
80004f08: 63 08 06 00  	beqz	a2, 0x80004f18 <__gtdf2+0xfc>
80004f0c: e3 06 08 fa  	beqz	a6, 0x80004eb8 <__gtdf2+0x9c>
80004f10: e3 86 d5 fc  	beq	a1, a3, 0x80004edc <__gtdf2+0xc0>
80004f14: 6f f0 5f f5  	j	0x80004e68 <__gtdf2+0x4c>
80004f18: e3 18 08 f4  	bnez	a6, 0x80004e68 <__gtdf2+0x4c>
80004f1c: 67 80 00 00  	ret
80004f20: 73 60 18 00  	csrsi	fflags, 16
80004f24: 13 05 e0 ff  	li	a0, -2
80004f28: 67 80 00 00  	ret

80004f2c <__ltdf2>:
80004f2c: 13 08 05 00  	mv	a6, a0
80004f30: f3 27 20 00  	frrm	a5
80004f34: 37 07 10 00  	lui	a4, 256
80004f38: 93 d7 46 01  	srli	a5, a3, 20
80004f3c: 13 d3 45 01  	srli	t1, a1, 20
80004f40: 13 07 f7 ff  	addi	a4, a4, -1
80004f44: 13 0e 05 00  	mv	t3, a0
80004f48: 13 73 f3 7f  	andi	t1, t1, 2047
80004f4c: 13 f5 f7 7f  	andi	a0, a5, 2047
80004f50: 93 07 f0 7f  	li	a5, 2047
80004f54: b3 78 b7 00  	and	a7, a4, a1
80004f58: 93 0e 06 00  	mv	t4, a2
80004f5c: 33 77 d7 00  	and	a4, a4, a3
80004f60: 93 d5 f5 01  	srli	a1, a1, 31
80004f64: 93 d6 f6 01  	srli	a3, a3, 31
80004f68: 63 1a f3 02  	bne	t1, a5, 0x80004f9c <__ltdf2+0x70>
80004f6c: b3 e8 08 01  	or	a7, a7, a6
80004f70: 63 90 08 0c  	bnez	a7, 0x80005030 <__ltdf2+0x104>
80004f74: 63 0a 65 00  	beq	a0, t1, 0x80004f88 <__ltdf2+0x5c>
80004f78: 13 05 10 00  	li	a0, 1
80004f7c: 63 88 05 0a  	beqz	a1, 0x8000502c <__ltdf2+0x100>
80004f80: 13 05 f0 ff  	li	a0, -1
80004f84: 67 80 00 00  	ret
80004f88: 33 67 c7 00  	or	a4, a4, a2
80004f8c: 63 12 07 0a  	bnez	a4, 0x80005030 <__ltdf2+0x104>
80004f90: e3 94 d5 fe  	bne	a1, a3, 0x80004f78 <__ltdf2+0x4c>
80004f94: 13 05 00 00  	li	a0, 0
80004f98: 67 80 00 00  	ret
80004f9c: 63 1e f5 02  	bne	a0, a5, 0x80004fd8 <__ltdf2+0xac>
80004fa0: 33 67 c7 00  	or	a4, a4, a2
80004fa4: 63 16 07 08  	bnez	a4, 0x80005030 <__ltdf2+0x104>
80004fa8: 63 0c 03 00  	beqz	t1, 0x80004fc0 <__ltdf2+0x94>
80004fac: e3 96 d5 fc  	bne	a1, a3, 0x80004f78 <__ltdf2+0x4c>
80004fb0: 13 05 f0 ff  	li	a0, -1
80004fb4: 63 8c 05 06  	beqz	a1, 0x8000502c <__ltdf2+0x100>
80004fb8: 13 85 05 00  	mv	a0, a1
80004fbc: 67 80 00 00  	ret
80004fc0: b3 e8 08 01  	or	a7, a7, a6
80004fc4: e3 94 08 fe  	bnez	a7, 0x80004fac <__ltdf2+0x80>
80004fc8: 13 05 f0 ff  	li	a0, -1
80004fcc: 63 80 06 06  	beqz	a3, 0x8000502c <__ltdf2+0x100>
80004fd0: 13 85 06 00  	mv	a0, a3
80004fd4: 67 80 00 00  	ret
80004fd8: 63 06 03 02  	beqz	t1, 0x80005004 <__ltdf2+0xd8>
80004fdc: e3 0e 05 f8  	beqz	a0, 0x80004f78 <__ltdf2+0x4c>
80004fe0: e3 9c d5 f8  	bne	a1, a3, 0x80004f78 <__ltdf2+0x4c>
80004fe4: e3 4a 65 f8  	blt	a0, t1, 0x80004f78 <__ltdf2+0x4c>
80004fe8: e3 44 a3 fc  	blt	t1, a0, 0x80004fb0 <__ltdf2+0x84>
80004fec: e3 66 17 f9  	bltu	a4, a7, 0x80004f78 <__ltdf2+0x4c>
80004ff0: e3 90 e8 fc  	bne	a7, a4, 0x80004fb0 <__ltdf2+0x84>
80004ff4: e3 e2 ce f9  	bltu	t4, t3, 0x80004f78 <__ltdf2+0x4c>
80004ff8: 13 05 00 00  	li	a0, 0
80004ffc: 63 78 de 03  	bgeu	t3, t4, 0x8000502c <__ltdf2+0x100>
80005000: 6f f0 1f fb  	j	0x80004fb0 <__ltdf2+0x84>
80005004: 33 e8 08 01  	or	a6, a7, a6
80005008: 63 06 05 00  	beqz	a0, 0x80005014 <__ltdf2+0xe8>
8000500c: e3 0e 08 fa  	beqz	a6, 0x80004fc8 <__ltdf2+0x9c>
80005010: 6f f0 df f9  	j	0x80004fac <__ltdf2+0x80>
80005014: 33 66 c7 00  	or	a2, a4, a2
80005018: 63 08 06 00  	beqz	a2, 0x80005028 <__ltdf2+0xfc>
8000501c: e3 06 08 fa  	beqz	a6, 0x80004fc8 <__ltdf2+0x9c>
80005020: e3 86 d5 fc  	beq	a1, a3, 0x80004fec <__ltdf2+0xc0>
80005024: 6f f0 5f f5  	j	0x80004f78 <__ltdf2+0x4c>
80005028: e3 18 08 f4  	bnez	a6, 0x80004f78 <__ltdf2+0x4c>
8000502c: 67 80 00 00  	ret
80005030: 73 60 18 00  	csrsi	fflags, 16
80005034: 13 05 20 00  	li	a0, 2
80005038: 67 80 00 00  	ret

8000503c <__muldf3>:
8000503c: 13 01 01 fd  	addi	sp, sp, -48
80005040: 23 24 81 02  	sw	s0, 40(sp)
80005044: 23 2a 51 01  	sw	s5, 20(sp)
80005048: 23 24 81 01  	sw	s8, 8(sp)
8000504c: 23 26 11 02  	sw	ra, 44(sp)
80005050: 23 22 91 02  	sw	s1, 36(sp)
80005054: 23 20 21 03  	sw	s2, 32(sp)
80005058: 23 2e 31 01  	sw	s3, 28(sp)
8000505c: 23 2c 41 01  	sw	s4, 24(sp)
80005060: 23 28 61 01  	sw	s6, 16(sp)
80005064: 23 26 71 01  	sw	s7, 12(sp)
80005068: 23 22 91 01  	sw	s9, 4(sp)
8000506c: 13 04 05 00  	mv	s0, a0
80005070: 13 0c 06 00  	mv	s8, a2
80005074: 93 8a 06 00  	mv	s5, a3
80005078: 73 29 20 00  	frrm	s2
8000507c: 93 db 45 01  	srli	s7, a1, 20
80005080: 93 99 c5 00  	slli	s3, a1, 12
80005084: 93 fb fb 7f  	andi	s7, s7, 2047
80005088: 93 d9 c9 00  	srli	s3, s3, 12
8000508c: 13 db f5 01  	srli	s6, a1, 31
80005090: 63 8a 0b 02  	beqz	s7, 0x800050c4 <__muldf3+0x88>
80005094: 93 07 f0 7f  	li	a5, 2047
80005098: 63 8c fb 08  	beq	s7, a5, 0x80005130 <__muldf3+0xf4>
8000509c: 93 99 39 00  	slli	s3, s3, 3
800050a0: 93 57 d5 01  	srli	a5, a0, 29
800050a4: b3 e7 37 01  	or	a5, a5, s3
800050a8: b7 09 80 00  	lui	s3, 2048
800050ac: b3 e9 37 01  	or	s3, a5, s3
800050b0: 13 1a 35 00  	slli	s4, a0, 3
800050b4: 93 8b 1b c0  	addi	s7, s7, -1023
800050b8: 93 0c 00 00  	li	s9, 0
800050bc: 93 04 00 00  	li	s1, 0
800050c0: 6f 00 00 09  	j	0x80005150 <__muldf3+0x114>
800050c4: 33 ea a9 00  	or	s4, s3, a0
800050c8: 63 02 0a 12  	beqz	s4, 0x800051ec <__muldf3+0x1b0>
800050cc: 63 80 09 04  	beqz	s3, 0x8000510c <__muldf3+0xd0>
800050d0: 13 85 09 00  	mv	a0, s3
800050d4: ef 10 00 6d  	jal	0x800067a4 <__clzsi2>
800050d8: 13 07 55 ff  	addi	a4, a0, -11
800050dc: 93 07 d0 01  	li	a5, 29
800050e0: 93 06 85 ff  	addi	a3, a0, -8
800050e4: b3 87 e7 40  	sub	a5, a5, a4
800050e8: b3 99 d9 00  	sll	s3, s3, a3
800050ec: b3 57 f4 00  	srl	a5, s0, a5
800050f0: b3 e7 37 01  	or	a5, a5, s3
800050f4: b3 19 d4 00  	sll	s3, s0, a3
800050f8: 93 0b d0 c0  	li	s7, -1011
800050fc: 13 8a 09 00  	mv	s4, s3
80005100: b3 8b ab 40  	sub	s7, s7, a0
80005104: 93 89 07 00  	mv	s3, a5
80005108: 6f f0 1f fb  	j	0x800050b8 <__muldf3+0x7c>
8000510c: ef 10 80 69  	jal	0x800067a4 <__clzsi2>
80005110: 93 07 05 00  	mv	a5, a0
80005114: 13 87 57 01  	addi	a4, a5, 21
80005118: 93 06 c0 01  	li	a3, 28
8000511c: 13 05 05 02  	addi	a0, a0, 32
80005120: e3 de e6 fa  	bge	a3, a4, 0x800050dc <__muldf3+0xa0>
80005124: 93 87 87 ff  	addi	a5, a5, -8
80005128: b3 17 f4 00  	sll	a5, s0, a5
8000512c: 6f f0 df fc  	j	0x800050f8 <__muldf3+0xbc>
80005130: 33 ea a9 00  	or	s4, s3, a0
80005134: 63 04 0a 0c  	beqz	s4, 0x800051fc <__muldf3+0x1c0>
80005138: b7 04 08 00  	lui	s1, 128
8000513c: b3 b4 99 00  	sltu	s1, s3, s1
80005140: 93 94 44 00  	slli	s1, s1, 4
80005144: 13 0a 05 00  	mv	s4, a0
80005148: 93 0b f0 7f  	li	s7, 2047
8000514c: 93 0c 30 00  	li	s9, 3
80005150: 13 d7 4a 01  	srli	a4, s5, 20
80005154: 13 94 ca 00  	slli	s0, s5, 12
80005158: 13 77 f7 7f  	andi	a4, a4, 2047
8000515c: 93 07 0c 00  	mv	a5, s8
80005160: 13 54 c4 00  	srli	s0, s0, 12
80005164: 93 da fa 01  	srli	s5, s5, 31
80005168: 63 02 07 0a  	beqz	a4, 0x8000520c <__muldf3+0x1d0>
8000516c: 93 06 f0 7f  	li	a3, 2047
80005170: 63 06 d7 10  	beq	a4, a3, 0x8000527c <__muldf3+0x240>
80005174: 13 14 34 00  	slli	s0, s0, 3
80005178: 93 57 dc 01  	srli	a5, s8, 29
8000517c: b3 e7 87 00  	or	a5, a5, s0
80005180: 37 04 80 00  	lui	s0, 2048
80005184: 33 e4 87 00  	or	s0, a5, s0
80005188: 93 06 17 c0  	addi	a3, a4, -1023
8000518c: 93 17 3c 00  	slli	a5, s8, 3
80005190: 93 05 00 00  	li	a1, 0
80005194: 13 97 2c 00  	slli	a4, s9, 2
80005198: b3 8b db 00  	add	s7, s7, a3
8000519c: 33 67 b7 00  	or	a4, a4, a1
800051a0: 93 06 a0 00  	li	a3, 10
800051a4: 33 48 5b 01  	xor	a6, s6, s5
800051a8: 93 88 1b 00  	addi	a7, s7, 1
800051ac: 63 cc e6 32  	blt	a3, a4, 0x800054e4 <__muldf3+0x4a8>
800051b0: 93 06 20 00  	li	a3, 2
800051b4: 63 c8 e6 10  	blt	a3, a4, 0x800052c4 <__muldf3+0x288>
800051b8: 13 07 f7 ff  	addi	a4, a4, -1
800051bc: 93 06 10 00  	li	a3, 1
800051c0: 63 e2 e6 12  	bltu	a3, a4, 0x800052e4 <__muldf3+0x2a8>
800051c4: 93 8c 05 00  	mv	s9, a1
800051c8: 13 07 20 00  	li	a4, 2
800051cc: 63 86 ec 60  	beq	s9, a4, 0x800057d8 <__muldf3+0x79c>
800051d0: 13 07 30 00  	li	a4, 3
800051d4: 63 8a ec 60  	beq	s9, a4, 0x800057e8 <__muldf3+0x7ac>
800051d8: 13 07 10 00  	li	a4, 1
800051dc: 63 90 ec 2c  	bne	s9, a4, 0x8000549c <__muldf3+0x460>
800051e0: 93 06 00 00  	li	a3, 0
800051e4: 13 06 00 00  	li	a2, 0
800051e8: 6f 00 80 5b  	j	0x800057a0 <__muldf3+0x764>
800051ec: 93 09 00 00  	li	s3, 0
800051f0: 93 0b 00 00  	li	s7, 0
800051f4: 93 0c 10 00  	li	s9, 1
800051f8: 6f f0 5f ec  	j	0x800050bc <__muldf3+0x80>
800051fc: 93 09 00 00  	li	s3, 0
80005200: 93 0b f0 7f  	li	s7, 2047
80005204: 93 0c 20 00  	li	s9, 2
80005208: 6f f0 5f eb  	j	0x800050bc <__muldf3+0x80>
8000520c: b3 67 84 01  	or	a5, s0, s8
80005210: 63 86 07 08  	beqz	a5, 0x8000529c <__muldf3+0x260>
80005214: 63 00 04 04  	beqz	s0, 0x80005254 <__muldf3+0x218>
80005218: 13 05 04 00  	mv	a0, s0
8000521c: ef 10 80 58  	jal	0x800067a4 <__clzsi2>
80005220: 93 06 55 ff  	addi	a3, a0, -11
80005224: 13 07 d0 01  	li	a4, 29
80005228: 93 07 85 ff  	addi	a5, a0, -8
8000522c: 33 07 d7 40  	sub	a4, a4, a3
80005230: 33 14 f4 00  	sll	s0, s0, a5
80005234: 33 57 ec 00  	srl	a4, s8, a4
80005238: 33 67 87 00  	or	a4, a4, s0
8000523c: 33 14 fc 00  	sll	s0, s8, a5
80005240: 93 06 d0 c0  	li	a3, -1011
80005244: 93 07 04 00  	mv	a5, s0
80005248: b3 86 a6 40  	sub	a3, a3, a0
8000524c: 13 04 07 00  	mv	s0, a4
80005250: 6f f0 1f f4  	j	0x80005190 <__muldf3+0x154>
80005254: 13 05 0c 00  	mv	a0, s8
80005258: ef 10 c0 54  	jal	0x800067a4 <__clzsi2>
8000525c: 93 07 05 00  	mv	a5, a0
80005260: 93 86 57 01  	addi	a3, a5, 21
80005264: 13 07 c0 01  	li	a4, 28
80005268: 13 05 05 02  	addi	a0, a0, 32
8000526c: e3 5c d7 fa  	bge	a4, a3, 0x80005224 <__muldf3+0x1e8>
80005270: 93 87 87 ff  	addi	a5, a5, -8
80005274: 33 17 fc 00  	sll	a4, s8, a5
80005278: 6f f0 9f fc  	j	0x80005240 <__muldf3+0x204>
8000527c: 33 6c 84 01  	or	s8, s0, s8
80005280: 63 08 0c 02  	beqz	s8, 0x800052b0 <__muldf3+0x274>
80005284: 37 07 08 00  	lui	a4, 128
80005288: 93 06 f0 7f  	li	a3, 2047
8000528c: 93 05 30 00  	li	a1, 3
80005290: e3 72 e4 f0  	bgeu	s0, a4, 0x80005194 <__muldf3+0x158>
80005294: 93 04 00 01  	li	s1, 16
80005298: 6f f0 df ef  	j	0x80005194 <__muldf3+0x158>
8000529c: 13 04 00 00  	li	s0, 0
800052a0: 93 07 00 00  	li	a5, 0
800052a4: 93 06 00 00  	li	a3, 0
800052a8: 93 05 10 00  	li	a1, 1
800052ac: 6f f0 9f ee  	j	0x80005194 <__muldf3+0x158>
800052b0: 13 04 00 00  	li	s0, 0
800052b4: 93 07 00 00  	li	a5, 0
800052b8: 93 06 f0 7f  	li	a3, 2047
800052bc: 93 05 20 00  	li	a1, 2
800052c0: 6f f0 5f ed  	j	0x80005194 <__muldf3+0x158>
800052c4: 93 06 10 00  	li	a3, 1
800052c8: 33 97 e6 00  	sll	a4, a3, a4
800052cc: 13 76 07 53  	andi	a2, a4, 1328
800052d0: 63 14 06 22  	bnez	a2, 0x800054f8 <__muldf3+0x4bc>
800052d4: 93 76 07 24  	andi	a3, a4, 576
800052d8: 63 96 06 4e  	bnez	a3, 0x800057c4 <__muldf3+0x788>
800052dc: 13 77 87 08  	andi	a4, a4, 136
800052e0: 63 12 07 22  	bnez	a4, 0x80005504 <__muldf3+0x4c8>
800052e4: 37 03 01 00  	lui	t1, 16
800052e8: 93 05 f3 ff  	addi	a1, t1, -1
800052ec: 13 57 0a 01  	srli	a4, s4, 16
800052f0: 13 d5 07 01  	srli	a0, a5, 16
800052f4: 33 7a ba 00  	and	s4, s4, a1
800052f8: b3 f2 b7 00  	and	t0, a5, a1
800052fc: b3 87 42 03  	mul	a5, t0, s4
80005300: 33 0e 57 02  	mul	t3, a4, t0
80005304: 13 d6 07 01  	srli	a2, a5, 16
80005308: b3 06 45 03  	mul	a3, a0, s4
8000530c: b3 86 c6 01  	add	a3, a3, t3
80005310: 33 06 d6 00  	add	a2, a2, a3
80005314: b3 0e a7 02  	mul	t4, a4, a0
80005318: 63 74 c6 01  	bgeu	a2, t3, 0x80005320 <__muldf3+0x2e4>
8000531c: b3 8e 6e 00  	add	t4, t4, t1
80005320: 93 56 06 01  	srli	a3, a2, 16
80005324: 33 76 b6 00  	and	a2, a2, a1
80005328: b3 f7 b7 00  	and	a5, a5, a1
8000532c: 13 5f 04 01  	srli	t5, s0, 16
80005330: b3 75 b4 00  	and	a1, s0, a1
80005334: 13 16 06 01  	slli	a2, a2, 16
80005338: 33 06 f6 00  	add	a2, a2, a5
8000533c: 33 04 ba 02  	mul	s0, s4, a1
80005340: b3 07 b7 02  	mul	a5, a4, a1
80005344: 33 0a 4f 03  	mul	s4, t5, s4
80005348: 33 0e e7 03  	mul	t3, a4, t5
8000534c: 33 0a fa 00  	add	s4, s4, a5
80005350: 13 57 04 01  	srli	a4, s0, 16
80005354: 33 07 47 01  	add	a4, a4, s4
80005358: 63 76 f7 00  	bgeu	a4, a5, 0x80005364 <__muldf3+0x328>
8000535c: b7 07 01 00  	lui	a5, 16
80005360: 33 0e fe 00  	add	t3, t3, a5
80005364: b7 03 01 00  	lui	t2, 16
80005368: 93 8f f3 ff  	addi	t6, t2, -1
8000536c: b3 77 f7 01  	and	a5, a4, t6
80005370: 13 53 07 01  	srli	t1, a4, 16
80005374: 33 74 f4 01  	and	s0, s0, t6
80005378: 33 03 c3 01  	add	t1, t1, t3
8000537c: b3 ff f9 01  	and	t6, s3, t6
80005380: 13 de 09 01  	srli	t3, s3, 16
80005384: 93 97 07 01  	slli	a5, a5, 16
80005388: b3 87 87 00  	add	a5, a5, s0
8000538c: b3 09 c5 03  	mul	s3, a0, t3
80005390: b3 86 f6 00  	add	a3, a3, a5
80005394: 33 84 f2 03  	mul	s0, t0, t6
80005398: 33 05 f5 03  	mul	a0, a0, t6
8000539c: 13 57 04 01  	srli	a4, s0, 16
800053a0: b3 02 5e 02  	mul	t0, t3, t0
800053a4: 33 05 55 00  	add	a0, a0, t0
800053a8: 33 07 a7 00  	add	a4, a4, a0
800053ac: 63 74 57 00  	bgeu	a4, t0, 0x800053b4 <__muldf3+0x378>
800053b0: b3 89 79 00  	add	s3, s3, t2
800053b4: 13 55 07 01  	srli	a0, a4, 16
800053b8: 33 05 35 01  	add	a0, a0, s3
800053bc: b7 09 01 00  	lui	s3, 16
800053c0: 93 83 f9 ff  	addi	t2, s3, -1
800053c4: 33 77 77 00  	and	a4, a4, t2
800053c8: 13 17 07 01  	slli	a4, a4, 16
800053cc: 33 74 74 00  	and	s0, s0, t2
800053d0: b3 02 87 00  	add	t0, a4, s0
800053d4: 33 84 bf 02  	mul	s0, t6, a1
800053d8: b3 05 be 02  	mul	a1, t3, a1
800053dc: 13 57 04 01  	srli	a4, s0, 16
800053e0: 33 0e cf 03  	mul	t3, t5, t3
800053e4: 33 0f ff 03  	mul	t5, t5, t6
800053e8: 33 0f bf 00  	add	t5, t5, a1
800053ec: 33 0f e7 01  	add	t5, a4, t5
800053f0: 63 74 bf 00  	bgeu	t5, a1, 0x800053f8 <__muldf3+0x3bc>
800053f4: 33 0e 3e 01  	add	t3, t3, s3
800053f8: 33 77 7f 00  	and	a4, t5, t2
800053fc: 33 74 74 00  	and	s0, s0, t2
80005400: 13 17 07 01  	slli	a4, a4, 16
80005404: b3 86 d6 01  	add	a3, a3, t4
80005408: 33 07 87 00  	add	a4, a4, s0
8000540c: 33 03 67 00  	add	t1, a4, t1
80005410: b3 b7 f6 00  	sltu	a5, a3, a5
80005414: b3 07 f3 00  	add	a5, t1, a5
80005418: b3 85 56 00  	add	a1, a3, t0
8000541c: 33 85 a7 00  	add	a0, a5, a0
80005420: b3 b6 d5 00  	sltu	a3, a1, a3
80005424: b3 06 d5 00  	add	a3, a0, a3
80005428: 33 37 e3 00  	sltu	a4, t1, a4
8000542c: 33 b3 67 00  	sltu	t1, a5, t1
80005430: 33 34 f5 00  	sltu	s0, a0, a5
80005434: 33 67 67 00  	or	a4, a4, t1
80005438: 33 b5 a6 00  	sltu	a0, a3, a0
8000543c: 13 5f 0f 01  	srli	t5, t5, 16
80005440: 33 07 e7 01  	add	a4, a4, t5
80005444: 33 64 a4 00  	or	s0, s0, a0
80005448: 33 04 e4 00  	add	s0, s0, a4
8000544c: 33 04 c4 01  	add	s0, s0, t3
80005450: 93 d7 76 01  	srli	a5, a3, 23
80005454: 13 14 94 00  	slli	s0, s0, 9
80005458: 33 64 f4 00  	or	s0, s0, a5
8000545c: 93 97 95 00  	slli	a5, a1, 9
80005460: b3 e7 c7 00  	or	a5, a5, a2
80005464: b3 37 f0 00  	snez	a5, a5
80005468: 93 d5 75 01  	srli	a1, a1, 23
8000546c: 37 07 00 01  	lui	a4, 4096
80005470: b3 e7 b7 00  	or	a5, a5, a1
80005474: 93 96 96 00  	slli	a3, a3, 9
80005478: 33 77 e4 00  	and	a4, s0, a4
8000547c: b3 e7 d7 00  	or	a5, a5, a3
80005480: 63 06 07 08  	beqz	a4, 0x8000550c <__muldf3+0x4d0>
80005484: 13 d7 17 00  	srli	a4, a5, 1
80005488: 93 f7 17 00  	andi	a5, a5, 1
8000548c: 33 67 f7 00  	or	a4, a4, a5
80005490: 93 17 f4 01  	slli	a5, s0, 31
80005494: b3 67 f7 00  	or	a5, a4, a5
80005498: 13 54 14 00  	srli	s0, s0, 1
8000549c: 13 87 f8 3f  	addi	a4, a7, 1023
800054a0: 63 5a e0 14  	blez	a4, 0x800055f4 <__muldf3+0x5b8>
800054a4: 93 f6 77 00  	andi	a3, a5, 7
800054a8: 63 8e 06 06  	beqz	a3, 0x80005524 <__muldf3+0x4e8>
800054ac: 93 06 20 00  	li	a3, 2
800054b0: 93 e4 14 00  	ori	s1, s1, 1
800054b4: 63 06 d9 06  	beq	s2, a3, 0x80005520 <__muldf3+0x4e4>
800054b8: 93 06 30 00  	li	a3, 3
800054bc: 63 0c d9 04  	beq	s2, a3, 0x80005514 <__muldf3+0x4d8>
800054c0: 63 12 09 06  	bnez	s2, 0x80005524 <__muldf3+0x4e8>
800054c4: 93 f6 f7 00  	andi	a3, a5, 15
800054c8: 13 06 40 00  	li	a2, 4
800054cc: 63 8c c6 04  	beq	a3, a2, 0x80005524 <__muldf3+0x4e8>
800054d0: 93 86 47 00  	addi	a3, a5, 4
800054d4: 33 b6 f6 00  	sltu	a2, a3, a5
800054d8: 33 04 c4 00  	add	s0, s0, a2
800054dc: 93 87 06 00  	mv	a5, a3
800054e0: 6f 00 40 04  	j	0x80005524 <__muldf3+0x4e8>
800054e4: 93 06 f0 00  	li	a3, 15
800054e8: 63 00 d7 30  	beq	a4, a3, 0x800057e8 <__muldf3+0x7ac>
800054ec: 93 06 b0 00  	li	a3, 11
800054f0: 63 0a d7 00  	beq	a4, a3, 0x80005504 <__muldf3+0x4c8>
800054f4: 13 08 0b 00  	mv	a6, s6
800054f8: 13 84 09 00  	mv	s0, s3
800054fc: 93 07 0a 00  	mv	a5, s4
80005500: 6f f0 9f cc  	j	0x800051c8 <__muldf3+0x18c>
80005504: 13 88 0a 00  	mv	a6, s5
80005508: 6f f0 df cb  	j	0x800051c4 <__muldf3+0x188>
8000550c: 93 88 0b 00  	mv	a7, s7
80005510: 6f f0 df f8  	j	0x8000549c <__muldf3+0x460>
80005514: 63 18 08 00  	bnez	a6, 0x80005524 <__muldf3+0x4e8>
80005518: 93 86 87 00  	addi	a3, a5, 8
8000551c: 6f f0 9f fb  	j	0x800054d4 <__muldf3+0x498>
80005520: e3 1c 08 fe  	bnez	a6, 0x80005518 <__muldf3+0x4dc>
80005524: b7 06 00 01  	lui	a3, 4096
80005528: b3 76 d4 00  	and	a3, s0, a3
8000552c: 63 8a 06 00  	beqz	a3, 0x80005540 <__muldf3+0x504>
80005530: 37 07 00 ff  	lui	a4, 1044480
80005534: 13 07 f7 ff  	addi	a4, a4, -1
80005538: 33 74 e4 00  	and	s0, s0, a4
8000553c: 13 87 08 40  	addi	a4, a7, 1024
80005540: 93 06 e0 7f  	li	a3, 2046
80005544: 63 c8 e6 06  	blt	a3, a4, 0x800055b4 <__muldf3+0x578>
80005548: 93 d7 37 00  	srli	a5, a5, 3
8000554c: 13 16 d4 01  	slli	a2, s0, 29
80005550: 33 66 f6 00  	or	a2, a2, a5
80005554: 93 56 34 00  	srli	a3, s0, 3
80005558: 93 96 c6 00  	slli	a3, a3, 12
8000555c: 13 17 47 01  	slli	a4, a4, 20
80005560: 93 d6 c6 00  	srli	a3, a3, 12
80005564: 33 67 d7 00  	or	a4, a4, a3
80005568: 13 18 f8 01  	slli	a6, a6, 31
8000556c: b3 67 07 01  	or	a5, a4, a6
80005570: 13 05 06 00  	mv	a0, a2
80005574: 93 85 07 00  	mv	a1, a5
80005578: 63 84 04 00  	beqz	s1, 0x80005580 <__muldf3+0x544>
8000557c: 73 a0 14 00  	csrs	fflags, s1
80005580: 83 20 c1 02  	lw	ra, 44(sp)
80005584: 03 24 81 02  	lw	s0, 40(sp)
80005588: 83 24 41 02  	lw	s1, 36(sp)
8000558c: 03 29 01 02  	lw	s2, 32(sp)
80005590: 83 29 c1 01  	lw	s3, 28(sp)
80005594: 03 2a 81 01  	lw	s4, 24(sp)
80005598: 83 2a 41 01  	lw	s5, 20(sp)
8000559c: 03 2b 01 01  	lw	s6, 16(sp)
800055a0: 83 2b c1 00  	lw	s7, 12(sp)
800055a4: 03 2c 81 00  	lw	s8, 8(sp)
800055a8: 83 2c 41 00  	lw	s9, 4(sp)
800055ac: 13 01 01 03  	addi	sp, sp, 48
800055b0: 67 80 00 00  	ret
800055b4: 93 07 20 00  	li	a5, 2
800055b8: 63 0a f9 02  	beq	s2, a5, 0x800055ec <__muldf3+0x5b0>
800055bc: 93 07 30 00  	li	a5, 3
800055c0: 63 0a f9 00  	beq	s2, a5, 0x800055d4 <__muldf3+0x598>
800055c4: 63 0a 09 00  	beqz	s2, 0x800055d8 <__muldf3+0x59c>
800055c8: 13 06 f0 ff  	li	a2, -1
800055cc: 13 07 e0 7f  	li	a4, 2046
800055d0: 6f 00 00 01  	j	0x800055e0 <__muldf3+0x5a4>
800055d4: e3 1a 08 fe  	bnez	a6, 0x800055c8 <__muldf3+0x58c>
800055d8: 13 06 00 00  	li	a2, 0
800055dc: 13 07 f0 7f  	li	a4, 2047
800055e0: 93 e4 54 00  	ori	s1, s1, 5
800055e4: 93 06 06 00  	mv	a3, a2
800055e8: 6f f0 1f f7  	j	0x80005558 <__muldf3+0x51c>
800055ec: e3 0e 08 fc  	beqz	a6, 0x800055c8 <__muldf3+0x58c>
800055f0: 6f f0 9f fe  	j	0x800055d8 <__muldf3+0x59c>
800055f4: 63 12 07 0c  	bnez	a4, 0x800056b8 <__muldf3+0x67c>
800055f8: 93 f6 77 00  	andi	a3, a5, 7
800055fc: 13 07 04 00  	mv	a4, s0
80005600: 63 84 06 04  	beqz	a3, 0x80005648 <__muldf3+0x60c>
80005604: 93 06 20 00  	li	a3, 2
80005608: 93 e4 14 00  	ori	s1, s1, 1
8000560c: 63 0c d9 02  	beq	s2, a3, 0x80005644 <__muldf3+0x608>
80005610: 93 06 30 00  	li	a3, 3
80005614: 63 02 d9 02  	beq	s2, a3, 0x80005638 <__muldf3+0x5fc>
80005618: 63 18 09 02  	bnez	s2, 0x80005648 <__muldf3+0x60c>
8000561c: 93 f6 f7 00  	andi	a3, a5, 15
80005620: 13 06 40 00  	li	a2, 4
80005624: 63 82 c6 02  	beq	a3, a2, 0x80005648 <__muldf3+0x60c>
80005628: 13 b7 c7 ff  	sltiu	a4, a5, -4
8000562c: 13 47 17 00  	xori	a4, a4, 1
80005630: 33 07 87 00  	add	a4, a4, s0
80005634: 6f 00 40 01  	j	0x80005648 <__muldf3+0x60c>
80005638: 63 18 08 00  	bnez	a6, 0x80005648 <__muldf3+0x60c>
8000563c: 13 b7 87 ff  	sltiu	a4, a5, -8
80005640: 6f f0 df fe  	j	0x8000562c <__muldf3+0x5f0>
80005644: e3 1c 08 fe  	bnez	a6, 0x8000563c <__muldf3+0x600>
80005648: 13 57 87 01  	srli	a4, a4, 24
8000564c: 13 47 17 00  	xori	a4, a4, 1
80005650: 13 77 17 00  	andi	a4, a4, 1
80005654: 93 06 10 00  	li	a3, 1
80005658: 93 88 e8 41  	addi	a7, a7, 1054
8000565c: 33 d6 d7 00  	srl	a2, a5, a3
80005660: b3 97 17 01  	sll	a5, a5, a7
80005664: b3 37 f0 00  	snez	a5, a5
80005668: b3 18 14 01  	sll	a7, s0, a7
8000566c: b3 e7 17 01  	or	a5, a5, a7
80005670: b3 67 f6 00  	or	a5, a2, a5
80005674: b3 56 d4 00  	srl	a3, s0, a3
80005678: 13 f6 77 00  	andi	a2, a5, 7
8000567c: 63 02 06 0a  	beqz	a2, 0x80005720 <__muldf3+0x6e4>
80005680: 13 06 20 00  	li	a2, 2
80005684: 93 e4 14 00  	ori	s1, s1, 1
80005688: 63 0a c9 08  	beq	s2, a2, 0x8000571c <__muldf3+0x6e0>
8000568c: 13 06 30 00  	li	a2, 3
80005690: 63 00 c9 08  	beq	s2, a2, 0x80005710 <__muldf3+0x6d4>
80005694: 63 16 09 08  	bnez	s2, 0x80005720 <__muldf3+0x6e4>
80005698: 13 f6 f7 00  	andi	a2, a5, 15
8000569c: 93 05 40 00  	li	a1, 4
800056a0: 63 00 b6 08  	beq	a2, a1, 0x80005720 <__muldf3+0x6e4>
800056a4: 13 86 47 00  	addi	a2, a5, 4
800056a8: b3 35 f6 00  	sltu	a1, a2, a5
800056ac: b3 86 b6 00  	add	a3, a3, a1
800056b0: 93 07 06 00  	mv	a5, a2
800056b4: 6f 00 c0 06  	j	0x80005720 <__muldf3+0x6e4>
800056b8: 93 06 10 00  	li	a3, 1
800056bc: b3 86 e6 40  	sub	a3, a3, a4
800056c0: 13 06 80 03  	li	a2, 56
800056c4: 63 44 d6 0a  	blt	a2, a3, 0x8000576c <__muldf3+0x730>
800056c8: 13 06 f0 01  	li	a2, 31
800056cc: 63 46 d6 00  	blt	a2, a3, 0x800056d8 <__muldf3+0x69c>
800056d0: 13 07 10 00  	li	a4, 1
800056d4: 6f f0 5f f8  	j	0x80005658 <__muldf3+0x61c>
800056d8: 13 06 10 fe  	li	a2, -31
800056dc: 33 07 e6 40  	sub	a4, a2, a4
800056e0: 93 05 00 02  	li	a1, 32
800056e4: 33 57 e4 00  	srl	a4, s0, a4
800056e8: 13 06 00 00  	li	a2, 0
800056ec: 63 86 b6 00  	beq	a3, a1, 0x800056f8 <__muldf3+0x6bc>
800056f0: 93 88 e8 43  	addi	a7, a7, 1086
800056f4: 33 16 14 01  	sll	a2, s0, a7
800056f8: 33 66 f6 00  	or	a2, a2, a5
800056fc: 33 36 c0 00  	snez	a2, a2
80005700: b3 67 c7 00  	or	a5, a4, a2
80005704: 93 06 00 00  	li	a3, 0
80005708: 13 07 10 00  	li	a4, 1
8000570c: 6f f0 df f6  	j	0x80005678 <__muldf3+0x63c>
80005710: 63 18 08 00  	bnez	a6, 0x80005720 <__muldf3+0x6e4>
80005714: 13 86 87 00  	addi	a2, a5, 8
80005718: 6f f0 1f f9  	j	0x800056a8 <__muldf3+0x66c>
8000571c: e3 1c 08 fe  	bnez	a6, 0x80005714 <__muldf3+0x6d8>
80005720: 37 06 80 00  	lui	a2, 2048
80005724: 33 f6 c6 00  	and	a2, a3, a2
80005728: 63 0e 06 00  	beqz	a2, 0x80005744 <__muldf3+0x708>
8000572c: 93 e4 14 00  	ori	s1, s1, 1
80005730: 93 06 00 00  	li	a3, 0
80005734: 13 06 00 00  	li	a2, 0
80005738: 63 16 07 02  	bnez	a4, 0x80005764 <__muldf3+0x728>
8000573c: 13 07 10 00  	li	a4, 1
80005740: 6f f0 9f e1  	j	0x80005558 <__muldf3+0x51c>
80005744: 13 96 d6 01  	slli	a2, a3, 29
80005748: 93 d7 37 00  	srli	a5, a5, 3
8000574c: 33 66 f6 00  	or	a2, a2, a5
80005750: 93 d6 36 00  	srli	a3, a3, 3
80005754: e3 02 07 e0  	beqz	a4, 0x80005558 <__muldf3+0x51c>
80005758: 13 f7 14 00  	andi	a4, s1, 1
8000575c: e3 0e 07 de  	beqz	a4, 0x80005558 <__muldf3+0x51c>
80005760: 13 07 00 00  	li	a4, 0
80005764: 93 e4 24 00  	ori	s1, s1, 2
80005768: 6f f0 1f df  	j	0x80005558 <__muldf3+0x51c>
8000576c: 33 e6 87 00  	or	a2, a5, s0
80005770: 63 04 06 02  	beqz	a2, 0x80005798 <__muldf3+0x75c>
80005774: 93 07 20 00  	li	a5, 2
80005778: 93 e4 14 00  	ori	s1, s1, 1
8000577c: 63 0e f9 02  	beq	s2, a5, 0x800057b8 <__muldf3+0x77c>
80005780: 93 07 30 00  	li	a5, 3
80005784: 63 02 f9 02  	beq	s2, a5, 0x800057a8 <__muldf3+0x76c>
80005788: 13 06 50 00  	li	a2, 5
8000578c: 63 04 09 00  	beqz	s2, 0x80005794 <__muldf3+0x758>
80005790: 13 06 10 00  	li	a2, 1
80005794: 13 56 36 00  	srli	a2, a2, 3
80005798: 93 e4 24 00  	ori	s1, s1, 2
8000579c: 93 06 00 00  	li	a3, 0
800057a0: 13 07 00 00  	li	a4, 0
800057a4: 6f f0 5f db  	j	0x80005558 <__muldf3+0x51c>
800057a8: 13 06 10 00  	li	a2, 1
800057ac: e3 14 08 fe  	bnez	a6, 0x80005794 <__muldf3+0x758>
800057b0: 13 06 90 00  	li	a2, 9
800057b4: 6f f0 1f fe  	j	0x80005794 <__muldf3+0x758>
800057b8: 13 06 10 00  	li	a2, 1
800057bc: e3 0c 08 fc  	beqz	a6, 0x80005794 <__muldf3+0x758>
800057c0: 6f f0 1f ff  	j	0x800057b0 <__muldf3+0x774>
800057c4: b7 06 08 00  	lui	a3, 128
800057c8: 13 07 f0 7f  	li	a4, 2047
800057cc: 13 08 00 00  	li	a6, 0
800057d0: 93 04 00 01  	li	s1, 16
800057d4: 6f f0 5f d8  	j	0x80005558 <__muldf3+0x51c>
800057d8: 93 06 00 00  	li	a3, 0
800057dc: 13 06 00 00  	li	a2, 0
800057e0: 13 07 f0 7f  	li	a4, 2047
800057e4: 6f f0 5f d7  	j	0x80005558 <__muldf3+0x51c>
800057e8: b7 06 08 00  	lui	a3, 128
800057ec: 13 06 00 00  	li	a2, 0
800057f0: 13 07 f0 7f  	li	a4, 2047
800057f4: 13 08 00 00  	li	a6, 0
800057f8: 6f f0 1f d6  	j	0x80005558 <__muldf3+0x51c>

800057fc <__subdf3>:
800057fc: 13 01 01 fe  	addi	sp, sp, -32
80005800: 23 2e 11 00  	sw	ra, 28(sp)
80005804: 23 2c 81 00  	sw	s0, 24(sp)
80005808: 23 2a 91 00  	sw	s1, 20(sp)
8000580c: 23 28 21 01  	sw	s2, 16(sp)
80005810: 23 26 31 01  	sw	s3, 12(sp)
80005814: 23 24 41 01  	sw	s4, 8(sp)
80005818: f3 29 20 00  	frrm	s3
8000581c: b7 07 10 00  	lui	a5, 256
80005820: 93 87 f7 ff  	addi	a5, a5, -1
80005824: 33 f7 b7 00  	and	a4, a5, a1
80005828: 13 17 37 00  	slli	a4, a4, 3
8000582c: 93 58 d5 01  	srli	a7, a0, 29
80005830: b3 f7 d7 00  	and	a5, a5, a3
80005834: b3 e8 e8 00  	or	a7, a7, a4
80005838: 13 d7 46 01  	srli	a4, a3, 20
8000583c: 13 d4 45 01  	srli	s0, a1, 20
80005840: 13 58 d6 01  	srli	a6, a2, 29
80005844: 93 d4 f5 01  	srli	s1, a1, 31
80005848: 93 97 37 00  	slli	a5, a5, 3
8000584c: 13 77 f7 7f  	andi	a4, a4, 2047
80005850: 93 05 f0 7f  	li	a1, 2047
80005854: 13 74 f4 7f  	andi	s0, s0, 2047
80005858: 13 15 35 00  	slli	a0, a0, 3
8000585c: 93 d6 f6 01  	srli	a3, a3, 31
80005860: 33 68 f8 00  	or	a6, a6, a5
80005864: 13 16 36 00  	slli	a2, a2, 3
80005868: 63 18 b7 04  	bne	a4, a1, 0x800058b8 <__subdf3+0xbc>
8000586c: b3 65 c8 00  	or	a1, a6, a2
80005870: 93 07 14 80  	addi	a5, s0, -2047
80005874: 63 84 05 02  	beqz	a1, 0x8000589c <__subdf3+0xa0>
80005878: 13 83 06 00  	mv	t1, a3
8000587c: 63 9c d4 5e  	bne	s1, a3, 0x80005e74 <__subdf3+0x678>
80005880: 63 80 07 2c  	beqz	a5, 0x80005b40 <__subdf3+0x344>
80005884: 63 06 04 02  	beqz	s0, 0x800058b0 <__subdf3+0xb4>
80005888: 93 57 68 01  	srli	a5, a6, 22
8000588c: 93 c7 17 00  	xori	a5, a5, 1
80005890: 93 f7 17 00  	andi	a5, a5, 1
80005894: 93 97 47 00  	slli	a5, a5, 4
80005898: 6f 00 c0 07  	j	0x80005914 <__subdf3+0x118>
8000589c: 13 c3 16 00  	xori	t1, a3, 1
800058a0: 63 9a 64 5e  	bne	s1, t1, 0x80005e94 <__subdf3+0x698>
800058a4: 63 8e 07 28  	beqz	a5, 0x80005b40 <__subdf3+0x344>
800058a8: 93 06 00 00  	li	a3, 0
800058ac: 63 1c 04 5e  	bnez	s0, 0x80005ea4 <__subdf3+0x6a8>
800058b0: 13 04 f0 7f  	li	s0, 2047
800058b4: 6f 00 00 20  	j	0x80005ab4 <__subdf3+0x2b8>
800058b8: 13 c3 16 00  	xori	t1, a3, 1
800058bc: b3 07 e4 40  	sub	a5, s0, a4
800058c0: 63 90 64 4c  	bne	s1, t1, 0x80005d80 <__subdf3+0x584>
800058c4: 63 58 f0 18  	blez	a5, 0x80005a54 <__subdf3+0x258>
800058c8: 63 16 07 0a  	bnez	a4, 0x80005974 <__subdf3+0x178>
800058cc: b3 67 c8 00  	or	a5, a6, a2
800058d0: 63 9e 07 00  	bnez	a5, 0x800058ec <__subdf3+0xf0>
800058d4: 63 0e b4 06  	beq	s0, a1, 0x80005950 <__subdf3+0x154>
800058d8: 13 88 08 00  	mv	a6, a7
800058dc: 13 06 05 00  	mv	a2, a0
800058e0: 93 07 00 00  	li	a5, 0
800058e4: 13 07 04 00  	mv	a4, s0
800058e8: 6f 00 c0 02  	j	0x80005914 <__subdf3+0x118>
800058ec: 93 07 f4 ff  	addi	a5, s0, -1
800058f0: 63 9e 07 04  	bnez	a5, 0x8000594c <__subdf3+0x150>
800058f4: 33 06 c5 00  	add	a2, a0, a2
800058f8: 33 88 08 01  	add	a6, a7, a6
800058fc: 33 35 a6 00  	sltu	a0, a2, a0
80005900: 33 08 a8 00  	add	a6, a6, a0
80005904: 37 07 80 00  	lui	a4, 2048
80005908: 33 77 e8 00  	and	a4, a6, a4
8000590c: 63 1a 07 42  	bnez	a4, 0x80005d40 <__subdf3+0x544>
80005910: 13 07 10 00  	li	a4, 1
80005914: 93 76 76 00  	andi	a3, a2, 7
80005918: 93 08 08 00  	mv	a7, a6
8000591c: 13 05 06 00  	mv	a0, a2
80005920: e3 80 06 26  	beqz	a3, 0x80006380 <__subdf3+0xb84>
80005924: 93 06 00 00  	li	a3, 0
80005928: 13 06 20 00  	li	a2, 2
8000592c: 93 e7 17 00  	ori	a5, a5, 1
80005930: 63 90 c9 3c  	bne	s3, a2, 0x80005cf0 <__subdf3+0x4f4>
80005934: 63 82 04 3e  	beqz	s1, 0x80005d18 <__subdf3+0x51c>
80005938: 13 06 85 00  	addi	a2, a0, 8
8000593c: b3 35 a6 00  	sltu	a1, a2, a0
80005940: b3 88 b8 00  	add	a7, a7, a1
80005944: 13 05 06 00  	mv	a0, a2
80005948: 6f 00 50 23  	j	0x8000637c <__subdf3+0xb80>
8000594c: 63 10 b4 0c  	bne	s0, a1, 0x80005a0c <__subdf3+0x210>
80005950: b3 e6 a8 00  	or	a3, a7, a0
80005954: e3 8a 06 30  	beqz	a3, 0x80006468 <__subdf3+0xc6c>
80005958: 93 d7 68 01  	srli	a5, a7, 22
8000595c: 93 c7 17 00  	xori	a5, a5, 1
80005960: 93 f7 17 00  	andi	a5, a5, 1
80005964: 93 97 47 00  	slli	a5, a5, 4
80005968: 13 88 08 00  	mv	a6, a7
8000596c: 13 06 05 00  	mv	a2, a0
80005970: 6f 00 00 18  	j	0x80005af0 <__subdf3+0x2f4>
80005974: 63 18 b4 00  	bne	s0, a1, 0x80005984 <__subdf3+0x188>
80005978: b3 e6 a8 00  	or	a3, a7, a0
8000597c: 63 86 06 22  	beqz	a3, 0x80005ba8 <__subdf3+0x3ac>
80005980: 6f f0 9f fd  	j	0x80005958 <__subdf3+0x15c>
80005984: 13 07 80 03  	li	a4, 56
80005988: 63 46 f7 08  	blt	a4, a5, 0x80005a14 <__subdf3+0x218>
8000598c: 37 07 80 00  	lui	a4, 2048
80005990: 33 68 e8 00  	or	a6, a6, a4
80005994: 13 07 f0 01  	li	a4, 31
80005998: 63 44 f7 08  	blt	a4, a5, 0x80005a20 <__subdf3+0x224>
8000599c: 93 06 00 02  	li	a3, 32
800059a0: b3 86 f6 40  	sub	a3, a3, a5
800059a4: 33 17 d8 00  	sll	a4, a6, a3
800059a8: b3 55 f6 00  	srl	a1, a2, a5
800059ac: b3 16 d6 00  	sll	a3, a2, a3
800059b0: 33 67 b7 00  	or	a4, a4, a1
800059b4: b3 36 d0 00  	snez	a3, a3
800059b8: 33 67 d7 00  	or	a4, a4, a3
800059bc: b3 57 f8 00  	srl	a5, a6, a5
800059c0: 33 06 a7 00  	add	a2, a4, a0
800059c4: 33 37 e6 00  	sltu	a4, a2, a4
800059c8: b3 87 17 01  	add	a5, a5, a7
800059cc: 33 88 e7 00  	add	a6, a5, a4
800059d0: 13 07 04 00  	mv	a4, s0
800059d4: b7 07 80 00  	lui	a5, 2048
800059d8: b3 77 f8 00  	and	a5, a6, a5
800059dc: 63 84 07 2e  	beqz	a5, 0x80005cc4 <__subdf3+0x4c8>
800059e0: 13 04 17 00  	addi	s0, a4, 1
800059e4: 93 07 f0 7f  	li	a5, 2047
800059e8: 63 1e f4 34  	bne	s0, a5, 0x80005d44 <__subdf3+0x548>
800059ec: 63 88 09 00  	beqz	s3, 0x800059fc <__subdf3+0x200>
800059f0: 93 07 30 00  	li	a5, 3
800059f4: 63 9e f9 36  	bne	s3, a5, 0x80005d70 <__subdf3+0x574>
800059f8: 63 92 04 2e  	bnez	s1, 0x80005cdc <__subdf3+0x4e0>
800059fc: 93 08 00 00  	li	a7, 0
80005a00: 93 06 00 00  	li	a3, 0
80005a04: 13 07 50 00  	li	a4, 5
80005a08: 6f 00 c0 21  	j	0x80005c24 <__subdf3+0x428>
80005a0c: 13 07 80 03  	li	a4, 56
80005a10: e3 52 f7 f8  	bge	a4, a5, 0x80005994 <__subdf3+0x198>
80005a14: 93 07 00 00  	li	a5, 0
80005a18: 13 07 10 00  	li	a4, 1
80005a1c: 6f f0 5f fa  	j	0x800059c0 <__subdf3+0x1c4>
80005a20: 13 87 07 fe  	addi	a4, a5, -32
80005a24: 93 05 00 02  	li	a1, 32
80005a28: 33 57 e8 00  	srl	a4, a6, a4
80005a2c: 93 06 00 00  	li	a3, 0
80005a30: 63 88 b7 00  	beq	a5, a1, 0x80005a40 <__subdf3+0x244>
80005a34: 93 06 00 04  	li	a3, 64
80005a38: b3 86 f6 40  	sub	a3, a3, a5
80005a3c: b3 16 d8 00  	sll	a3, a6, a3
80005a40: b3 e6 c6 00  	or	a3, a3, a2
80005a44: b3 36 d0 00  	snez	a3, a3
80005a48: 33 67 d7 00  	or	a4, a4, a3
80005a4c: 93 07 00 00  	li	a5, 0
80005a50: 6f f0 1f f7  	j	0x800059c0 <__subdf3+0x1c4>
80005a54: 63 86 07 0e  	beqz	a5, 0x80005b40 <__subdf3+0x344>
80005a58: b3 07 87 40  	sub	a5, a4, s0
80005a5c: 63 0a 04 04  	beqz	s0, 0x80005ab0 <__subdf3+0x2b4>
80005a60: 93 06 80 03  	li	a3, 56
80005a64: 63 ce f6 08  	blt	a3, a5, 0x80005b00 <__subdf3+0x304>
80005a68: b7 06 80 00  	lui	a3, 2048
80005a6c: b3 e8 d8 00  	or	a7, a7, a3
80005a70: 93 06 f0 01  	li	a3, 31
80005a74: 63 cc f6 08  	blt	a3, a5, 0x80005b0c <__subdf3+0x310>
80005a78: 93 05 00 02  	li	a1, 32
80005a7c: b3 85 f5 40  	sub	a1, a1, a5
80005a80: b3 96 b8 00  	sll	a3, a7, a1
80005a84: 33 53 f5 00  	srl	t1, a0, a5
80005a88: b3 15 b5 00  	sll	a1, a0, a1
80005a8c: b3 e6 66 00  	or	a3, a3, t1
80005a90: b3 35 b0 00  	snez	a1, a1
80005a94: b3 e6 b6 00  	or	a3, a3, a1
80005a98: b3 d7 f8 00  	srl	a5, a7, a5
80005a9c: 33 86 c6 00  	add	a2, a3, a2
80005aa0: b3 87 07 01  	add	a5, a5, a6
80005aa4: b3 36 d6 00  	sltu	a3, a2, a3
80005aa8: 33 88 d7 00  	add	a6, a5, a3
80005aac: 6f f0 9f f2  	j	0x800059d4 <__subdf3+0x1d8>
80005ab0: 13 84 07 00  	mv	s0, a5
80005ab4: b3 e7 a8 00  	or	a5, a7, a0
80005ab8: 63 98 07 00  	bnez	a5, 0x80005ac8 <__subdf3+0x2cc>
80005abc: 93 07 f0 7f  	li	a5, 2047
80005ac0: 63 14 f4 2a  	bne	s0, a5, 0x80005d68 <__subdf3+0x56c>
80005ac4: 6f 00 40 01  	j	0x80005ad8 <__subdf3+0x2dc>
80005ac8: 93 07 f4 ff  	addi	a5, s0, -1
80005acc: e3 84 07 e2  	beqz	a5, 0x800058f4 <__subdf3+0xf8>
80005ad0: 93 06 f0 7f  	li	a3, 2047
80005ad4: 63 12 d4 02  	bne	s0, a3, 0x80005af8 <__subdf3+0x2fc>
80005ad8: b3 66 c8 00  	or	a3, a6, a2
80005adc: 63 86 06 0c  	beqz	a3, 0x80005ba8 <__subdf3+0x3ac>
80005ae0: 93 57 68 01  	srli	a5, a6, 22
80005ae4: 93 c7 17 00  	xori	a5, a5, 1
80005ae8: 93 f7 17 00  	andi	a5, a5, 1
80005aec: 93 97 47 00  	slli	a5, a5, 4
80005af0: 13 07 f0 7f  	li	a4, 2047
80005af4: 6f f0 1f e2  	j	0x80005914 <__subdf3+0x118>
80005af8: 93 06 80 03  	li	a3, 56
80005afc: e3 da f6 f6  	bge	a3, a5, 0x80005a70 <__subdf3+0x274>
80005b00: 93 07 00 00  	li	a5, 0
80005b04: 93 06 10 00  	li	a3, 1
80005b08: 6f f0 5f f9  	j	0x80005a9c <__subdf3+0x2a0>
80005b0c: 93 86 07 fe  	addi	a3, a5, -32
80005b10: 13 03 00 02  	li	t1, 32
80005b14: b3 d6 d8 00  	srl	a3, a7, a3
80005b18: 93 05 00 00  	li	a1, 0
80005b1c: 63 88 67 00  	beq	a5, t1, 0x80005b2c <__subdf3+0x330>
80005b20: 93 05 00 04  	li	a1, 64
80005b24: b3 85 f5 40  	sub	a1, a1, a5
80005b28: b3 95 b8 00  	sll	a1, a7, a1
80005b2c: b3 e5 a5 00  	or	a1, a1, a0
80005b30: b3 35 b0 00  	snez	a1, a1
80005b34: b3 e6 b6 00  	or	a3, a3, a1
80005b38: 93 07 00 00  	li	a5, 0
80005b3c: 6f f0 1f f6  	j	0x80005a9c <__subdf3+0x2a0>
80005b40: 93 06 14 00  	addi	a3, s0, 1
80005b44: 93 f7 e6 7f  	andi	a5, a3, 2046
80005b48: 63 98 07 14  	bnez	a5, 0x80005c98 <__subdf3+0x49c>
80005b4c: b3 e6 a8 00  	or	a3, a7, a0
80005b50: 63 10 04 04  	bnez	s0, 0x80005b90 <__subdf3+0x394>
80005b54: 63 8a 06 70  	beqz	a3, 0x80006268 <__subdf3+0xa6c>
80005b58: 33 67 c8 00  	or	a4, a6, a2
80005b5c: 63 06 07 62  	beqz	a4, 0x80006188 <__subdf3+0x98c>
80005b60: 33 06 c5 00  	add	a2, a0, a2
80005b64: 33 37 a6 00  	sltu	a4, a2, a0
80005b68: 33 88 08 01  	add	a6, a7, a6
80005b6c: b3 08 e8 00  	add	a7, a6, a4
80005b70: 37 07 80 00  	lui	a4, 2048
80005b74: 33 f7 e8 00  	and	a4, a7, a4
80005b78: 13 05 06 00  	mv	a0, a2
80005b7c: 63 06 07 60  	beqz	a4, 0x80006188 <__subdf3+0x98c>
80005b80: 37 08 80 ff  	lui	a6, 1046528
80005b84: 13 08 f8 ff  	addi	a6, a6, -1
80005b88: 33 f8 08 01  	and	a6, a7, a6
80005b8c: 6f f0 5f d8  	j	0x80005910 <__subdf3+0x114>
80005b90: 93 05 f0 7f  	li	a1, 2047
80005b94: 63 10 b4 04  	bne	s0, a1, 0x80005bd4 <__subdf3+0x3d8>
80005b98: 63 9c 06 00  	bnez	a3, 0x80005bb0 <__subdf3+0x3b4>
80005b9c: e3 1a 87 f4  	bne	a4, s0, 0x80005af0 <__subdf3+0x2f4>
80005ba0: b3 66 c8 00  	or	a3, a6, a2
80005ba4: e3 92 06 ce  	bnez	a3, 0x80005888 <__subdf3+0x8c>
80005ba8: 93 08 00 00  	li	a7, 0
80005bac: 6f 00 00 30  	j	0x80005eac <__subdf3+0x6b0>
80005bb0: b7 05 40 00  	lui	a1, 1024
80005bb4: 33 fe b8 00  	and	t3, a7, a1
80005bb8: 33 63 c8 00  	or	t1, a6, a2
80005bbc: e3 02 0e 0c  	beqz	t3, 0x80006480 <__subdf3+0xc84>
80005bc0: 63 1c 87 0a  	bne	a4, s0, 0x80005c78 <__subdf3+0x47c>
80005bc4: 63 16 03 02  	bnez	t1, 0x80005bf0 <__subdf3+0x3f4>
80005bc8: 13 88 08 00  	mv	a6, a7
80005bcc: 13 06 05 00  	mv	a2, a0
80005bd0: 6f f0 5f d4  	j	0x80005914 <__subdf3+0x118>
80005bd4: 63 16 b7 08  	bne	a4, a1, 0x80005c60 <__subdf3+0x464>
80005bd8: b3 65 c8 00  	or	a1, a6, a2
80005bdc: 63 92 05 02  	bnez	a1, 0x80005c00 <__subdf3+0x404>
80005be0: e3 94 06 fe  	bnez	a3, 0x80005bc8 <__subdf3+0x3cc>
80005be4: 93 08 00 00  	li	a7, 0
80005be8: 13 04 f0 7f  	li	s0, 2047
80005bec: 6f 00 00 2c  	j	0x80005eac <__subdf3+0x6b0>
80005bf0: b3 75 b8 00  	and	a1, a6, a1
80005bf4: 63 8e 05 08  	beqz	a1, 0x80005c90 <__subdf3+0x494>
80005bf8: 13 07 00 00  	li	a4, 0
80005bfc: 6f 00 80 01  	j	0x80005c14 <__subdf3+0x418>
80005c00: 13 07 00 00  	li	a4, 0
80005c04: b7 07 40 00  	lui	a5, 1024
80005c08: b3 77 f8 00  	and	a5, a6, a5
80005c0c: 63 82 07 06  	beqz	a5, 0x80005c70 <__subdf3+0x474>
80005c10: 63 8c 06 04  	beqz	a3, 0x80005c68 <__subdf3+0x46c>
80005c14: 93 04 00 00  	li	s1, 0
80005c18: b7 08 40 00  	lui	a7, 1024
80005c1c: 93 06 00 00  	li	a3, 0
80005c20: 13 04 f0 7f  	li	s0, 2047
80005c24: 93 97 d8 01  	slli	a5, a7, 29
80005c28: 93 d6 36 00  	srli	a3, a3, 3
80005c2c: b3 e6 d7 00  	or	a3, a5, a3
80005c30: 93 07 f0 7f  	li	a5, 2047
80005c34: 13 d6 38 00  	srli	a2, a7, 3
80005c38: 63 10 f4 78  	bne	s0, a5, 0x800063b8 <__subdf3+0xbbc>
80005c3c: b3 e6 c6 00  	or	a3, a3, a2
80005c40: 13 06 00 00  	li	a2, 0
80005c44: 63 8a 06 76  	beqz	a3, 0x800063b8 <__subdf3+0xbbc>
80005c48: 37 06 08 00  	lui	a2, 128
80005c4c: 93 06 00 00  	li	a3, 0
80005c50: 93 04 00 00  	li	s1, 0
80005c54: 6f 00 40 76  	j	0x800063b8 <__subdf3+0xbbc>
80005c58: 13 07 00 01  	li	a4, 16
80005c5c: 6f f0 9f fa  	j	0x80005c04 <__subdf3+0x408>
80005c60: 13 07 00 00  	li	a4, 0
80005c64: 63 9c 06 00  	bnez	a3, 0x80005c7c <__subdf3+0x480>
80005c68: 93 07 07 00  	mv	a5, a4
80005c6c: 6f f0 5f e8  	j	0x80005af0 <__subdf3+0x2f4>
80005c70: 13 07 00 01  	li	a4, 16
80005c74: 6f f0 1f ff  	j	0x80005c64 <__subdf3+0x468>
80005c78: 13 07 00 00  	li	a4, 0
80005c7c: 33 68 c8 00  	or	a6, a6, a2
80005c80: e3 1a 08 f8  	bnez	a6, 0x80005c14 <__subdf3+0x418>
80005c84: 13 88 08 00  	mv	a6, a7
80005c88: 13 06 05 00  	mv	a2, a0
80005c8c: 6f f0 df fd  	j	0x80005c68 <__subdf3+0x46c>
80005c90: 13 07 00 01  	li	a4, 16
80005c94: 6f f0 9f fe  	j	0x80005c7c <__subdf3+0x480>
80005c98: 93 07 f0 7f  	li	a5, 2047
80005c9c: 63 88 f6 02  	beq	a3, a5, 0x80005ccc <__subdf3+0x4d0>
80005ca0: 33 06 c5 00  	add	a2, a0, a2
80005ca4: 33 35 a6 00  	sltu	a0, a2, a0
80005ca8: 33 88 08 01  	add	a6, a7, a6
80005cac: 33 08 a8 00  	add	a6, a6, a0
80005cb0: 93 17 f8 01  	slli	a5, a6, 31
80005cb4: 13 56 16 00  	srli	a2, a2, 1
80005cb8: 33 e6 c7 00  	or	a2, a5, a2
80005cbc: 13 58 18 00  	srli	a6, a6, 1
80005cc0: 13 87 06 00  	mv	a4, a3
80005cc4: 93 07 00 00  	li	a5, 0
80005cc8: 6f f0 df c4  	j	0x80005914 <__subdf3+0x118>
80005ccc: 63 8a 09 78  	beqz	s3, 0x80006460 <__subdf3+0xc64>
80005cd0: 93 07 30 00  	li	a5, 3
80005cd4: 63 96 f9 04  	bne	s3, a5, 0x80005d20 <__subdf3+0x524>
80005cd8: 63 84 04 78  	beqz	s1, 0x80006460 <__subdf3+0xc64>
80005cdc: 93 06 00 00  	li	a3, 0
80005ce0: 93 08 f0 ff  	li	a7, -1
80005ce4: 13 05 f0 ff  	li	a0, -1
80005ce8: 13 07 e0 7f  	li	a4, 2046
80005cec: 93 07 50 00  	li	a5, 5
80005cf0: 13 06 30 00  	li	a2, 3
80005cf4: 63 82 c9 68  	beq	s3, a2, 0x80006378 <__subdf3+0xb7c>
80005cf8: 63 90 09 02  	bnez	s3, 0x80005d18 <__subdf3+0x51c>
80005cfc: 13 76 f5 00  	andi	a2, a0, 15
80005d00: 93 05 40 00  	li	a1, 4
80005d04: 63 0a b6 00  	beq	a2, a1, 0x80005d18 <__subdf3+0x51c>
80005d08: 13 06 45 00  	addi	a2, a0, 4
80005d0c: b3 35 a6 00  	sltu	a1, a2, a0
80005d10: b3 88 b8 00  	add	a7, a7, a1
80005d14: 13 05 06 00  	mv	a0, a2
80005d18: 63 96 06 5c  	bnez	a3, 0x800062e4 <__subdf3+0xae8>
80005d1c: 6f 00 40 66  	j	0x80006380 <__subdf3+0xb84>
80005d20: 93 07 20 00  	li	a5, 2
80005d24: 63 94 f9 00  	bne	s3, a5, 0x80005d2c <__subdf3+0x530>
80005d28: 63 9c 04 72  	bnez	s1, 0x80006460 <__subdf3+0xc64>
80005d2c: 93 08 f0 ff  	li	a7, -1
80005d30: 13 05 f0 ff  	li	a0, -1
80005d34: 13 07 e0 7f  	li	a4, 2046
80005d38: 93 07 50 00  	li	a5, 5
80005d3c: 6f 00 40 64  	j	0x80006380 <__subdf3+0xb84>
80005d40: 13 04 20 00  	li	s0, 2
80005d44: b7 07 80 ff  	lui	a5, 1046528
80005d48: 93 87 f7 ff  	addi	a5, a5, -1
80005d4c: b3 77 f8 00  	and	a5, a6, a5
80005d50: 13 57 16 00  	srli	a4, a2, 1
80005d54: 13 76 16 00  	andi	a2, a2, 1
80005d58: 33 67 c7 00  	or	a4, a4, a2
80005d5c: 13 96 f7 01  	slli	a2, a5, 31
80005d60: 33 66 e6 00  	or	a2, a2, a4
80005d64: 13 d8 17 00  	srli	a6, a5, 1
80005d68: 13 07 04 00  	mv	a4, s0
80005d6c: 6f f0 9f f5  	j	0x80005cc4 <__subdf3+0x4c8>
80005d70: 93 07 20 00  	li	a5, 2
80005d74: e3 9c f9 fa  	bne	s3, a5, 0x80005d2c <__subdf3+0x530>
80005d78: e3 8a 04 fa  	beqz	s1, 0x80005d2c <__subdf3+0x530>
80005d7c: 6f f0 1f c8  	j	0x800059fc <__subdf3+0x200>
80005d80: 63 5a f0 12  	blez	a5, 0x80005eb4 <__subdf3+0x6b8>
80005d84: 63 12 07 04  	bnez	a4, 0x80005dc8 <__subdf3+0x5cc>
80005d88: b3 67 c8 00  	or	a5, a6, a2
80005d8c: e3 84 07 b4  	beqz	a5, 0x800058d4 <__subdf3+0xd8>
80005d90: 93 07 f4 ff  	addi	a5, s0, -1
80005d94: 63 9e 07 00  	bnez	a5, 0x80005db0 <__subdf3+0x5b4>
80005d98: 33 06 c5 40  	sub	a2, a0, a2
80005d9c: 33 88 08 41  	sub	a6, a7, a6
80005da0: 33 35 c5 00  	sltu	a0, a0, a2
80005da4: 33 08 a8 40  	sub	a6, a6, a0
80005da8: 13 07 10 00  	li	a4, 1
80005dac: 6f 00 40 07  	j	0x80005e20 <__subdf3+0x624>
80005db0: e3 00 b4 ba  	beq	s0, a1, 0x80005950 <__subdf3+0x154>
80005db4: 13 07 80 03  	li	a4, 56
80005db8: 63 52 f7 02  	bge	a4, a5, 0x80005ddc <__subdf3+0x5e0>
80005dbc: 93 07 00 00  	li	a5, 0
80005dc0: 13 07 10 00  	li	a4, 1
80005dc4: 6f 00 40 04  	j	0x80005e08 <__subdf3+0x60c>
80005dc8: e3 08 b4 ba  	beq	s0, a1, 0x80005978 <__subdf3+0x17c>
80005dcc: 13 07 80 03  	li	a4, 56
80005dd0: e3 46 f7 fe  	blt	a4, a5, 0x80005dbc <__subdf3+0x5c0>
80005dd4: 37 07 80 00  	lui	a4, 2048
80005dd8: 33 68 e8 00  	or	a6, a6, a4
80005ddc: 13 07 f0 01  	li	a4, 31
80005de0: 63 40 f7 06  	blt	a4, a5, 0x80005e40 <__subdf3+0x644>
80005de4: 93 06 00 02  	li	a3, 32
80005de8: b3 86 f6 40  	sub	a3, a3, a5
80005dec: 33 17 d8 00  	sll	a4, a6, a3
80005df0: b3 55 f6 00  	srl	a1, a2, a5
80005df4: b3 16 d6 00  	sll	a3, a2, a3
80005df8: 33 67 b7 00  	or	a4, a4, a1
80005dfc: b3 36 d0 00  	snez	a3, a3
80005e00: 33 67 d7 00  	or	a4, a4, a3
80005e04: b3 57 f8 00  	srl	a5, a6, a5
80005e08: 33 07 e5 40  	sub	a4, a0, a4
80005e0c: 33 38 e5 00  	sltu	a6, a0, a4
80005e10: b3 87 f8 40  	sub	a5, a7, a5
80005e14: 13 06 07 00  	mv	a2, a4
80005e18: 33 88 07 41  	sub	a6, a5, a6
80005e1c: 13 07 04 00  	mv	a4, s0
80005e20: 37 09 80 00  	lui	s2, 2048
80005e24: b3 77 28 01  	and	a5, a6, s2
80005e28: e3 8e 07 e8  	beqz	a5, 0x80005cc4 <__subdf3+0x4c8>
80005e2c: 13 09 f9 ff  	addi	s2, s2, -1
80005e30: 33 79 28 01  	and	s2, a6, s2
80005e34: 13 0a 06 00  	mv	s4, a2
80005e38: 13 04 07 00  	mv	s0, a4
80005e3c: 6f 00 40 2f  	j	0x80006130 <__subdf3+0x934>
80005e40: 13 87 07 fe  	addi	a4, a5, -32
80005e44: 93 05 00 02  	li	a1, 32
80005e48: 33 57 e8 00  	srl	a4, a6, a4
80005e4c: 93 06 00 00  	li	a3, 0
80005e50: 63 88 b7 00  	beq	a5, a1, 0x80005e60 <__subdf3+0x664>
80005e54: 93 06 00 04  	li	a3, 64
80005e58: b3 86 f6 40  	sub	a3, a3, a5
80005e5c: b3 16 d8 00  	sll	a3, a6, a3
80005e60: b3 e6 c6 00  	or	a3, a3, a2
80005e64: b3 36 d0 00  	snez	a3, a3
80005e68: 33 67 d7 00  	or	a4, a4, a3
80005e6c: 93 07 00 00  	li	a5, 0
80005e70: 6f f0 9f f9  	j	0x80005e08 <__subdf3+0x60c>
80005e74: 63 80 07 14  	beqz	a5, 0x80005fb4 <__subdf3+0x7b8>
80005e78: 63 0c 04 06  	beqz	s0, 0x80005ef0 <__subdf3+0x6f4>
80005e7c: 93 57 68 01  	srli	a5, a6, 22
80005e80: 93 c7 17 00  	xori	a5, a5, 1
80005e84: 93 f7 17 00  	andi	a5, a5, 1
80005e88: 93 97 47 00  	slli	a5, a5, 4
80005e8c: 93 84 06 00  	mv	s1, a3
80005e90: 6f f0 5f a8  	j	0x80005914 <__subdf3+0x118>
80005e94: 63 80 07 12  	beqz	a5, 0x80005fb4 <__subdf3+0x7b8>
80005e98: 63 02 04 06  	beqz	s0, 0x80005efc <__subdf3+0x700>
80005e9c: 93 06 00 00  	li	a3, 0
80005ea0: 93 04 03 00  	mv	s1, t1
80005ea4: 93 08 00 00  	li	a7, 0
80005ea8: 13 04 07 00  	mv	s0, a4
80005eac: 13 07 00 00  	li	a4, 0
80005eb0: 6f f0 5f d7  	j	0x80005c24 <__subdf3+0x428>
80005eb4: 63 80 07 10  	beqz	a5, 0x80005fb4 <__subdf3+0x7b8>
80005eb8: b3 07 87 40  	sub	a5, a4, s0
80005ebc: 63 12 04 06  	bnez	s0, 0x80005f20 <__subdf3+0x724>
80005ec0: 93 04 03 00  	mv	s1, t1
80005ec4: 13 84 07 00  	mv	s0, a5
80005ec8: b3 e7 a8 00  	or	a5, a7, a0
80005ecc: e3 88 07 be  	beqz	a5, 0x80005abc <__subdf3+0x2c0>
80005ed0: 93 07 f4 ff  	addi	a5, s0, -1
80005ed4: 63 98 07 02  	bnez	a5, 0x80005f04 <__subdf3+0x708>
80005ed8: 33 05 a6 40  	sub	a0, a2, a0
80005edc: b3 37 a6 00  	sltu	a5, a2, a0
80005ee0: 33 08 18 41  	sub	a6, a6, a7
80005ee4: 13 06 05 00  	mv	a2, a0
80005ee8: 33 08 f8 40  	sub	a6, a6, a5
80005eec: 6f f0 df eb  	j	0x80005da8 <__subdf3+0x5ac>
80005ef0: 93 84 06 00  	mv	s1, a3
80005ef4: 13 04 f0 7f  	li	s0, 2047
80005ef8: 6f f0 1f fd  	j	0x80005ec8 <__subdf3+0x6cc>
80005efc: 93 04 03 00  	mv	s1, t1
80005f00: 6f f0 5f ff  	j	0x80005ef4 <__subdf3+0x6f8>
80005f04: 93 06 f0 7f  	li	a3, 2047
80005f08: e3 08 d4 bc  	beq	s0, a3, 0x80005ad8 <__subdf3+0x2dc>
80005f0c: 93 06 80 03  	li	a3, 56
80005f10: 63 d2 f6 02  	bge	a3, a5, 0x80005f34 <__subdf3+0x738>
80005f14: 93 07 00 00  	li	a5, 0
80005f18: 93 06 10 00  	li	a3, 1
80005f1c: 6f 00 40 04  	j	0x80005f60 <__subdf3+0x764>
80005f20: 93 06 80 03  	li	a3, 56
80005f24: 63 c4 f6 08  	blt	a3, a5, 0x80005fac <__subdf3+0x7b0>
80005f28: b7 06 80 00  	lui	a3, 2048
80005f2c: b3 e8 d8 00  	or	a7, a7, a3
80005f30: 93 04 03 00  	mv	s1, t1
80005f34: 93 06 f0 01  	li	a3, 31
80005f38: 63 c0 f6 04  	blt	a3, a5, 0x80005f78 <__subdf3+0x77c>
80005f3c: 93 05 00 02  	li	a1, 32
80005f40: b3 85 f5 40  	sub	a1, a1, a5
80005f44: b3 96 b8 00  	sll	a3, a7, a1
80005f48: 33 53 f5 00  	srl	t1, a0, a5
80005f4c: b3 15 b5 00  	sll	a1, a0, a1
80005f50: b3 e6 66 00  	or	a3, a3, t1
80005f54: b3 35 b0 00  	snez	a1, a1
80005f58: b3 e6 b6 00  	or	a3, a3, a1
80005f5c: b3 d7 f8 00  	srl	a5, a7, a5
80005f60: b3 06 d6 40  	sub	a3, a2, a3
80005f64: b3 35 d6 00  	sltu	a1, a2, a3
80005f68: b3 07 f8 40  	sub	a5, a6, a5
80005f6c: 13 86 06 00  	mv	a2, a3
80005f70: 33 88 b7 40  	sub	a6, a5, a1
80005f74: 6f f0 df ea  	j	0x80005e20 <__subdf3+0x624>
80005f78: 93 86 07 fe  	addi	a3, a5, -32
80005f7c: 13 03 00 02  	li	t1, 32
80005f80: b3 d6 d8 00  	srl	a3, a7, a3
80005f84: 93 05 00 00  	li	a1, 0
80005f88: 63 88 67 00  	beq	a5, t1, 0x80005f98 <__subdf3+0x79c>
80005f8c: 93 05 00 04  	li	a1, 64
80005f90: b3 85 f5 40  	sub	a1, a1, a5
80005f94: b3 95 b8 00  	sll	a1, a7, a1
80005f98: b3 e5 a5 00  	or	a1, a1, a0
80005f9c: b3 35 b0 00  	snez	a1, a1
80005fa0: b3 e6 b6 00  	or	a3, a3, a1
80005fa4: 93 07 00 00  	li	a5, 0
80005fa8: 6f f0 9f fb  	j	0x80005f60 <__subdf3+0x764>
80005fac: 93 04 03 00  	mv	s1, t1
80005fb0: 6f f0 5f f6  	j	0x80005f14 <__subdf3+0x718>
80005fb4: 93 07 14 00  	addi	a5, s0, 1
80005fb8: 93 f7 e7 7f  	andi	a5, a5, 2046
80005fbc: 63 90 07 14  	bnez	a5, 0x800060fc <__subdf3+0x900>
80005fc0: b3 66 c8 00  	or	a3, a6, a2
80005fc4: b3 e5 a8 00  	or	a1, a7, a0
80005fc8: 63 18 04 06  	bnez	s0, 0x80006038 <__subdf3+0x83c>
80005fcc: 63 90 05 02  	bnez	a1, 0x80005fec <__subdf3+0x7f0>
80005fd0: 63 92 06 2a  	bnez	a3, 0x80006274 <__subdf3+0xa78>
80005fd4: 93 84 e9 ff  	addi	s1, s3, -2
80005fd8: 93 b4 14 00  	seqz	s1, s1
80005fdc: 93 08 00 00  	li	a7, 0
80005fe0: 93 06 00 00  	li	a3, 0
80005fe4: 13 04 00 00  	li	s0, 0
80005fe8: 6f f0 5f ec  	j	0x80005eac <__subdf3+0x6b0>
80005fec: 63 8e 06 18  	beqz	a3, 0x80006188 <__subdf3+0x98c>
80005ff0: 33 07 c5 40  	sub	a4, a0, a2
80005ff4: b3 36 e5 00  	sltu	a3, a0, a4
80005ff8: b3 87 08 41  	sub	a5, a7, a6
80005ffc: b3 87 d7 40  	sub	a5, a5, a3
80006000: b7 06 80 00  	lui	a3, 2048
80006004: b3 f6 d7 00  	and	a3, a5, a3
80006008: 63 8e 06 00  	beqz	a3, 0x80006024 <__subdf3+0x828>
8000600c: 33 05 a6 40  	sub	a0, a2, a0
80006010: 33 08 18 41  	sub	a6, a6, a7
80006014: 33 36 a6 00  	sltu	a2, a2, a0
80006018: b3 08 c8 40  	sub	a7, a6, a2
8000601c: 93 04 03 00  	mv	s1, t1
80006020: 6f 00 80 16  	j	0x80006188 <__subdf3+0x98c>
80006024: b3 66 f7 00  	or	a3, a4, a5
80006028: e3 86 06 fa  	beqz	a3, 0x80005fd4 <__subdf3+0x7d8>
8000602c: 93 88 07 00  	mv	a7, a5
80006030: 13 05 07 00  	mv	a0, a4
80006034: 6f 00 40 15  	j	0x80006188 <__subdf3+0x98c>
80006038: 13 0e f0 7f  	li	t3, 2047
8000603c: 63 16 c4 05  	bne	s0, t3, 0x80006088 <__subdf3+0x88c>
80006040: 63 92 05 02  	bnez	a1, 0x80006064 <__subdf3+0x868>
80006044: 63 10 87 0a  	bne	a4, s0, 0x800060e4 <__subdf3+0x8e8>
80006048: 93 04 00 00  	li	s1, 0
8000604c: 63 88 06 04  	beqz	a3, 0x8000609c <__subdf3+0x8a0>
80006050: b7 05 40 00  	lui	a1, 1024
80006054: b3 75 b8 00  	and	a1, a6, a1
80006058: 63 8a 05 08  	beqz	a1, 0x800060ec <__subdf3+0x8f0>
8000605c: 93 04 03 00  	mv	s1, t1
80006060: 6f f0 5f 8b  	j	0x80005914 <__subdf3+0x118>
80006064: 37 06 40 00  	lui	a2, 1024
80006068: b3 f5 c8 00  	and	a1, a7, a2
8000606c: 63 86 05 42  	beqz	a1, 0x80006498 <__subdf3+0xc9c>
80006070: 63 12 87 08  	bne	a4, s0, 0x800060f4 <__subdf3+0x8f8>
80006074: e3 8a 06 8e  	beqz	a3, 0x80005968 <__subdf3+0x16c>
80006078: 33 76 c8 00  	and	a2, a6, a2
8000607c: e3 1e 06 b6  	bnez	a2, 0x80005bf8 <__subdf3+0x3fc>
80006080: 13 07 00 01  	li	a4, 16
80006084: 6f 00 c0 42  	j	0x800064b0 <__subdf3+0xcb4>
80006088: 63 1a c7 03  	bne	a4, t3, 0x800060bc <__subdf3+0x8c0>
8000608c: 63 9e 06 00  	bnez	a3, 0x800060a8 <__subdf3+0x8ac>
80006090: e3 9c 05 8c  	bnez	a1, 0x80005968 <__subdf3+0x16c>
80006094: 93 04 00 00  	li	s1, 0
80006098: 13 04 f0 7f  	li	s0, 2047
8000609c: b7 08 40 00  	lui	a7, 1024
800060a0: 13 07 00 01  	li	a4, 16
800060a4: 6f f0 1f b8  	j	0x80005c24 <__subdf3+0x428>
800060a8: 37 0e 40 00  	lui	t3, 1024
800060ac: 33 7e c8 01  	and	t3, a6, t3
800060b0: 63 06 0e 02  	beqz	t3, 0x800060dc <__subdf3+0x8e0>
800060b4: e3 92 05 b4  	bnez	a1, 0x80005bf8 <__subdf3+0x3fc>
800060b8: 6f f0 5f fa  	j	0x8000605c <__subdf3+0x860>
800060bc: 13 07 00 00  	li	a4, 0
800060c0: 63 98 05 3e  	bnez	a1, 0x800064b0 <__subdf3+0xcb4>
800060c4: 93 04 03 00  	mv	s1, t1
800060c8: e3 90 06 ba  	bnez	a3, 0x80005c68 <__subdf3+0x46c>
800060cc: 93 04 00 00  	li	s1, 0
800060d0: b7 08 40 00  	lui	a7, 1024
800060d4: 13 04 f0 7f  	li	s0, 2047
800060d8: 6f f0 9f fc  	j	0x800060a0 <__subdf3+0x8a4>
800060dc: 13 07 00 01  	li	a4, 16
800060e0: 6f f0 1f fe  	j	0x800060c0 <__subdf3+0x8c4>
800060e4: 13 07 00 00  	li	a4, 0
800060e8: 6f f0 df fd  	j	0x800060c4 <__subdf3+0x8c8>
800060ec: 13 07 00 01  	li	a4, 16
800060f0: 6f f0 5f fd  	j	0x800060c4 <__subdf3+0x8c8>
800060f4: 13 07 00 00  	li	a4, 0
800060f8: 6f 00 80 3b  	j	0x800064b0 <__subdf3+0xcb4>
800060fc: b3 07 c5 40  	sub	a5, a0, a2
80006100: 33 37 f5 00  	sltu	a4, a0, a5
80006104: 33 89 08 41  	sub	s2, a7, a6
80006108: 33 09 e9 40  	sub	s2, s2, a4
8000610c: 37 07 80 00  	lui	a4, 2048
80006110: 33 77 e9 00  	and	a4, s2, a4
80006114: 13 8a 07 00  	mv	s4, a5
80006118: 63 08 07 0c  	beqz	a4, 0x800061e8 <__subdf3+0x9ec>
8000611c: 33 0a a6 40  	sub	s4, a2, a0
80006120: 33 09 18 41  	sub	s2, a6, a7
80006124: 33 36 46 01  	sltu	a2, a2, s4
80006128: 33 09 c9 40  	sub	s2, s2, a2
8000612c: 93 04 03 00  	mv	s1, t1
80006130: 63 02 09 0c  	beqz	s2, 0x800061f4 <__subdf3+0x9f8>
80006134: 13 05 09 00  	mv	a0, s2
80006138: ef 00 c0 66  	jal	0x800067a4 <__clzsi2>
8000613c: 13 07 85 ff  	addi	a4, a0, -8
80006140: 13 05 00 02  	li	a0, 32
80006144: 33 05 e5 40  	sub	a0, a0, a4
80006148: 33 19 e9 00  	sll	s2, s2, a4
8000614c: 33 55 aa 00  	srl	a0, s4, a0
80006150: 33 68 25 01  	or	a6, a0, s2
80006154: 33 19 ea 00  	sll	s2, s4, a4
80006158: 63 4c 87 0e  	blt	a4, s0, 0x80006250 <__subdf3+0xa54>
8000615c: 33 07 87 40  	sub	a4, a4, s0
80006160: 93 08 17 00  	addi	a7, a4, 1
80006164: 93 07 00 02  	li	a5, 32
80006168: b3 87 17 41  	sub	a5, a5, a7
8000616c: 33 17 f8 00  	sll	a4, a6, a5
80006170: b3 56 19 01  	srl	a3, s2, a7
80006174: b3 17 f9 00  	sll	a5, s2, a5
80006178: 33 67 d7 00  	or	a4, a4, a3
8000617c: b3 37 f0 00  	snez	a5, a5
80006180: 33 65 f7 00  	or	a0, a4, a5
80006184: b3 58 18 01  	srl	a7, a6, a7
80006188: b3 67 15 01  	or	a5, a0, a7
8000618c: e3 88 07 e4  	beqz	a5, 0x80005fdc <__subdf3+0x7e0>
80006190: 93 57 f5 01  	srli	a5, a0, 31
80006194: 13 97 18 00  	slli	a4, a7, 1
80006198: 33 07 f7 00  	add	a4, a4, a5
8000619c: 93 17 15 00  	slli	a5, a0, 1
800061a0: 13 f6 77 00  	andi	a2, a5, 7
800061a4: 93 76 75 00  	andi	a3, a0, 7
800061a8: 63 04 06 18  	beqz	a2, 0x80006330 <__subdf3+0xb34>
800061ac: 13 06 20 00  	li	a2, 2
800061b0: 63 80 c9 12  	beq	s3, a2, 0x800062d0 <__subdf3+0xad4>
800061b4: 13 06 30 00  	li	a2, 3
800061b8: 63 84 c9 0c  	beq	s3, a2, 0x80006280 <__subdf3+0xa84>
800061bc: 63 9c 09 14  	bnez	s3, 0x80006314 <__subdf3+0xb18>
800061c0: 13 f6 f7 00  	andi	a2, a5, 15
800061c4: 93 05 40 00  	li	a1, 4
800061c8: 93 b7 c7 ff  	sltiu	a5, a5, -4
800061cc: 63 1e b6 0c  	bne	a2, a1, 0x800062a8 <__subdf3+0xaac>
800061d0: b7 07 00 01  	lui	a5, 4096
800061d4: 33 77 f7 00  	and	a4, a4, a5
800061d8: 63 14 07 18  	bnez	a4, 0x80006360 <__subdf3+0xb64>
800061dc: 63 9a 06 18  	bnez	a3, 0x80006370 <__subdf3+0xb74>
800061e0: 93 07 10 00  	li	a5, 1
800061e4: 6f 00 00 10  	j	0x800062e4 <__subdf3+0xae8>
800061e8: b3 e7 27 01  	or	a5, a5, s2
800061ec: e3 92 07 f4  	bnez	a5, 0x80006130 <__subdf3+0x934>
800061f0: 6f f0 5f de  	j	0x80005fd4 <__subdf3+0x7d8>
800061f4: 13 05 0a 00  	mv	a0, s4
800061f8: ef 00 c0 5a  	jal	0x800067a4 <__clzsi2>
800061fc: 13 07 85 01  	addi	a4, a0, 24
80006200: 93 07 f0 01  	li	a5, 31
80006204: e3 de e7 f2  	bge	a5, a4, 0x80006140 <__subdf3+0x944>
80006208: 13 05 85 ff  	addi	a0, a0, -8
8000620c: 33 18 aa 00  	sll	a6, s4, a0
80006210: 63 40 87 04  	blt	a4, s0, 0x80006250 <__subdf3+0xa54>
80006214: 33 07 87 40  	sub	a4, a4, s0
80006218: 93 08 17 00  	addi	a7, a4, 1
8000621c: e3 d4 17 f5  	bge	a5, a7, 0x80006164 <__subdf3+0x968>
80006220: 13 07 17 fe  	addi	a4, a4, -31
80006224: 93 07 00 02  	li	a5, 32
80006228: 33 57 e8 00  	srl	a4, a6, a4
8000622c: 13 05 00 00  	li	a0, 0
80006230: 63 88 f8 00  	beq	a7, a5, 0x80006240 <__subdf3+0xa44>
80006234: 13 05 00 04  	li	a0, 64
80006238: 33 05 15 41  	sub	a0, a0, a7
8000623c: 33 15 a8 00  	sll	a0, a6, a0
80006240: 33 35 a0 00  	snez	a0, a0
80006244: 33 65 e5 00  	or	a0, a0, a4
80006248: 93 08 00 00  	li	a7, 0
8000624c: 6f f0 df f3  	j	0x80006188 <__subdf3+0x98c>
80006250: b7 07 80 ff  	lui	a5, 1046528
80006254: 93 87 f7 ff  	addi	a5, a5, -1
80006258: 33 07 e4 40  	sub	a4, s0, a4
8000625c: 33 78 f8 00  	and	a6, a6, a5
80006260: 13 06 09 00  	mv	a2, s2
80006264: 6f f0 1f a6  	j	0x80005cc4 <__subdf3+0x4c8>
80006268: 93 08 08 00  	mv	a7, a6
8000626c: 13 05 06 00  	mv	a0, a2
80006270: 6f f0 9f f1  	j	0x80006188 <__subdf3+0x98c>
80006274: 93 08 08 00  	mv	a7, a6
80006278: 13 05 06 00  	mv	a0, a2
8000627c: 6f f0 1f da  	j	0x8000601c <__subdf3+0x820>
80006280: 63 82 04 02  	beqz	s1, 0x800062a4 <__subdf3+0xaa8>
80006284: b7 07 00 01  	lui	a5, 4096
80006288: 33 77 f7 00  	and	a4, a4, a5
8000628c: 63 14 07 0c  	bnez	a4, 0x80006354 <__subdf3+0xb58>
80006290: 93 87 04 00  	mv	a5, s1
80006294: 63 88 06 04  	beqz	a3, 0x800062e4 <__subdf3+0xae8>
80006298: 93 86 04 00  	mv	a3, s1
8000629c: 13 07 00 00  	li	a4, 0
800062a0: 6f f0 1f a5  	j	0x80005cf0 <__subdf3+0x4f4>
800062a4: 93 b7 87 ff  	sltiu	a5, a5, -8
800062a8: 93 c7 17 00  	xori	a5, a5, 1
800062ac: b3 87 e7 00  	add	a5, a5, a4
800062b0: 37 07 00 01  	lui	a4, 4096
800062b4: b3 f7 e7 00  	and	a5, a5, a4
800062b8: 63 94 07 0a  	bnez	a5, 0x80006360 <__subdf3+0xb64>
800062bc: 13 07 00 00  	li	a4, 0
800062c0: e3 80 06 f2  	beqz	a3, 0x800061e0 <__subdf3+0x9e4>
800062c4: 93 06 10 00  	li	a3, 1
800062c8: 93 07 10 00  	li	a5, 1
800062cc: 6f f0 5f a2  	j	0x80005cf0 <__subdf3+0x4f4>
800062d0: 63 9e 04 00  	bnez	s1, 0x800062ec <__subdf3+0xaf0>
800062d4: b7 07 00 01  	lui	a5, 4096
800062d8: 33 77 f7 00  	and	a4, a4, a5
800062dc: 93 07 10 00  	li	a5, 1
800062e0: 63 1c 07 06  	bnez	a4, 0x80006358 <__subdf3+0xb5c>
800062e4: 93 e7 27 00  	ori	a5, a5, 2
800062e8: 6f 00 80 09  	j	0x80006380 <__subdf3+0xb84>
800062ec: 93 b7 87 ff  	sltiu	a5, a5, -8
800062f0: 93 c7 17 00  	xori	a5, a5, 1
800062f4: b3 87 e7 00  	add	a5, a5, a4
800062f8: 37 07 00 01  	lui	a4, 4096
800062fc: b3 f7 e7 00  	and	a5, a5, a4
80006300: 63 9a 07 04  	bnez	a5, 0x80006354 <__subdf3+0xb58>
80006304: 63 96 06 10  	bnez	a3, 0x80006410 <__subdf3+0xc14>
80006308: 93 87 04 00  	mv	a5, s1
8000630c: 13 07 00 00  	li	a4, 0
80006310: 6f f0 5f fd  	j	0x800062e4 <__subdf3+0xae8>
80006314: b7 07 00 01  	lui	a5, 4096
80006318: 33 77 f7 00  	and	a4, a4, a5
8000631c: 63 12 07 04  	bnez	a4, 0x80006360 <__subdf3+0xb64>
80006320: e3 80 06 ec  	beqz	a3, 0x800061e0 <__subdf3+0x9e4>
80006324: 93 06 10 00  	li	a3, 1
80006328: 13 07 00 00  	li	a4, 0
8000632c: 6f f0 df f9  	j	0x800062c8 <__subdf3+0xacc>
80006330: b7 07 00 01  	lui	a5, 4096
80006334: 33 77 f7 00  	and	a4, a4, a5
80006338: 63 18 07 02  	bnez	a4, 0x80006368 <__subdf3+0xb6c>
8000633c: 93 07 00 00  	li	a5, 0
80006340: 63 80 06 04  	beqz	a3, 0x80006380 <__subdf3+0xb84>
80006344: 93 06 10 00  	li	a3, 1
80006348: 13 07 00 00  	li	a4, 0
8000634c: 93 07 00 00  	li	a5, 0
80006350: 6f f0 8f dd  	j	0x80005928 <__subdf3+0x12c>
80006354: 93 87 04 00  	mv	a5, s1
80006358: 13 07 00 00  	li	a4, 0
8000635c: 6f f0 4f dc  	j	0x80005920 <__subdf3+0x124>
80006360: 93 07 10 00  	li	a5, 1
80006364: 6f f0 5f ff  	j	0x80006358 <__subdf3+0xb5c>
80006368: 93 07 00 00  	li	a5, 0
8000636c: 6f f0 df fe  	j	0x80006358 <__subdf3+0xb5c>
80006370: 13 07 00 00  	li	a4, 0
80006374: 6f f0 1f f5  	j	0x800062c4 <__subdf3+0xac8>
80006378: 63 88 04 08  	beqz	s1, 0x80006408 <__subdf3+0xc0c>
8000637c: 63 92 06 0a  	bnez	a3, 0x80006420 <__subdf3+0xc24>
80006380: b7 06 80 00  	lui	a3, 2048
80006384: b3 f6 d8 00  	and	a3, a7, a3
80006388: 63 84 06 0e  	beqz	a3, 0x80006470 <__subdf3+0xc74>
8000638c: 13 04 17 00  	addi	s0, a4, 1
80006390: 13 07 f0 7f  	li	a4, 2047
80006394: 63 0a e4 08  	beq	s0, a4, 0x80006428 <__subdf3+0xc2c>
80006398: 37 06 80 ff  	lui	a2, 1046528
8000639c: 13 06 f6 ff  	addi	a2, a2, -1
800063a0: 33 f6 c8 00  	and	a2, a7, a2
800063a4: 93 16 d6 01  	slli	a3, a2, 29
800063a8: 13 55 35 00  	srli	a0, a0, 3
800063ac: b3 e6 a6 00  	or	a3, a3, a0
800063b0: 13 56 36 00  	srli	a2, a2, 3
800063b4: 13 87 07 00  	mv	a4, a5
800063b8: b7 07 f0 7f  	lui	a5, 524032
800063bc: 13 14 44 01  	slli	s0, s0, 20
800063c0: 13 16 c6 00  	slli	a2, a2, 12
800063c4: 33 74 f4 00  	and	s0, s0, a5
800063c8: 13 56 c6 00  	srli	a2, a2, 12
800063cc: 33 64 c4 00  	or	s0, s0, a2
800063d0: 93 94 f4 01  	slli	s1, s1, 31
800063d4: b3 67 94 00  	or	a5, s0, s1
800063d8: 13 85 06 00  	mv	a0, a3
800063dc: 93 85 07 00  	mv	a1, a5
800063e0: 63 04 07 00  	beqz	a4, 0x800063e8 <__subdf3+0xbec>
800063e4: 73 20 17 00  	csrs	fflags, a4
800063e8: 83 20 c1 01  	lw	ra, 28(sp)
800063ec: 03 24 81 01  	lw	s0, 24(sp)
800063f0: 83 24 41 01  	lw	s1, 20(sp)
800063f4: 03 29 01 01  	lw	s2, 16(sp)
800063f8: 83 29 c1 00  	lw	s3, 12(sp)
800063fc: 03 2a 81 00  	lw	s4, 8(sp)
80006400: 13 01 01 02  	addi	sp, sp, 32
80006404: 67 80 00 00  	ret
80006408: 13 06 85 00  	addi	a2, a0, 8
8000640c: 6f f0 1f 90  	j	0x80005d0c <__subdf3+0x510>
80006410: 93 86 04 00  	mv	a3, s1
80006414: 93 87 04 00  	mv	a5, s1
80006418: 13 07 00 00  	li	a4, 0
8000641c: 6f f0 8f d1  	j	0x80005934 <__subdf3+0x138>
80006420: 93 84 06 00  	mv	s1, a3
80006424: 6f f0 1f ec  	j	0x800062e4 <__subdf3+0xae8>
80006428: 93 06 00 00  	li	a3, 0
8000642c: 63 88 09 00  	beqz	s3, 0x8000643c <__subdf3+0xc40>
80006430: 13 07 30 00  	li	a4, 3
80006434: 63 9a e9 00  	bne	s3, a4, 0x80006448 <__subdf3+0xc4c>
80006438: 63 9e 04 00  	bnez	s1, 0x80006454 <__subdf3+0xc58>
8000643c: 13 e7 57 00  	ori	a4, a5, 5
80006440: 93 88 06 00  	mv	a7, a3
80006444: 6f f0 0f fe  	j	0x80005c24 <__subdf3+0x428>
80006448: 13 07 20 00  	li	a4, 2
8000644c: 63 94 e9 00  	bne	s3, a4, 0x80006454 <__subdf3+0xc58>
80006450: e3 96 04 fe  	bnez	s1, 0x8000643c <__subdf3+0xc40>
80006454: 93 06 f0 ff  	li	a3, -1
80006458: 13 04 e0 7f  	li	s0, 2046
8000645c: 6f f0 1f fe  	j	0x8000643c <__subdf3+0xc40>
80006460: 13 04 f0 7f  	li	s0, 2047
80006464: 6f f0 8f d9  	j	0x800059fc <__subdf3+0x200>
80006468: 93 08 00 00  	li	a7, 0
8000646c: 6f f0 8f fb  	j	0x80005c24 <__subdf3+0x428>
80006470: 13 04 07 00  	mv	s0, a4
80006474: 93 06 05 00  	mv	a3, a0
80006478: 13 87 07 00  	mv	a4, a5
8000647c: 6f f0 8f fa  	j	0x80005c24 <__subdf3+0x428>
80006480: e3 18 87 80  	bne	a4, s0, 0x80005c90 <__subdf3+0x494>
80006484: 63 1a 03 fc  	bnez	t1, 0x80005c58 <__subdf3+0x45c>
80006488: 13 88 08 00  	mv	a6, a7
8000648c: 13 06 05 00  	mv	a2, a0
80006490: 93 07 00 01  	li	a5, 16
80006494: 6f f0 0f c8  	j	0x80005914 <__subdf3+0x118>
80006498: e3 14 87 be  	bne	a4, s0, 0x80006080 <__subdf3+0x884>
8000649c: 93 07 00 01  	li	a5, 16
800064a0: 63 84 06 cc  	beqz	a3, 0x80005968 <__subdf3+0x16c>
800064a4: 33 76 c8 00  	and	a2, a6, a2
800064a8: 13 07 00 01  	li	a4, 16
800064ac: 63 14 06 f6  	bnez	a2, 0x80005c14 <__subdf3+0x418>
800064b0: 63 92 06 f6  	bnez	a3, 0x80005c14 <__subdf3+0x418>
800064b4: 6f f0 0f fd  	j	0x80005c84 <__subdf3+0x488>

800064b8 <__fixdfsi>:
800064b8: 13 06 05 00  	mv	a2, a0
800064bc: f3 27 20 00  	frrm	a5
800064c0: b7 07 10 00  	lui	a5, 256
800064c4: 93 d6 45 01  	srli	a3, a1, 20
800064c8: 13 88 f7 ff  	addi	a6, a5, -1
800064cc: 93 f6 f6 7f  	andi	a3, a3, 2047
800064d0: 13 07 e0 3f  	li	a4, 1022
800064d4: 33 78 b8 00  	and	a6, a6, a1
800064d8: 93 d5 f5 01  	srli	a1, a1, 31
800064dc: 63 4a d7 00  	blt	a4, a3, 0x800064f0 <__fixdfsi+0x38>
800064e0: 63 9e 06 0a  	bnez	a3, 0x8000659c <__fixdfsi+0xe4>
800064e4: 33 65 a8 00  	or	a0, a6, a0
800064e8: 63 1a 05 0a  	bnez	a0, 0x8000659c <__fixdfsi+0xe4>
800064ec: 67 80 00 00  	ret
800064f0: 13 07 d0 41  	li	a4, 1053
800064f4: 63 5e d7 02  	bge	a4, a3, 0x80006530 <__fixdfsi+0x78>
800064f8: b7 07 00 80  	lui	a5, 524288
800064fc: 93 c7 f7 ff  	not	a5, a5
80006500: 33 85 f5 00  	add	a0, a1, a5
80006504: 63 82 05 0a  	beqz	a1, 0x800065a8 <__fixdfsi+0xf0>
80006508: 93 07 e0 41  	li	a5, 1054
8000650c: 13 07 00 01  	li	a4, 16
80006510: 63 9c f6 04  	bne	a3, a5, 0x80006568 <__fixdfsi+0xb0>
80006514: 13 18 b8 00  	slli	a6, a6, 11
80006518: 93 57 56 01  	srli	a5, a2, 21
8000651c: 33 68 f8 00  	or	a6, a6, a5
80006520: 63 14 08 04  	bnez	a6, 0x80006568 <__fixdfsi+0xb0>
80006524: 13 16 b6 00  	slli	a2, a2, 11
80006528: 63 14 06 08  	bnez	a2, 0x800065b0 <__fixdfsi+0xf8>
8000652c: 67 80 00 00  	ret
80006530: b3 67 f8 00  	or	a5, a6, a5
80006534: 13 08 30 43  	li	a6, 1075
80006538: 33 08 d8 40  	sub	a6, a6, a3
8000653c: 13 07 f0 01  	li	a4, 31
80006540: 63 48 07 03  	blt	a4, a6, 0x80006570 <__fixdfsi+0xb8>
80006544: 93 86 d6 be  	addi	a3, a3, -1043
80006548: 33 17 d5 00  	sll	a4, a0, a3
8000654c: 33 58 06 01  	srl	a6, a2, a6
80006550: 33 95 d7 00  	sll	a0, a5, a3
80006554: 33 37 e0 00  	snez	a4, a4
80006558: 33 65 05 01  	or	a0, a0, a6
8000655c: 63 84 05 00  	beqz	a1, 0x80006564 <__fixdfsi+0xac>
80006560: 33 05 a0 40  	neg	a0, a0
80006564: 63 04 07 00  	beqz	a4, 0x8000656c <__fixdfsi+0xb4>
80006568: 73 20 17 00  	csrs	fflags, a4
8000656c: 67 80 00 00  	ret
80006570: 13 05 00 02  	li	a0, 32
80006574: 13 07 00 00  	li	a4, 0
80006578: 63 06 a8 00  	beq	a6, a0, 0x80006584 <__fixdfsi+0xcc>
8000657c: 13 87 d6 c0  	addi	a4, a3, -1011
80006580: 33 97 e7 00  	sll	a4, a5, a4
80006584: 33 67 c7 00  	or	a4, a4, a2
80006588: 13 06 30 41  	li	a2, 1043
8000658c: b3 06 d6 40  	sub	a3, a2, a3
80006590: 33 37 e0 00  	snez	a4, a4
80006594: 33 d5 d7 00  	srl	a0, a5, a3
80006598: 6f f0 5f fc  	j	0x8000655c <__fixdfsi+0xa4>
8000659c: 13 05 00 00  	li	a0, 0
800065a0: 13 07 10 00  	li	a4, 1
800065a4: 6f f0 5f fc  	j	0x80006568 <__fixdfsi+0xb0>
800065a8: 13 07 00 01  	li	a4, 16
800065ac: 6f f0 df fb  	j	0x80006568 <__fixdfsi+0xb0>
800065b0: 13 87 05 00  	mv	a4, a1
800065b4: 6f f0 5f fb  	j	0x80006568 <__fixdfsi+0xb0>

800065b8 <__fixunsdfsi>:
800065b8: 93 06 05 00  	mv	a3, a0
800065bc: f3 27 20 00  	frrm	a5
800065c0: 37 06 10 00  	lui	a2, 256
800065c4: 13 d7 45 01  	srli	a4, a1, 20
800065c8: 93 07 f6 ff  	addi	a5, a2, -1
800065cc: 13 77 f7 7f  	andi	a4, a4, 2047
800065d0: 13 05 e0 3f  	li	a0, 1022
800065d4: b3 f7 b7 00  	and	a5, a5, a1
800065d8: 93 d5 f5 01  	srli	a1, a1, 31
800065dc: 63 4a e5 00  	blt	a0, a4, 0x800065f0 <__fixunsdfsi+0x38>
800065e0: 63 1e 07 06  	bnez	a4, 0x8000665c <__fixunsdfsi+0xa4>
800065e4: 33 e5 d7 00  	or	a0, a5, a3
800065e8: 63 1a 05 06  	bnez	a0, 0x8000665c <__fixunsdfsi+0xa4>
800065ec: 67 80 00 00  	ret
800065f0: 63 9a 05 06  	bnez	a1, 0x80006664 <__fixunsdfsi+0xac>
800065f4: 93 05 e0 41  	li	a1, 1054
800065f8: 63 ce e5 06  	blt	a1, a4, 0x80006674 <__fixunsdfsi+0xbc>
800065fc: b3 e7 c7 00  	or	a5, a5, a2
80006600: 13 06 30 43  	li	a2, 1075
80006604: 33 06 e6 40  	sub	a2, a2, a4
80006608: 93 05 f0 01  	li	a1, 31
8000660c: 63 c0 c5 02  	blt	a1, a2, 0x8000662c <__fixunsdfsi+0x74>
80006610: 13 07 d7 be  	addi	a4, a4, -1043
80006614: 33 d6 c6 00  	srl	a2, a3, a2
80006618: b3 97 e7 00  	sll	a5, a5, a4
8000661c: b3 96 e6 00  	sll	a3, a3, a4
80006620: 33 e5 c7 00  	or	a0, a5, a2
80006624: 63 98 06 02  	bnez	a3, 0x80006654 <__fixunsdfsi+0x9c>
80006628: 67 80 00 00  	ret
8000662c: 13 05 00 02  	li	a0, 32
80006630: 93 05 00 00  	li	a1, 0
80006634: 63 06 a6 00  	beq	a2, a0, 0x80006640 <__fixunsdfsi+0x88>
80006638: 93 05 d7 c0  	addi	a1, a4, -1011
8000663c: b3 95 b7 00  	sll	a1, a5, a1
80006640: 13 06 30 41  	li	a2, 1043
80006644: 33 07 e6 40  	sub	a4, a2, a4
80006648: b3 e5 d5 00  	or	a1, a1, a3
8000664c: 33 d5 e7 00  	srl	a0, a5, a4
80006650: 63 80 05 02  	beqz	a1, 0x80006670 <__fixunsdfsi+0xb8>
80006654: 93 07 10 00  	li	a5, 1
80006658: 6f 00 40 01  	j	0x8000666c <__fixunsdfsi+0xb4>
8000665c: 13 05 00 00  	li	a0, 0
80006660: 6f f0 5f ff  	j	0x80006654 <__fixunsdfsi+0x9c>
80006664: 13 05 00 00  	li	a0, 0
80006668: 93 07 00 01  	li	a5, 16
8000666c: 73 a0 17 00  	csrs	fflags, a5
80006670: 67 80 00 00  	ret
80006674: 13 05 f0 ff  	li	a0, -1
80006678: 6f f0 1f ff  	j	0x80006668 <__fixunsdfsi+0xb0>

8000667c <__floatsidf>:
8000667c: 13 01 01 ff  	addi	sp, sp, -16
80006680: 23 26 11 00  	sw	ra, 12(sp)
80006684: 23 24 81 00  	sw	s0, 8(sp)
80006688: 23 22 91 00  	sw	s1, 4(sp)
8000668c: 63 06 05 08  	beqz	a0, 0x80006718 <__floatsidf+0x9c>
80006690: 93 57 f5 41  	srai	a5, a0, 31
80006694: 33 c4 a7 00  	xor	s0, a5, a0
80006698: 33 04 f4 40  	sub	s0, s0, a5
8000669c: 93 54 f5 01  	srli	s1, a0, 31
800066a0: 13 05 04 00  	mv	a0, s0
800066a4: ef 00 00 10  	jal	0x800067a4 <__clzsi2>
800066a8: 13 07 e0 41  	li	a4, 1054
800066ac: 93 07 a0 00  	li	a5, 10
800066b0: 33 07 a7 40  	sub	a4, a4, a0
800066b4: 63 c8 a7 04  	blt	a5, a0, 0x80006704 <__floatsidf+0x88>
800066b8: 93 07 b0 00  	li	a5, 11
800066bc: b3 87 a7 40  	sub	a5, a5, a0
800066c0: 13 05 55 01  	addi	a0, a0, 21
800066c4: b3 57 f4 00  	srl	a5, s0, a5
800066c8: 33 14 a4 00  	sll	s0, s0, a0
800066cc: 13 85 04 00  	mv	a0, s1
800066d0: 93 97 c7 00  	slli	a5, a5, 12
800066d4: 93 d7 c7 00  	srli	a5, a5, 12
800066d8: 13 17 47 01  	slli	a4, a4, 20
800066dc: 13 15 f5 01  	slli	a0, a0, 31
800066e0: 33 67 f7 00  	or	a4, a4, a5
800066e4: 83 20 c1 00  	lw	ra, 12(sp)
800066e8: b3 67 a7 00  	or	a5, a4, a0
800066ec: 13 05 04 00  	mv	a0, s0
800066f0: 03 24 81 00  	lw	s0, 8(sp)
800066f4: 83 24 41 00  	lw	s1, 4(sp)
800066f8: 93 85 07 00  	mv	a1, a5
800066fc: 13 01 01 01  	addi	sp, sp, 16
80006700: 67 80 00 00  	ret
80006704: 13 05 55 ff  	addi	a0, a0, -11
80006708: b3 17 a4 00  	sll	a5, s0, a0
8000670c: 13 85 04 00  	mv	a0, s1
80006710: 13 04 00 00  	li	s0, 0
80006714: 6f f0 df fb  	j	0x800066d0 <__floatsidf+0x54>
80006718: 13 07 00 00  	li	a4, 0
8000671c: 93 07 00 00  	li	a5, 0
80006720: 6f f0 1f ff  	j	0x80006710 <__floatsidf+0x94>

80006724 <__floatunsidf>:
80006724: 13 01 01 ff  	addi	sp, sp, -16
80006728: 23 24 81 00  	sw	s0, 8(sp)
8000672c: 23 26 11 00  	sw	ra, 12(sp)
80006730: 13 04 05 00  	mv	s0, a0
80006734: 63 02 05 06  	beqz	a0, 0x80006798 <__floatunsidf+0x74>
80006738: ef 00 c0 06  	jal	0x800067a4 <__clzsi2>
8000673c: 13 07 e0 41  	li	a4, 1054
80006740: 93 07 a0 00  	li	a5, 10
80006744: 33 07 a7 40  	sub	a4, a4, a0
80006748: 63 c0 a7 04  	blt	a5, a0, 0x80006788 <__floatunsidf+0x64>
8000674c: 93 07 b0 00  	li	a5, 11
80006750: b3 87 a7 40  	sub	a5, a5, a0
80006754: 13 05 55 01  	addi	a0, a0, 21
80006758: b3 57 f4 00  	srl	a5, s0, a5
8000675c: 33 14 a4 00  	sll	s0, s0, a0
80006760: 83 20 c1 00  	lw	ra, 12(sp)
80006764: 13 05 04 00  	mv	a0, s0
80006768: 93 97 c7 00  	slli	a5, a5, 12
8000676c: 03 24 81 00  	lw	s0, 8(sp)
80006770: 13 17 47 01  	slli	a4, a4, 20
80006774: 93 d7 c7 00  	srli	a5, a5, 12
80006778: b3 66 f7 00  	or	a3, a4, a5
8000677c: 93 85 06 00  	mv	a1, a3
80006780: 13 01 01 01  	addi	sp, sp, 16
80006784: 67 80 00 00  	ret
80006788: 13 05 55 ff  	addi	a0, a0, -11
8000678c: b3 17 a4 00  	sll	a5, s0, a0
80006790: 13 04 00 00  	li	s0, 0
80006794: 6f f0 df fc  	j	0x80006760 <__floatunsidf+0x3c>
80006798: 93 07 00 00  	li	a5, 0
8000679c: 13 07 00 00  	li	a4, 0
800067a0: 6f f0 1f fc  	j	0x80006760 <__floatunsidf+0x3c>

800067a4 <__clzsi2>:
800067a4: b7 07 01 00  	lui	a5, 16
800067a8: 63 7a f5 02  	bgeu	a0, a5, 0x800067dc <__clzsi2+0x38>
800067ac: 93 37 05 10  	sltiu	a5, a0, 256
800067b0: 93 c7 17 00  	xori	a5, a5, 1
800067b4: 93 97 37 00  	slli	a5, a5, 3
800067b8: 13 07 00 02  	li	a4, 32
800067bc: 33 07 f7 40  	sub	a4, a4, a5
800067c0: 33 55 f5 00  	srl	a0, a0, a5
800067c4: 97 07 00 00  	auipc	a5, 0
800067c8: 93 87 87 43  	addi	a5, a5, 1080
800067cc: b3 87 a7 00  	add	a5, a5, a0
800067d0: 03 c5 07 00  	lbu	a0, 0(a5)
800067d4: 33 05 a7 40  	sub	a0, a4, a0
800067d8: 67 80 00 00  	ret
800067dc: 37 07 00 01  	lui	a4, 4096
800067e0: 93 07 00 01  	li	a5, 16
800067e4: e3 6a e5 fc  	bltu	a0, a4, 0x800067b8 <__clzsi2+0x14>
800067e8: 93 07 80 01  	li	a5, 24
800067ec: 6f f0 df fc  	j	0x800067b8 <__clzsi2+0x14>

Disassembly of section .rodata:

800067f0 <.rodata>:
800067f0: 56 58        	<unknown>
800067f2: 53 70 61 77  	<unknown>
800067f6: 6e 3a        	<unknown>
800067f8: 20 63        	<unknown>
800067fa: 69 64        	<unknown>
800067fc: 3d 25        	<unknown>
800067fe: 64 2c        	<unknown>
80006800: 20 77        	<unknown>
80006802: 69 64        	<unknown>
80006804: 3d 25        	<unknown>
80006806: 64 2c        	<unknown>
80006808: 20 74        	<unknown>
8000680a: 69 64        	<unknown>
8000680c: 3d 25        	<unknown>
8000680e: 64 2c        	<unknown>
80006810: 20 66        	<unknown>
80006812: 57 69 6e 64  	<unknown>
80006816: 65 78        	<unknown>
80006818: 3d 25        	<unknown>
8000681a: 64 2c        	<unknown>
8000681c: 20 6f        	<unknown>
8000681e: 66 66        	<unknown>
80006820: 73 65 74 3d  	csrrsi	a0, pmpaddr39, 8
80006824: 20 25        	<unknown>
80006826: 64 2c        	<unknown>
80006828: 20 77        	<unknown>
8000682a: 61 72        	<unknown>
8000682c: 70 5f        	<unknown>
8000682e: 67 69 64 3d  	<unknown>
80006832: 25 64        	<unknown>
80006834: 2c 20        	<unknown>
80006836: 74 68        	<unknown>
80006838: 72 65        	<unknown>
8000683a: 61 64        	<unknown>
8000683c: 5f 67 69 64  	<unknown>
80006840: 3d 25        	<unknown>
80006842: 64 0a        	<unknown>
80006844: 00 00        	<unknown>
80006846: 00 00        	<unknown>
80006848: 56 78        	<unknown>
8000684a: 5f 73 70 61  	<unknown>
8000684e: 77 6e 5f 74  	<unknown>
80006852: 61 73        	<unknown>
80006854: 6b 73 20 63  	<unknown>
80006858: 6f 72 65 5f  	jal	tp, 0x8005de4e <_end+0x55982>
8000685c: 69 64        	<unknown>
8000685e: 20 74        	<unknown>
80006860: 6f 6f 20 68  	jal	t5, 0x8000cee2 <_end+0x4a16>
80006864: 69 67        	<unknown>
80006866: 68 2c        	<unknown>
80006868: 20 73        	<unknown>
8000686a: 6f 20 72 65  	j	0x800296c0 <_end+0x211f4>
8000686e: 74 75        	<unknown>
80006870: 72 6e        	<unknown>
80006872: 69 6e        	<unknown>
80006874: 67 20 63 6f  	<unknown>
80006878: 72 65        	<unknown>
8000687a: 5f 69 64 3a  	<unknown>
8000687e: 25 64        	<unknown>
80006880: 2c 20        	<unknown>
80006882: 74 6f        	<unknown>
80006884: 74 61        	<unknown>
80006886: 6c 20        	<unknown>
80006888: 63 6f 72 65  	bltu	tp, s7, 0x80006ee6 <STARTUP_ADDR+0x6ee6>
8000688c: 73 3d 25 64  	csrrc	s10, 1602, a0
80006890: 0a 00        	<unknown>
80006892: 00 00        	<unknown>
80006894: 56 58        	<unknown>
80006896: 73 70 61 77  	csrci	1910, 2
8000689a: 6e 20        	<unknown>
8000689c: 73 74 61 72  	csrrci	s0, mhpmevent6h, 2
800068a0: 74 69        	<unknown>
800068a2: 6e 67        	<unknown>
800068a4: 20 73        	<unknown>
800068a6: 70 61        	<unknown>
800068a8: 77 6e 2c 20  	<unknown>
800068ac: 20 63        	<unknown>
800068ae: 6f 72 65 5f  	jal	tp, 0x8005dea4 <_end+0x559d8>
800068b2: 69 64        	<unknown>
800068b4: 3d 25        	<unknown>
800068b6: 64 0a        	<unknown>
800068b8: 00 00        	<unknown>
800068ba: 00 00        	<unknown>
800068bc: 56 58        	<unknown>
800068be: 73 70 61 77  	csrci	1910, 2
800068c2: 6e 20        	<unknown>
800068c4: 72 65        	<unknown>
800068c6: 74 75        	<unknown>
800068c8: 72 6e        	<unknown>
800068ca: 69 6e        	<unknown>
800068cc: 67 20 63 6f  	<unknown>
800068d0: 7a 20        	<unknown>
800068d2: 63 6f 72 65  	bltu	tp, s7, 0x80006f30 <STARTUP_ADDR+0x6f30>
800068d6: 5f 69 64 3d  	<unknown>
800068da: 25 64        	<unknown>
800068dc: 20 3e        	<unknown>
800068de: 3d 20        	<unknown>
800068e0: 6e 63        	<unknown>
800068e2: 3d 25        	<unknown>
800068e4: 64 20        	<unknown>
800068e6: 6e 43        	<unknown>
800068e8: 6f 72 65 49  	jal	tp, 0x8005dd7e <_end+0x558b2>
800068ec: 44 4d        	<unknown>
800068ee: 61 78        	<unknown>
800068f0: 3d 25        	<unknown>
800068f2: 64 0a        	<unknown>
800068f4: 20 28        	<unknown>
800068f6: 6e 43        	<unknown>
800068f8: 31 3d        	<unknown>
800068fa: 25 64        	<unknown>
800068fc: 2c 20        	<unknown>
800068fe: 4e 43        	<unknown>
80006900: 5f 74 6f 74  	<unknown>
80006904: 61 6c        	<unknown>
80006906: 2f 32 3d 25  	<unknown>
8000690a: 64 29        	<unknown>
8000690c: 00 00        	<unknown>
8000690e: 00 00        	<unknown>
80006910: 56 58        	<unknown>
80006912: 53 70 61 77  	<unknown>
80006916: 6e 3a        	<unknown>
80006918: 20 63        	<unknown>
8000691a: 6f 72 65 5f  	jal	tp, 0x8005df10 <_end+0x55a44>
8000691e: 69 64        	<unknown>
80006920: 3d 25        	<unknown>
80006922: 64 20        	<unknown>
80006924: 6e 75        	<unknown>
80006926: 6d 5f        	<unknown>
80006928: 74 61        	<unknown>
8000692a: 73 6b 73 3d  	csrrsi	s6, pmpaddr39, 6
8000692e: 25 64        	<unknown>
80006930: 20 4e        	<unknown>
80006932: 43 3d 25 64  	<unknown>
80006936: 20 4e        	<unknown>
80006938: 57 3d 25 64  	<unknown>
8000693c: 20 4e        	<unknown>
8000693e: 54 3d        	<unknown>
80006940: 25 64        	<unknown>
80006942: 20 57        	<unknown>
80006944: 54 3d        	<unknown>
80006946: 25 64        	<unknown>
80006948: 20 6e        	<unknown>
8000694a: 43 31 3d 25  	<unknown>
8000694e: 64 20        	<unknown>
80006950: 6e 63        	<unknown>
80006952: 3d 25        	<unknown>
80006954: 64 20        	<unknown>
80006956: 74 61        	<unknown>
80006958: 73 6b 73 5f  	csrrsi	s6, 1527, 6
8000695c: 70 65        	<unknown>
8000695e: 72 5f        	<unknown>
80006960: 63 6f 72 65  	bltu	tp, s7, 0x80006fbe <STARTUP_ADDR+0x6fbe>
80006964: 5f 6e 31 3d  	<unknown>
80006968: 25 64        	<unknown>
8000696a: 20 54        	<unknown>
8000696c: 57 3d 25 64  	<unknown>
80006970: 20 72        	<unknown>
80006972: 54 3d        	<unknown>
80006974: 25 64        	<unknown>
80006976: 20 66        	<unknown>
80006978: 57 3d 25 64  	<unknown>
8000697c: 20 72        	<unknown>
8000697e: 57 3d 25 64  	<unknown>
80006982: 20 6f        	<unknown>
80006984: 66 66        	<unknown>
80006986: 73 65 74 3d  	csrrsi	a0, pmpaddr39, 8
8000698a: 25 64        	<unknown>
8000698c: 20 6e        	<unknown>
8000698e: 77 3d 25 64  	<unknown>
80006992: 0a 00        	<unknown>
80006994: 56 58        	<unknown>
80006996: 53 70 61 77  	<unknown>
8000699a: 6e 3a        	<unknown>
8000699c: 20 49        	<unknown>
8000699e: 20 61        	<unknown>
800069a0: 6d 20        	<unknown>
800069a2: 64 6f        	<unknown>
800069a4: 6e 65        	<unknown>
800069a6: 20 77        	<unknown>
800069a8: 69 74        	<unknown>
800069aa: 68 20        	<unknown>
800069ac: 74 68        	<unknown>
800069ae: 65 20        	<unknown>
800069b0: 66 6f        	<unknown>
800069b2: 72 20        	<unknown>
800069b4: 6c 6f        	<unknown>
800069b6: 6f 70 0a 00  	j	0x800ad9b6 <_end+0xa54ea>
800069ba: 00 00        	<unknown>
800069bc: 66 6e        	<unknown>
800069be: 69 2b        	<unknown>
800069c0: 00 00        	<unknown>
800069c2: 00 00        	<unknown>
800069c4: 66 6e        	<unknown>
800069c6: 69 00        	<unknown>
800069c8: 6e 61        	<unknown>
800069ca: 6e 00        	<unknown>
800069cc: 66 6e        	<unknown>
800069ce: 69 2d        	<unknown>
800069d0: 00 00        	<unknown>
800069d2: 00 00        	<unknown>
800069d4: 34 b5        	<unknown>
800069d6: ff ff b0 b4  	<unknown>
800069da: ff ff b0 b4  	<unknown>
800069de: ff ff 28 b5  	<unknown>
800069e2: ff ff b0 b4  	<unknown>
800069e6: ff ff b0 b4  	<unknown>
800069ea: ff ff b0 b4  	<unknown>
800069ee: ff ff b0 b4  	<unknown>
800069f2: ff ff b0 b4  	<unknown>
800069f6: ff ff b0 b4  	<unknown>
800069fa: ff ff b0 b4  	<unknown>
800069fe: ff ff 1c b5  	<unknown>
80006a02: ff ff b0 b4  	<unknown>
80006a06: ff ff 10 b5  	<unknown>
80006a0a: ff ff b0 b4  	<unknown>
80006a0e: ff ff b0 b4  	<unknown>
80006a12: ff ff 04 b5  	<unknown>
80006a16: ff ff 94 b7  	<unknown>
80006a1a: ff ff 08 b5  	<unknown>
80006a1e: ff ff 84 b7  	<unknown>
80006a22: ff ff 08 b5  	<unknown>
80006a26: ff ff 68 b7  	<unknown>
80006a2a: ff ff 08 b5  	<unknown>
80006a2e: ff ff 08 b5  	<unknown>
80006a32: ff ff 08 b5  	<unknown>
80006a36: ff ff 08 b5  	<unknown>
80006a3a: ff ff 08 b5  	<unknown>
80006a3e: ff ff 08 b5  	<unknown>
80006a42: ff ff 08 b5  	<unknown>
80006a46: ff ff fc b4  	<unknown>
80006a4a: ff ff 08 b5  	<unknown>
80006a4e: ff ff 08 b5  	<unknown>
80006a52: ff ff 08 b5  	<unknown>
80006a56: ff ff 08 b5  	<unknown>
80006a5a: ff ff 08 b5  	<unknown>
80006a5e: ff ff fc b4  	<unknown>
80006a62: ff ff 9c b7  	<unknown>
80006a66: ff ff d0 b3  	<unknown>
80006a6a: ff ff d0 b3  	<unknown>
80006a6e: ff ff d0 b3  	<unknown>
80006a72: ff ff d0 b3  	<unknown>
80006a76: ff ff d0 b3  	<unknown>
80006a7a: ff ff d0 b3  	<unknown>
80006a7e: ff ff d0 b3  	<unknown>
80006a82: ff ff d0 b3  	<unknown>
80006a86: ff ff d0 b3  	<unknown>
80006a8a: ff ff d0 b3  	<unknown>
80006a8e: ff ff d0 b3  	<unknown>
80006a92: ff ff d0 b3  	<unknown>
80006a96: ff ff d0 b3  	<unknown>
80006a9a: ff ff d0 b3  	<unknown>
80006a9e: ff ff d0 b3  	<unknown>
80006aa2: ff ff d0 b3  	<unknown>
80006aa6: ff ff d0 b3  	<unknown>
80006aaa: ff ff d0 b3  	<unknown>
80006aae: ff ff d0 b3  	<unknown>
80006ab2: ff ff d0 b3  	<unknown>
80006ab6: ff ff d0 b3  	<unknown>
80006aba: ff ff d0 b3  	<unknown>
80006abe: ff ff d0 b3  	<unknown>
80006ac2: ff ff d0 b3  	<unknown>
80006ac6: ff ff d0 b3  	<unknown>
80006aca: ff ff d0 b3  	<unknown>
80006ace: ff ff d0 b3  	<unknown>
80006ad2: ff ff d0 b3  	<unknown>
80006ad6: ff ff d0 b3  	<unknown>
80006ada: ff ff d0 b3  	<unknown>
80006ade: ff ff d0 b3  	<unknown>
80006ae2: ff ff d0 b6  	<unknown>
80006ae6: ff ff 60 b7  	<unknown>
80006aea: ff ff d0 b6  	<unknown>
80006aee: ff ff d0 b3  	<unknown>
80006af2: ff ff d0 b3  	<unknown>
80006af6: ff ff d0 b3  	<unknown>
80006afa: ff ff d0 b3  	<unknown>
80006afe: ff ff d0 b3  	<unknown>
80006b02: ff ff d0 b3  	<unknown>
80006b06: ff ff d0 b3  	<unknown>
80006b0a: ff ff d0 b3  	<unknown>
80006b0e: ff ff d0 b3  	<unknown>
80006b12: ff ff d0 b3  	<unknown>
80006b16: ff ff d0 b3  	<unknown>
80006b1a: ff ff d0 b3  	<unknown>
80006b1e: ff ff d0 b3  	<unknown>
80006b22: ff ff d0 b3  	<unknown>
80006b26: ff ff d0 b3  	<unknown>
80006b2a: ff ff d0 b3  	<unknown>
80006b2e: ff ff 38 b9  	<unknown>
80006b32: ff ff d0 b3  	<unknown>
80006b36: ff ff d0 b3  	<unknown>
80006b3a: ff ff d0 b3  	<unknown>
80006b3e: ff ff d0 b3  	<unknown>
80006b42: ff ff d0 b3  	<unknown>
80006b46: ff ff d0 b3  	<unknown>
80006b4a: ff ff d0 b3  	<unknown>
80006b4e: ff ff d0 b3  	<unknown>
80006b52: ff ff d0 b3  	<unknown>
80006b56: ff ff 38 b9  	<unknown>
80006b5a: ff ff b8 b7  	<unknown>
80006b5e: ff ff 38 b9  	<unknown>
80006b62: ff ff d0 b6  	<unknown>
80006b66: ff ff 60 b7  	<unknown>
80006b6a: ff ff d0 b6  	<unknown>
80006b6e: ff ff 00 00  	<unknown>

80006b70 <pow10.0>:
80006b70: 00 00        	<unknown>
80006b72: 00 00        	<unknown>
80006b74: 00 00        	<unknown>
80006b76: f0 3f        	<unknown>
80006b78: 00 00        	<unknown>
80006b7a: 00 00        	<unknown>
80006b7c: 00 00        	<unknown>
80006b7e: 24 40        	<unknown>
80006b80: 00 00        	<unknown>
80006b82: 00 00        	<unknown>
80006b84: 00 00        	<unknown>
80006b86: 59 40        	<unknown>
80006b88: 00 00        	<unknown>
80006b8a: 00 00        	<unknown>
80006b8c: 00 40        	<unknown>
80006b8e: 8f 40 00 00  	<unknown>
80006b92: 00 00        	<unknown>
80006b94: 00 88        	<unknown>
80006b96: c3 40 00 00  	fmadd.s	ft1, ft0, ft0, ft0, rmm
80006b9a: 00 00        	<unknown>
80006b9c: 00 6a        	<unknown>
80006b9e: f8 40        	<unknown>
80006ba0: 00 00        	<unknown>
80006ba2: 00 00        	<unknown>
80006ba4: 80 84        	<unknown>
80006ba6: 2e 41        	<unknown>
80006ba8: 00 00        	<unknown>
80006baa: 00 00        	<unknown>
80006bac: d0 12        	<unknown>
80006bae: 63 41 00 00  	bltz	zero, 0x80006bb0 <pow10.0+0x40>
80006bb2: 00 00        	<unknown>
80006bb4: 84 d7        	<unknown>
80006bb6: 97 41 00 00  	auipc	gp, 4
80006bba: 00 00        	<unknown>
80006bbc: 65 cd        	<unknown>
80006bbe: cd 41        	<unknown>
80006bc0: f8 de        	<unknown>
80006bc2: ff ff 8c e1  	<unknown>
80006bc6: ff ff 70 de  	<unknown>
80006bca: ff ff 8c e1  	<unknown>
80006bce: ff ff 74 e1  	<unknown>
80006bd2: ff ff 8c e1  	<unknown>
80006bd6: ff ff 70 de  	<unknown>
80006bda: ff ff fc de  	<unknown>
80006bde: ff ff fc de  	<unknown>
80006be2: ff ff 74 e1  	<unknown>
80006be6: ff ff 70 de  	<unknown>
80006bea: ff ff 0c df  	<unknown>
80006bee: ff ff 0c df  	<unknown>
80006bf2: ff ff 0c df  	<unknown>
80006bf6: ff ff 8c de  	<unknown>
80006bfa: ff ff 00 01  	<unknown>

80006bfc <__clz_tab>:
80006bfc: 00 01        	<unknown>
80006bfe: 02 02        	<unknown>
80006c00: 03 03 03 03  	lb	t1, 48(t1)
80006c04: 04 04        	<unknown>
80006c06: 04 04        	<unknown>
80006c08: 04 04        	<unknown>
80006c0a: 04 04        	<unknown>
80006c0c: 05 05        	<unknown>
80006c0e: 05 05        	<unknown>
80006c10: 05 05        	<unknown>
80006c12: 05 05        	<unknown>
80006c14: 05 05        	<unknown>
80006c16: 05 05        	<unknown>
80006c18: 05 05        	<unknown>
80006c1a: 05 05        	<unknown>
80006c1c: 06 06        	<unknown>
80006c1e: 06 06        	<unknown>
80006c20: 06 06        	<unknown>
80006c22: 06 06        	<unknown>
80006c24: 06 06        	<unknown>
80006c26: 06 06        	<unknown>
80006c28: 06 06        	<unknown>
80006c2a: 06 06        	<unknown>
80006c2c: 06 06        	<unknown>
80006c2e: 06 06        	<unknown>
80006c30: 06 06        	<unknown>
80006c32: 06 06        	<unknown>
80006c34: 06 06        	<unknown>
80006c36: 06 06        	<unknown>
80006c38: 06 06        	<unknown>
80006c3a: 06 06        	<unknown>
80006c3c: 07 07 07 07  	<unknown>
80006c40: 07 07 07 07  	<unknown>
80006c44: 07 07 07 07  	<unknown>
80006c48: 07 07 07 07  	<unknown>
80006c4c: 07 07 07 07  	<unknown>
80006c50: 07 07 07 07  	<unknown>
80006c54: 07 07 07 07  	<unknown>
80006c58: 07 07 07 07  	<unknown>
80006c5c: 07 07 07 07  	<unknown>
80006c60: 07 07 07 07  	<unknown>
80006c64: 07 07 07 07  	<unknown>
80006c68: 07 07 07 07  	<unknown>
80006c6c: 07 07 07 07  	<unknown>
80006c70: 07 07 07 07  	<unknown>
80006c74: 07 07 07 07  	<unknown>
80006c78: 07 07 07 07  	<unknown>
80006c7c: 08 08        	<unknown>
80006c7e: 08 08        	<unknown>
80006c80: 08 08        	<unknown>
80006c82: 08 08        	<unknown>
80006c84: 08 08        	<unknown>
80006c86: 08 08        	<unknown>
80006c88: 08 08        	<unknown>
80006c8a: 08 08        	<unknown>
80006c8c: 08 08        	<unknown>
80006c8e: 08 08        	<unknown>
80006c90: 08 08        	<unknown>
80006c92: 08 08        	<unknown>
80006c94: 08 08        	<unknown>
80006c96: 08 08        	<unknown>
80006c98: 08 08        	<unknown>
80006c9a: 08 08        	<unknown>
80006c9c: 08 08        	<unknown>
80006c9e: 08 08        	<unknown>
80006ca0: 08 08        	<unknown>
80006ca2: 08 08        	<unknown>
80006ca4: 08 08        	<unknown>
80006ca6: 08 08        	<unknown>
80006ca8: 08 08        	<unknown>
80006caa: 08 08        	<unknown>
80006cac: 08 08        	<unknown>
80006cae: 08 08        	<unknown>
80006cb0: 08 08        	<unknown>
80006cb2: 08 08        	<unknown>
80006cb4: 08 08        	<unknown>
80006cb6: 08 08        	<unknown>
80006cb8: 08 08        	<unknown>
80006cba: 08 08        	<unknown>
80006cbc: 08 08        	<unknown>
80006cbe: 08 08        	<unknown>
80006cc0: 08 08        	<unknown>
80006cc2: 08 08        	<unknown>
80006cc4: 08 08        	<unknown>
80006cc6: 08 08        	<unknown>
80006cc8: 08 08        	<unknown>
80006cca: 08 08        	<unknown>
80006ccc: 08 08        	<unknown>
80006cce: 08 08        	<unknown>
80006cd0: 08 08        	<unknown>
80006cd2: 08 08        	<unknown>
80006cd4: 08 08        	<unknown>
80006cd6: 08 08        	<unknown>
80006cd8: 08 08        	<unknown>
80006cda: 08 08        	<unknown>
80006cdc: 08 08        	<unknown>
80006cde: 08 08        	<unknown>
80006ce0: 08 08        	<unknown>
80006ce2: 08 08        	<unknown>
80006ce4: 08 08        	<unknown>
80006ce6: 08 08        	<unknown>
80006ce8: 08 08        	<unknown>
80006cea: 08 08        	<unknown>
80006cec: 08 08        	<unknown>
80006cee: 08 08        	<unknown>
80006cf0: 08 08        	<unknown>
80006cf2: 08 08        	<unknown>
80006cf4: 08 08        	<unknown>
80006cf6: 08 08        	<unknown>
80006cf8: 08 08        	<unknown>
80006cfa: 08 08        	<unknown>

Disassembly of section .eh_frame:

80006cfc <.eh_frame>:
80006cfc: 10 00        	<unknown>
80006cfe: 00 00        	<unknown>
80006d00: 00 00        	<unknown>
80006d02: 00 00        	<unknown>
80006d04: 03 7a 52 00  	<unknown>
80006d08: 01 7c        	<unknown>
80006d0a: 01 01        	<unknown>
80006d0c: 1b 0d 02 00  	<unknown>
80006d10: 10 00        	<unknown>
80006d12: 00 00        	<unknown>
80006d14: 18 00        	<unknown>
80006d16: 00 00        	<unknown>
80006d18: f0 c2        	<unknown>
80006d1a: ff ff 30 04  	<unknown>
80006d1e: 00 00        	<unknown>
80006d20: 00 00        	<unknown>
80006d22: 00 00        	<unknown>
80006d24: 10 00        	<unknown>
80006d26: 00 00        	<unknown>
80006d28: 2c 00        	<unknown>
80006d2a: 00 00        	<unknown>
80006d2c: 0c c7        	<unknown>
80006d2e: ff ff e4 03  	<unknown>
80006d32: 00 00        	<unknown>
80006d34: 00 00        	<unknown>
80006d36: 00 00        	<unknown>

Disassembly of section .init_array:

80007000 <__tdata_start>:
80007000: b8 00        	<unknown>
80007002: 00 80        	<unknown>

Disassembly of section .data:

80007008 <impure_data>:
80007008: 00 00        	<unknown>
8000700a: 00 00        	<unknown>
8000700c: f4 72        	<unknown>
8000700e: 00 80        	<unknown>
80007010: 5c 73        	<unknown>
80007012: 00 80        	<unknown>
80007014: c4 73        	<unknown>
80007016: 00 80        	<unknown>
		...
800070b0: 01 00        	<unknown>
800070b2: 00 00        	<unknown>
800070b4: 00 00        	<unknown>
800070b6: 00 00        	<unknown>
800070b8: 0e 33        	<unknown>
800070ba: cd ab        	<unknown>
800070bc: 34 12        	<unknown>
800070be: 6d e6        	<unknown>
800070c0: ec de        	<unknown>
800070c2: 05 00        	<unknown>
800070c4: 0b 00 00 00  	vx_tmc	zero
		...

Disassembly of section .sdata:

80007430 <__SDATA_BEGIN__>:
80007430: ff ff ff ff  	<unknown>
80007434: ff ff ef 7f  	<unknown>
80007438: ff ff ff ff  	<unknown>
8000743c: ff ff ef ff  	<unknown>
80007440: fb 79 9f 50  	<unknown>
80007444: 13 44 d3 3f  	xori	s0, t1, 1021
80007448: b3 c8 60 8b  	<unknown>
8000744c: 28 8a        	<unknown>
8000744e: c6 3f        	<unknown>
80007450: 00 00        	<unknown>
80007452: 00 00        	<unknown>
80007454: 00 00        	<unknown>
80007456: f8 3f        	<unknown>
80007458: 61 43        	<unknown>
8000745a: 6f 63 a7 87  	jal	t1, 0x7ff7d4d4 <vx_syscalls.c+0x7ff7d4d4>
8000745e: d2 3f        	<unknown>
80007460: 71 a3        	<unknown>
80007462: 79 09        	<unknown>
80007464: 4f 93 0a 40  	fnmadd.s	ft6, fs5, ft0, fs0, rtz
80007468: 00 00        	<unknown>
8000746a: 00 00        	<unknown>
8000746c: 00 00        	<unknown>
8000746e: e0 3f        	<unknown>
80007470: 16 55        	<unknown>
80007472: b5 bb        	<unknown>
80007474: b1 6b        	<unknown>
80007476: 02 40        	<unknown>
80007478: ef 39 fa fe  	jal	s3, 0x7ffab466 <vx_syscalls.c+0x7ffab466>
8000747c: 42 2e        	<unknown>
8000747e: e6 3f        	<unknown>
80007480: 00 00        	<unknown>
80007482: 00 00        	<unknown>
80007484: 00 00        	<unknown>
80007486: 2c 40        	<unknown>
80007488: 00 00        	<unknown>
8000748a: 00 00        	<unknown>
8000748c: 00 00        	<unknown>
8000748e: 24 40        	<unknown>
80007490: 00 00        	<unknown>
80007492: 00 00        	<unknown>
80007494: 00 00        	<unknown>
80007496: 18 40        	<unknown>
80007498: 00 00        	<unknown>
8000749a: 00 00        	<unknown>
8000749c: 00 00        	<unknown>
8000749e: 00 40        	<unknown>
800074a0: 00 00        	<unknown>
800074a2: 00 00        	<unknown>
800074a4: 00 00        	<unknown>
800074a6: f0 3f        	<unknown>
800074a8: 2d 43        	<unknown>
800074aa: 1c eb        	<unknown>
800074ac: e2 36        	<unknown>
800074ae: 1a 3f        	<unknown>
800074b0: 00 00        	<unknown>
800074b2: 00 00        	<unknown>
800074b4: 80 84        	<unknown>
800074b6: 2e 41        	<unknown>
800074b8: 00 00        	<unknown>
800074ba: 00 00        	<unknown>
800074bc: 65 cd        	<unknown>
800074be: cd 41        	<unknown>
800074c0: 00 00        	<unknown>
800074c2: 00 00        	<unknown>
800074c4: 65 cd        	<unknown>
800074c6: cd c1        	<unknown>

800074c8 <_global_impure_ptr>:
800074c8: 08 70        	<unknown>
800074ca: 00 80        	<unknown>

Disassembly of section .bss:

800074cc <g_wspawn_args>:
...

Disassembly of section .comment:

00000000 <.comment>:
       0: 63 6c 61 6e  	bltu	sp, t1, 0x6f8 <.comment+0x6f8>
       4: 67 20 76 65  	<unknown>
       8: 72 73        	<unknown>
       a: 69 6f        	<unknown>
       c: 6e 20        	<unknown>
       e: 31 36        	<unknown>
      10: 2e 30        	<unknown>
      12: 2e 36        	<unknown>
      14: 20 28        	<unknown>
      16: 68 74        	<unknown>
      18: 74 70        	<unknown>
      1a: 73 3a 2f 2f  	csrrc	s4, 754, t5
      1e: 67 69 74 68  	<unknown>
      22: 75 62        	<unknown>
      24: 2e 63        	<unknown>
      26: 6f 6d 2f 76  	jal	s10, 0xf6788 <.comment+0xf6788>
      2a: 6f 72 74 65  	jal	tp, 0x47e80 <.comment+0x47e80>
      2e: 78 67        	<unknown>
      30: 70 67        	<unknown>
      32: 70 75        	<unknown>
      34: 2f 6c 6c 76  	<unknown>
      38: 6d 2e        	<unknown>
      3a: 67 69 74 20  	<unknown>
      3e: 35 38        	<unknown>
      40: 38 31        	<unknown>
      42: 31 62        	<unknown>
      44: 66 61        	<unknown>
      46: 36 31        	<unknown>
      48: 61 35        	<unknown>
      4a: 30 33        	<unknown>
      4c: 66 64        	<unknown>
      4e: 34 61        	<unknown>
      50: 35 66        	<unknown>
      52: 30 64        	<unknown>
      54: 63 37 62 35  	<unknown>
      58: 37 38 30 32  	lui	a6, 205571
      5c: 66 61        	<unknown>
      5e: 65 35        	<unknown>
      60: 31 63        	<unknown>
      62: 33 66 35 64  	<unknown>
      66: 29 00        	<unknown>
      68: 47 43 43 3a  	<unknown>
      6c: 20 28        	<unknown>
      6e: 67 32 65 65  	<unknown>
      72: 35 65        	<unknown>
      74: 34 33        	<unknown>
      76: 30 30        	<unknown>
      78: 31 38        	<unknown>
      7a: 2d 64        	<unknown>
      7c: 69 72        	<unknown>
      7e: 74 79        	<unknown>
      80: 29 20        	<unknown>
      82: 31 32        	<unknown>
      84: 2e 32        	<unknown>
      86: 2e 30        	<unknown>
      88: 00 47        	<unknown>
      8a: 43 43 3a 20  	fmadd.s	ft6, fs4, ft3, ft4, rmm
      8e: 28 47        	<unknown>
      90: 4e 55        	<unknown>
      92: 29 20        	<unknown>
      94: 31 32        	<unknown>
      96: 2e 32        	<unknown>
      98: 2e 30        	<unknown>
      9a: 00           	<unknown>

Disassembly of section .riscv.attributes:

00000000 <.riscv.attributes>:
       0: 41 40        	<unknown>
       2: 00 00        	<unknown>
       4: 00 72        	<unknown>
       6: 69 73        	<unknown>
       8: 63 76 00 01  	bgeu	zero, a6, 0x14 <.comment+0x14>
       c: 36 00        	<unknown>
       e: 00 00        	<unknown>
      10: 04 10        	<unknown>
      12: 05 72        	<unknown>
      14: 76 33        	<unknown>
      16: 32 69        	<unknown>
      18: 32 70        	<unknown>
      1a: 31 5f        	<unknown>
      1c: 6d 32        	<unknown>
      1e: 70 30        	<unknown>
      20: 5f 61 32 70  	<unknown>
      24: 31 5f        	<unknown>
      26: 66 32        	<unknown>
      28: 70 32        	<unknown>
      2a: 5f 7a 69 63  	<unknown>
      2e: 73 72 32 70  	csrrci	tp, 1795, 4
      32: 30 5f        	<unknown>
      34: 7a 6d        	<unknown>
      36: 6d 75        	<unknown>
      38: 6c 31        	<unknown>
      3a: 70 30        	<unknown>
      3c: 00 08        	<unknown>
      3e: 01 0a        	<unknown>
      40: 0b           	<unknown>

Disassembly of section .debug_aranges:

00000000 <.debug_aranges>:
       0: 1c 00        	<unknown>
       2: 00 00        	<unknown>
       4: 02 00        	<unknown>
       6: 00 00        	<unknown>
       8: 00 00        	<unknown>
       a: 04 00        	<unknown>
       c: 00 00        	<unknown>
       e: 00 00        	<unknown>
      10: 08 30        	<unknown>
      12: 00 80        	<unknown>
      14: 30 04        	<unknown>
		...
      1e: 00 00        	<unknown>
      20: 1c 00        	<unknown>
      22: 00 00        	<unknown>
      24: 02 00        	<unknown>
      26: 61 07        	<unknown>
      28: 00 00        	<unknown>
      2a: 04 00        	<unknown>
      2c: 00 00        	<unknown>
      2e: 00 00        	<unknown>
      30: 38 34        	<unknown>
      32: 00 80        	<unknown>
      34: e4 03        	<unknown>
		...
      3e: 00 00        	<unknown>
      40: 1c 00        	<unknown>
      42: 00 00        	<unknown>
      44: 02 00        	<unknown>
      46: 15 0f        	<unknown>
      48: 00 00        	<unknown>
      4a: 04 00        	<unknown>
      4c: 00 00        	<unknown>
      4e: 00 00        	<unknown>
      50: 1c 38        	<unknown>
      52: 00 80        	<unknown>
      54: a4 0c        	<unknown>
		...
      5e: 00 00        	<unknown>
      60: 1c 00        	<unknown>
      62: 00 00        	<unknown>
      64: 02 00        	<unknown>
      66: 54 14        	<unknown>
      68: 00 00        	<unknown>
      6a: 04 00        	<unknown>
      6c: 00 00        	<unknown>
      6e: 00 00        	<unknown>
      70: c0 44        	<unknown>
      72: 00 80        	<unknown>
      74: 98 08        	<unknown>
		...
      7e: 00 00        	<unknown>
      80: 1c 00        	<unknown>
      82: 00 00        	<unknown>
      84: 02 00        	<unknown>
      86: 22 1b        	<unknown>
      88: 00 00        	<unknown>
      8a: 04 00        	<unknown>
      8c: 00 00        	<unknown>
      8e: 00 00        	<unknown>
      90: 58 4d        	<unknown>
      92: 00 80        	<unknown>
      94: c4 00        	<unknown>
		...
      9e: 00 00        	<unknown>
      a0: 1c 00        	<unknown>
      a2: 00 00        	<unknown>
      a4: 02 00        	<unknown>
      a6: 5b 1d 00 00  	<unknown>
      aa: 04 00        	<unknown>
      ac: 00 00        	<unknown>
      ae: 00 00        	<unknown>
      b0: 1c 4e        	<unknown>
      b2: 00 80        	<unknown>
      b4: 10 01        	<unknown>
		...
      be: 00 00        	<unknown>
      c0: 1c 00        	<unknown>
      c2: 00 00        	<unknown>
      c4: 02 00        	<unknown>
      c6: 85 1f        	<unknown>
      c8: 00 00        	<unknown>
      ca: 04 00        	<unknown>
      cc: 00 00        	<unknown>
      ce: 00 00        	<unknown>
      d0: 2c 4f        	<unknown>
      d2: 00 80        	<unknown>
      d4: 10 01        	<unknown>
		...
      de: 00 00        	<unknown>
      e0: 1c 00        	<unknown>
      e2: 00 00        	<unknown>
      e4: 02 00        	<unknown>
      e6: af 21 00 00  	amoadd.w	gp, zero, (zero)
      ea: 04 00        	<unknown>
      ec: 00 00        	<unknown>
      ee: 00 00        	<unknown>
      f0: 3c 50        	<unknown>
      f2: 00 80        	<unknown>
      f4: c0 07        	<unknown>
		...
      fe: 00 00        	<unknown>
     100: 1c 00        	<unknown>
     102: 00 00        	<unknown>
     104: 02 00        	<unknown>
     106: 96 28        	<unknown>
     108: 00 00        	<unknown>
     10a: 04 00        	<unknown>
     10c: 00 00        	<unknown>
     10e: 00 00        	<unknown>
     110: fc 57        	<unknown>
     112: 00 80        	<unknown>
     114: bc 0c        	<unknown>
		...
     11e: 00 00        	<unknown>
     120: 1c 00        	<unknown>
     122: 00 00        	<unknown>
     124: 02 00        	<unknown>
     126: d1 2d        	<unknown>
     128: 00 00        	<unknown>
     12a: 04 00        	<unknown>
     12c: 00 00        	<unknown>
     12e: 00 00        	<unknown>
     130: b8 64        	<unknown>
     132: 00 80        	<unknown>
     134: 00 01        	<unknown>
		...
     13e: 00 00        	<unknown>
     140: 1c 00        	<unknown>
     142: 00 00        	<unknown>
     144: 02 00        	<unknown>
     146: 9c 2f        	<unknown>
     148: 00 00        	<unknown>
     14a: 04 00        	<unknown>
     14c: 00 00        	<unknown>
     14e: 00 00        	<unknown>
     150: b8 65        	<unknown>
     152: 00 80        	<unknown>
     154: c4 00        	<unknown>
		...
     15e: 00 00        	<unknown>
     160: 1c 00        	<unknown>
     162: 00 00        	<unknown>
     164: 02 00        	<unknown>
     166: 54 31        	<unknown>
     168: 00 00        	<unknown>
     16a: 04 00        	<unknown>
     16c: 00 00        	<unknown>
     16e: 00 00        	<unknown>
     170: 7c 66        	<unknown>
     172: 00 80        	<unknown>
     174: a8 00        	<unknown>
		...
     17e: 00 00        	<unknown>
     180: 1c 00        	<unknown>
     182: 00 00        	<unknown>
     184: 02 00        	<unknown>
     186: bc 33        	<unknown>
     188: 00 00        	<unknown>
     18a: 04 00        	<unknown>
     18c: 00 00        	<unknown>
     18e: 00 00        	<unknown>
     190: 24 67        	<unknown>
     192: 00 80        	<unknown>
     194: 80 00        	<unknown>
		...
     19e: 00 00        	<unknown>
     1a0: 14 00        	<unknown>
     1a2: 00 00        	<unknown>
     1a4: 02 00        	<unknown>
     1a6: 19 36        	<unknown>
     1a8: 00 00        	<unknown>
     1aa: 04 00        	<unknown>
		...
     1b8: 1c 00        	<unknown>
     1ba: 00 00        	<unknown>
     1bc: 02 00        	<unknown>
     1be: f1 36        	<unknown>
     1c0: 00 00        	<unknown>
     1c2: 04 00        	<unknown>
     1c4: 00 00        	<unknown>
     1c6: 00 00        	<unknown>
     1c8: a4 67        	<unknown>
     1ca: 00 80        	<unknown>
     1cc: 4c 00        	<unknown>
		...
     1d6: 00 00        	<unknown>

Disassembly of section .debug_info:

00000000 <.debug_info>:
       0: 5d 07        	<unknown>
       2: 00 00        	<unknown>
       4: 05 00        	<unknown>
       6: 01 04        	<unknown>
       8: 00 00        	<unknown>
       a: 00 00        	<unknown>
       c: 11 72        	<unknown>
       e: 00 00        	<unknown>
      10: 00 1d        	<unknown>
      12: 00 00        	<unknown>
      14: 00 00        	<unknown>
      16: 21 00        	<unknown>
      18: 00 00        	<unknown>
      1a: 08 30        	<unknown>
      1c: 00 80        	<unknown>
      1e: 30 04        	<unknown>
      20: 00 00        	<unknown>
      22: 00 00        	<unknown>
      24: 00 00        	<unknown>
      26: 04 08        	<unknown>
      28: 07 4c 00 00  	<unknown>
      2c: 00 12        	<unknown>
      2e: 04 05        	<unknown>
      30: 69 6e        	<unknown>
      32: 74 00        	<unknown>
      34: 04 04        	<unknown>
      36: 07 56 00 00  	<unknown>
      3a: 00 04        	<unknown>
      3c: 08 05        	<unknown>
      3e: 3e 00        	<unknown>
      40: 00 00        	<unknown>
      42: 04 10        	<unknown>
      44: 04 cd        	<unknown>
      46: 01 00        	<unknown>
      48: 00 04        	<unknown>
      4a: 01 06        	<unknown>
      4c: 4e 01        	<unknown>
      4e: 00 00        	<unknown>
      50: 04 01        	<unknown>
      52: 08 4c        	<unknown>
      54: 01 00        	<unknown>
      56: 00 04        	<unknown>
      58: 02 05        	<unknown>
      5a: 20 00        	<unknown>
      5c: 00 00        	<unknown>
      5e: 04 02        	<unknown>
      60: 07 7f 01 00  	<unknown>
      64: 00 04        	<unknown>
      66: 04 05        	<unknown>
      68: 43 00 00 00  	fmadd.s	ft0, ft0, ft0, ft0, rne
      6c: 04 04        	<unknown>
      6e: 07 51 00 00  	<unknown>
      72: 00 04        	<unknown>
      74: 01 08        	<unknown>
      76: 55 01        	<unknown>
      78: 00 00        	<unknown>
      7a: 06 6e        	<unknown>
      7c: 01 00        	<unknown>
      7e: 00 7b        	<unknown>
      80: 16 50        	<unknown>
      82: 00 00        	<unknown>
      84: 00 09        	<unknown>
      86: 7a 00        	<unknown>
      88: 00 00        	<unknown>
      8a: 06 da        	<unknown>
      8c: 01 00        	<unknown>
      8e: 00 80        	<unknown>
      90: 0f 2d 00 00  	<unknown>
      94: 00 06        	<unknown>
      96: d9 01        	<unknown>
      98: 00 00        	<unknown>
      9a: 81 16        	<unknown>
      9c: 34 00        	<unknown>
      9e: 00 00        	<unknown>
      a0: 06 93        	<unknown>
      a2: 01 00        	<unknown>
      a4: 00 84        	<unknown>
      a6: 0f 3b 00 00  	<unknown>
      aa: 00 06        	<unknown>
      ac: 92 01        	<unknown>
      ae: 00 00        	<unknown>
      b0: 85 16        	<unknown>
      b2: 26 00        	<unknown>
      b4: 00 00        	<unknown>
      b6: 04 04        	<unknown>
      b8: 04 1a        	<unknown>
      ba: 00 00        	<unknown>
      bc: 00 04        	<unknown>
      be: 08 03        	<unknown>
      c0: 12 00        	<unknown>
      c2: 00 00        	<unknown>
      c4: 04 08        	<unknown>
      c6: 04 d2        	<unknown>
      c8: 01 00        	<unknown>
      ca: 00 04        	<unknown>
      cc: 10 03        	<unknown>
      ce: a4 01        	<unknown>
      d0: 00 00        	<unknown>
      d2: 04 20        	<unknown>
      d4: 03 c5 01 00  	lbu	a0, 0(gp)
      d8: 00 13        	<unknown>
      da: 76 01        	<unknown>
      dc: 00 00        	<unknown>
      de: 08 02        	<unknown>
      e0: ed 01        	<unknown>
      e2: 0a 04        	<unknown>
      e4: 01 00        	<unknown>
      e6: 00 14        	<unknown>
      e8: 6c 6f        	<unknown>
      ea: 77 00 02 ed  	<unknown>
      ee: 01 1a        	<unknown>
      f0: 8a 00        	<unknown>
      f2: 00 00        	<unknown>
      f4: 00 15        	<unknown>
      f6: 63 00 00 00  	beqz	zero, 0xf6 <.debug_info+0xf6>
      fa: 02 ed        	<unknown>
      fc: 01 1f        	<unknown>
      fe: 8a 00        	<unknown>
     100: 00 00        	<unknown>
     102: 04 00        	<unknown>
     104: 16 08        	<unknown>
     106: 02 f4        	<unknown>
     108: 01 09        	<unknown>
     10a: 24 01        	<unknown>
     10c: 00 00        	<unknown>
     10e: 0c 73        	<unknown>
     110: 00 f6        	<unknown>
     112: 01 13        	<unknown>
     114: d9 00        	<unknown>
     116: 00 00        	<unknown>
     118: 0c 6c        	<unknown>
     11a: 6c 00        	<unknown>
     11c: f7 01 0a a0  	<unknown>
     120: 00 00        	<unknown>
     122: 00 00        	<unknown>
     124: 17 00 00 00  	auipc	zero, 0
     128: 00 02        	<unknown>
     12a: f8 01        	<unknown>
     12c: 03 04 01 00  	lb	s0, 0(sp)
     130: 00 09        	<unknown>
     132: 24 01        	<unknown>
     134: 00 00        	<unknown>
     136: 18 85        	<unknown>
     138: 00 00        	<unknown>
     13a: 00 46        	<unknown>
     13c: 01 00        	<unknown>
     13e: 00 19        	<unknown>
     140: 34 00        	<unknown>
     142: 00 00        	<unknown>
     144: ff 00 09 36  	<unknown>
     148: 01 00        	<unknown>
     14a: 00 1a        	<unknown>
     14c: 68 00        	<unknown>
     14e: 00 00        	<unknown>
     150: 02 02        	<unknown>
     152: 02 16        	<unknown>
     154: 46 01        	<unknown>
     156: 00 00        	<unknown>
     158: 1b 08 00 00  	<unknown>
     15c: 00 01        	<unknown>
     15e: 12 05        	<unknown>
     160: 01 ab        	<unknown>
     162: 00 00        	<unknown>
     164: 00 08        	<unknown>
     166: 30 00        	<unknown>
     168: 80 30        	<unknown>
     16a: 04 00        	<unknown>
     16c: 00 01        	<unknown>
     16e: 9c 2e        	<unknown>
     170: 04 00        	<unknown>
     172: 00 0d        	<unknown>
     174: 6e 00        	<unknown>
     176: 14 ab        	<unknown>
     178: 00 00        	<unknown>
     17a: 00 0c        	<unknown>
     17c: 00 00        	<unknown>
     17e: 00 0d        	<unknown>
     180: 64 00        	<unknown>
     182: 1f ab 00 00  	<unknown>
     186: 00 ed        	<unknown>
     188: 00 00        	<unknown>
     18a: 00 1c        	<unknown>
     18c: 2e 04        	<unknown>
     18e: 00 00        	<unknown>
     190: 08 30        	<unknown>
     192: 00 80        	<unknown>
     194: 0c 00        	<unknown>
     196: 00 00        	<unknown>
     198: 01 14        	<unknown>
     19a: 05 0a        	<unknown>
     19c: 0a 50        	<unknown>
     19e: 04 00        	<unknown>
     1a0: 00 7e        	<unknown>
     1a2: 01 00        	<unknown>
     1a4: 00 0a        	<unknown>
     1a6: 48 04        	<unknown>
     1a8: 00 00        	<unknown>
     1aa: 97 01 00 00  	auipc	gp, 0
     1ae: 0a 40        	<unknown>
     1b0: 04 00        	<unknown>
     1b2: 00 d8        	<unknown>
     1b4: 01 00        	<unknown>
     1b6: 00 1d        	<unknown>
     1b8: 28 00        	<unknown>
     1ba: 00 00        	<unknown>
     1bc: 08 59        	<unknown>
     1be: 04 00        	<unknown>
     1c0: 00 08        	<unknown>
     1c2: 64 04        	<unknown>
     1c4: 00 00        	<unknown>
     1c6: 08 6f        	<unknown>
     1c8: 04 00        	<unknown>
     1ca: 00 01        	<unknown>
     1cc: 7a 04        	<unknown>
     1ce: 00 00        	<unknown>
     1d0: b9 02        	<unknown>
     1d2: 00 00        	<unknown>
     1d4: 01 85        	<unknown>
     1d6: 04 00        	<unknown>
     1d8: 00 25        	<unknown>
     1da: 03 00 00 01  	lb	zero, 16(zero)
     1de: 90 04        	<unknown>
     1e0: 00 00        	<unknown>
     1e2: 5d 03        	<unknown>
     1e4: 00 00        	<unknown>
     1e6: 01 9b        	<unknown>
     1e8: 04 00        	<unknown>
     1ea: 00 0d        	<unknown>
     1ec: 04 00        	<unknown>
     1ee: 00 01        	<unknown>
     1f0: a6 04        	<unknown>
     1f2: 00 00        	<unknown>
     1f4: 92 04        	<unknown>
     1f6: 00 00        	<unknown>
     1f8: 01 b1        	<unknown>
     1fa: 04 00        	<unknown>
     1fc: 00 a9        	<unknown>
     1fe: 04 00        	<unknown>
     200: 00 01        	<unknown>
     202: bc 04        	<unknown>
     204: 00 00        	<unknown>
     206: cb 04 00 00  	fnmsub.s	fs1, ft0, ft0, ft0, rne
     20a: 01 c7        	<unknown>
     20c: 04 00        	<unknown>
     20e: 00 ee        	<unknown>
     210: 04 00        	<unknown>
     212: 00 01        	<unknown>
     214: d1 04        	<unknown>
     216: 00 00        	<unknown>
     218: 05 05        	<unknown>
     21a: 00 00        	<unknown>
     21c: 08 dc        	<unknown>
     21e: 04 00        	<unknown>
     220: 00 07        	<unknown>
     222: e7 04 00 00  	jalr	s1, zero
     226: 4d 00        	<unknown>
     228: 00 00        	<unknown>
     22a: 41 02        	<unknown>
     22c: 00 00        	<unknown>
     22e: 01 ec        	<unknown>
     230: 04 00        	<unknown>
     232: 00 3d        	<unknown>
     234: 05 00        	<unknown>
     236: 00 01        	<unknown>
     238: f8 04        	<unknown>
     23a: 00 00        	<unknown>
     23c: 72 05        	<unknown>
     23e: 00 00        	<unknown>
     240: 00 0e        	<unknown>
     242: 05 05        	<unknown>
     244: 00 00        	<unknown>
     246: 70 30        	<unknown>
     248: 00 80        	<unknown>
     24a: 88 00        	<unknown>
     24c: 00 00        	<unknown>
     24e: 92 02        	<unknown>
     250: 00 00        	<unknown>
     252: 01 0a        	<unknown>
     254: 05 00        	<unknown>
     256: 00 7e        	<unknown>
     258: 05 00        	<unknown>
     25a: 00 01        	<unknown>
     25c: 16 05        	<unknown>
     25e: 00 00        	<unknown>
     260: 8a 05        	<unknown>
     262: 00 00        	<unknown>
     264: 01 22        	<unknown>
     266: 05 00        	<unknown>
     268: 00 96        	<unknown>
     26a: 05 00        	<unknown>
     26c: 00 01        	<unknown>
     26e: 2e 05        	<unknown>
     270: 00 00        	<unknown>
     272: ad 05        	<unknown>
     274: 00 00        	<unknown>
     276: 01 3a        	<unknown>
     278: 05 00        	<unknown>
     27a: 00 c4        	<unknown>
     27c: 05 00        	<unknown>
     27e: 00 01        	<unknown>
     280: 46 05        	<unknown>
     282: 00 00        	<unknown>
     284: 08 06        	<unknown>
     286: 00 00        	<unknown>
     288: 01 52        	<unknown>
     28a: 05 00        	<unknown>
     28c: 00 2f        	<unknown>
     28e: 06 00        	<unknown>
     290: 00 00        	<unknown>
     292: 07 61 06 00  	<unknown>
     296: 00 60        	<unknown>
     298: 00 00        	<unknown>
     29a: 00 51        	<unknown>
     29c: 03 00 00 01  	lb	zero, 16(zero)
     2a0: 62 06        	<unknown>
     2a2: 00 00        	<unknown>
     2a4: 56 06        	<unknown>
     2a6: 00 00        	<unknown>
     2a8: 01 6d        	<unknown>
     2aa: 06 00        	<unknown>
     2ac: 00 62        	<unknown>
     2ae: 06 00        	<unknown>
     2b0: 00 07        	<unknown>
     2b2: 78 06        	<unknown>
     2b4: 00 00        	<unknown>
     2b6: 73 00 00 00  	ecall	
     2ba: fe 02        	<unknown>
     2bc: 00 00        	<unknown>
     2be: 01 7d        	<unknown>
     2c0: 06 00        	<unknown>
     2c2: 00 9c        	<unknown>
     2c4: 06 00        	<unknown>
     2c6: 00 01        	<unknown>
     2c8: 89 06        	<unknown>
     2ca: 00 00        	<unknown>
     2cc: a8 06        	<unknown>
     2ce: 00 00        	<unknown>
     2d0: 01 95        	<unknown>
     2d2: 06 00        	<unknown>
     2d4: 00 c5        	<unknown>
     2d6: 06 00        	<unknown>
     2d8: 00 01        	<unknown>
     2da: a1 06        	<unknown>
     2dc: 00 00        	<unknown>
     2de: dc 06        	<unknown>
     2e0: 00 00        	<unknown>
     2e2: 01 ad        	<unknown>
     2e4: 06 00        	<unknown>
     2e6: 00 f3        	<unknown>
     2e8: 06 00        	<unknown>
     2ea: 00 01        	<unknown>
     2ec: b9 06        	<unknown>
     2ee: 00 00        	<unknown>
     2f0: 25 07        	<unknown>
     2f2: 00 00        	<unknown>
     2f4: 01 c5        	<unknown>
     2f6: 06 00        	<unknown>
     2f8: 00 57        	<unknown>
     2fa: 07 00 00 00  	<unknown>
     2fe: 0f d2 06 00  	<unknown>
     302: 00 98        	<unknown>
     304: 00 00        	<unknown>
     306: 00 01        	<unknown>
     308: d7 06 00 00  	<unknown>
     30c: 7e 07        	<unknown>
     30e: 00 00        	<unknown>
     310: 01 e3        	<unknown>
     312: 06 00        	<unknown>
     314: 00 8a        	<unknown>
     316: 07 00 00 01  	<unknown>
     31a: ef 06 00 00  	jal	a3, 0x31a <.debug_info+0x31a>
     31e: c3 07 00 00  	fmadd.s	fa5, ft0, ft0, ft0, rne
     322: 01 fb        	<unknown>
     324: 06 00        	<unknown>
     326: 00 cf        	<unknown>
     328: 07 00 00 01  	<unknown>
     32c: 07 07 00 00  	<unknown>
     330: db 07 00 00  	<unknown>
     334: 01 13        	<unknown>
     336: 07 00 00 27  	<unknown>
     33a: 08 00        	<unknown>
     33c: 00 01        	<unknown>
     33e: 1f 07 00 00  	<unknown>
     342: 33 08 00 00  	add	a6, zero, zero
     346: 01 2b        	<unknown>
     348: 07 00 00 5d  	<unknown>
     34c: 08 00        	<unknown>
     34e: 00 00        	<unknown>
     350: 00 07        	<unknown>
     352: 5f 05 00 00  	<unknown>
     356: c6 00        	<unknown>
     358: 00 00        	<unknown>
     35a: 71 03        	<unknown>
     35c: 00 00        	<unknown>
     35e: 01 64        	<unknown>
     360: 05 00        	<unknown>
     362: 00 69        	<unknown>
     364: 08 00        	<unknown>
     366: 00 01        	<unknown>
     368: 70 05        	<unknown>
     36a: 00 00        	<unknown>
     36c: 80 08        	<unknown>
     36e: 00 00        	<unknown>
     370: 00 0e        	<unknown>
     372: d7 05 00 00  	<unknown>
     376: 54 31        	<unknown>
     378: 00 80        	<unknown>
     37a: 8c 00        	<unknown>
     37c: 00 00        	<unknown>
     37e: c2 03        	<unknown>
     380: 00 00        	<unknown>
     382: 01 dc        	<unknown>
     384: 05 00        	<unknown>
     386: 00 8c        	<unknown>
     388: 08 00        	<unknown>
     38a: 00 01        	<unknown>
     38c: e8 05        	<unknown>
     38e: 00 00        	<unknown>
     390: 98 08        	<unknown>
     392: 00 00        	<unknown>
     394: 01 f4        	<unknown>
     396: 05 00        	<unknown>
     398: 00 a4        	<unknown>
     39a: 08 00        	<unknown>
     39c: 00 01        	<unknown>
     39e: 00 06        	<unknown>
     3a0: 00 00        	<unknown>
     3a2: bb 08 00 00  	<unknown>
     3a6: 01 0c        	<unknown>
     3a8: 06 00        	<unknown>
     3aa: 00 d2        	<unknown>
     3ac: 08 00        	<unknown>
     3ae: 00 01        	<unknown>
     3b0: 18 06        	<unknown>
     3b2: 00 00        	<unknown>
     3b4: 04 09        	<unknown>
     3b6: 00 00        	<unknown>
     3b8: 01 24        	<unknown>
     3ba: 06 00        	<unknown>
     3bc: 00 2b        	<unknown>
     3be: 09 00        	<unknown>
     3c0: 00 00        	<unknown>
     3c2: 07 7d 05 00  	<unknown>
     3c6: 00 e2        	<unknown>
     3c8: 00 00        	<unknown>
     3ca: 00 0f        	<unknown>
     3cc: 04 00        	<unknown>
     3ce: 00 01        	<unknown>
     3d0: 82 05        	<unknown>
     3d2: 00 00        	<unknown>
     3d4: 52 09        	<unknown>
     3d6: 00 00        	<unknown>
     3d8: 01 8e        	<unknown>
     3da: 05 00        	<unknown>
     3dc: 00 5e        	<unknown>
     3de: 09 00        	<unknown>
     3e0: 00 01        	<unknown>
     3e2: 9a 05        	<unknown>
     3e4: 00 00        	<unknown>
     3e6: 7b 09 00 00  	<unknown>
     3ea: 01 a6        	<unknown>
     3ec: 05 00        	<unknown>
     3ee: 00 92        	<unknown>
     3f0: 09 00        	<unknown>
     3f2: 00 01        	<unknown>
     3f4: b2 05        	<unknown>
     3f6: 00 00        	<unknown>
     3f8: a9 09        	<unknown>
     3fa: 00 00        	<unknown>
     3fc: 01 be        	<unknown>
     3fe: 05 00        	<unknown>
     400: 00 db        	<unknown>
     402: 09 00        	<unknown>
     404: 00 01        	<unknown>
     406: ca 05        	<unknown>
     408: 00 00        	<unknown>
     40a: 0d 0a        	<unknown>
     40c: 00 00        	<unknown>
     40e: 00 0f        	<unknown>
     410: 31 06        	<unknown>
     412: 00 00        	<unknown>
     414: fe 00        	<unknown>
     416: 00 00        	<unknown>
     418: 01 36        	<unknown>
     41a: 06 00        	<unknown>
     41c: 00 34        	<unknown>
     41e: 0a 00        	<unknown>
     420: 00 01        	<unknown>
     422: 42 06        	<unknown>
     424: 00 00        	<unknown>
     426: 40 0a        	<unknown>
     428: 00 00        	<unknown>
     42a: 00 00        	<unknown>
     42c: 00 00        	<unknown>
     42e: 1e b8        	<unknown>
     430: 01 00        	<unknown>
     432: 00 01        	<unknown>
     434: e3 03 01 ab  	beq	sp, a6, 0xfffffeda <_end+0xffffffff7fff7a0e>
     438: 00 00        	<unknown>
     43a: 00 03        	<unknown>
     43c: 5a 07        	<unknown>
     43e: 00 00        	<unknown>
     440: 0b 6e 00 17  	<unknown>
     444: ab 00 00 00  	vx_tex	ra, 0, zero, zero, zero
     448: 0b 64 00 22  	<unknown>
     44c: ab 00 00 00  	vx_tex	ra, 0, zero, zero, zero
     450: 0b 72 70 00  	<unknown>
     454: 2e 5a        	<unknown>
     456: 07 00 00 03  	<unknown>
     45a: 6e 6e        	<unknown>
     45c: 00 e5        	<unknown>
     45e: 03 11 31 01  	lh	sp, 19(sp)
     462: 00 00        	<unknown>
     464: 03 64 64 00  	<unknown>
     468: e6 03        	<unknown>
     46a: 11 31        	<unknown>
     46c: 01 00        	<unknown>
     46e: 00 03        	<unknown>
     470: 72 72        	<unknown>
     472: 00 e7        	<unknown>
     474: 03 0b 24 01  	lb	s6, 18(s0)
     478: 00 00        	<unknown>
     47a: 03 64 30 00  	<unknown>
     47e: e8 03        	<unknown>
     480: 0a 95        	<unknown>
     482: 00 00        	<unknown>
     484: 00 03        	<unknown>
     486: 64 31        	<unknown>
     488: 00 e8        	<unknown>
     48a: 03 0e 95 00  	lb	t3, 9(a0)
     48e: 00 00        	<unknown>
     490: 03 6e 30 00  	<unknown>
     494: e8 03        	<unknown>
     496: 12 95        	<unknown>
     498: 00 00        	<unknown>
     49a: 00 03        	<unknown>
     49c: 6e 31        	<unknown>
     49e: 00 e8        	<unknown>
     4a0: 03 16 95 00  	lh	a2, 9(a0)
     4a4: 00 00        	<unknown>
     4a6: 03 6e 32 00  	<unknown>
     4aa: e8 03        	<unknown>
     4ac: 1a 95        	<unknown>
     4ae: 00 00        	<unknown>
     4b0: 00 03        	<unknown>
     4b2: 71 30        	<unknown>
     4b4: 00 e9        	<unknown>
     4b6: 03 0a 95 00  	lb	s4, 9(a0)
     4ba: 00 00        	<unknown>
     4bc: 03 71 31 00  	<unknown>
     4c0: e9 03        	<unknown>
     4c2: 0e 95        	<unknown>
     4c4: 00 00        	<unknown>
     4c6: 00 03        	<unknown>
     4c8: 62 00        	<unknown>
     4ca: ea 03        	<unknown>
     4cc: 0a 95        	<unknown>
     4ce: 00 00        	<unknown>
     4d0: 00 03        	<unknown>
     4d2: 62 6d        	<unknown>
     4d4: 00 ea        	<unknown>
     4d6: 03 0d 95 00  	lb	s10, 9(a0)
     4da: 00 00        	<unknown>
     4dc: 03 77 77 00  	<unknown>
     4e0: b3 04 11 31  	<unknown>
     4e4: 01 00        	<unknown>
     4e6: 00 05        	<unknown>
     4e8: 05 05        	<unknown>
     4ea: 00 00        	<unknown>
     4ec: 02 b3        	<unknown>
     4ee: 01 00        	<unknown>
     4f0: 00 1a        	<unknown>
     4f2: 04 04        	<unknown>
     4f4: 95 00        	<unknown>
     4f6: 00 00        	<unknown>
     4f8: 03 5f 5f 61  	lhu	t5, 1557(t5)
     4fc: 00 1a        	<unknown>
     4fe: 04 04        	<unknown>
     500: 95 00        	<unknown>
     502: 00 00        	<unknown>
     504: 00 05        	<unknown>
     506: 5f 05 00 00  	<unknown>
     50a: 02 2f        	<unknown>
     50c: 00 00        	<unknown>
     50e: 00 26        	<unknown>
     510: 04 04        	<unknown>
     512: 95 00        	<unknown>
     514: 00 00        	<unknown>
     516: 02 2a        	<unknown>
     518: 00 00        	<unknown>
     51a: 00 26        	<unknown>
     51c: 04 04        	<unknown>
     51e: 95 00        	<unknown>
     520: 00 00        	<unknown>
     522: 02 9f        	<unknown>
     524: 01 00        	<unknown>
     526: 00 26        	<unknown>
     528: 04 04        	<unknown>
     52a: 95 00        	<unknown>
     52c: 00 00        	<unknown>
     52e: 02 9a        	<unknown>
     530: 01 00        	<unknown>
     532: 00 26        	<unknown>
     534: 04 04        	<unknown>
     536: 95 00        	<unknown>
     538: 00 00        	<unknown>
     53a: 02 e6        	<unknown>
     53c: 01 00        	<unknown>
     53e: 00 26        	<unknown>
     540: 04 04        	<unknown>
     542: 95 00        	<unknown>
     544: 00 00        	<unknown>
     546: 02 e1        	<unknown>
     548: 01 00        	<unknown>
     54a: 00 26        	<unknown>
     54c: 04 04        	<unknown>
     54e: 95 00        	<unknown>
     550: 00 00        	<unknown>
     552: 03 5f 5f 6d  	lhu	t5, 1749(t5)
     556: 00 26        	<unknown>
     558: 04 04        	<unknown>
     55a: 95 00        	<unknown>
     55c: 00 00        	<unknown>
     55e: 00 05        	<unknown>
     560: 7d 05        	<unknown>
     562: 00 00        	<unknown>
     564: 02 b3        	<unknown>
     566: 01 00        	<unknown>
     568: 00 32        	<unknown>
     56a: 04 04        	<unknown>
     56c: 95 00        	<unknown>
     56e: 00 00        	<unknown>
     570: 03 5f 5f 61  	lhu	t5, 1557(t5)
     574: 00 32        	<unknown>
     576: 04 04        	<unknown>
     578: 95 00        	<unknown>
     57a: 00 00        	<unknown>
     57c: 00 05        	<unknown>
     57e: d7 05 00 00  	<unknown>
     582: 02 2f        	<unknown>
     584: 00 00        	<unknown>
     586: 00 4b        	<unknown>
     588: 04 08        	<unknown>
     58a: 95 00        	<unknown>
     58c: 00 00        	<unknown>
     58e: 02 2a        	<unknown>
     590: 00 00        	<unknown>
     592: 00 4b        	<unknown>
     594: 04 08        	<unknown>
     596: 95 00        	<unknown>
     598: 00 00        	<unknown>
     59a: 02 9f        	<unknown>
     59c: 01 00        	<unknown>
     59e: 00 4b        	<unknown>
     5a0: 04 08        	<unknown>
     5a2: 95 00        	<unknown>
     5a4: 00 00        	<unknown>
     5a6: 02 9a        	<unknown>
     5a8: 01 00        	<unknown>
     5aa: 00 4b        	<unknown>
     5ac: 04 08        	<unknown>
     5ae: 95 00        	<unknown>
     5b0: 00 00        	<unknown>
     5b2: 02 e6        	<unknown>
     5b4: 01 00        	<unknown>
     5b6: 00 4b        	<unknown>
     5b8: 04 08        	<unknown>
     5ba: 95 00        	<unknown>
     5bc: 00 00        	<unknown>
     5be: 02 e1        	<unknown>
     5c0: 01 00        	<unknown>
     5c2: 00 4b        	<unknown>
     5c4: 04 08        	<unknown>
     5c6: 95 00        	<unknown>
     5c8: 00 00        	<unknown>
     5ca: 03 5f 5f 6d  	lhu	t5, 1749(t5)
     5ce: 00 4b        	<unknown>
     5d0: 04 08        	<unknown>
     5d2: 95 00        	<unknown>
     5d4: 00 00        	<unknown>
     5d6: 00 05        	<unknown>
     5d8: 31 06        	<unknown>
     5da: 00 00        	<unknown>
     5dc: 02 2f        	<unknown>
     5de: 00 00        	<unknown>
     5e0: 00 50        	<unknown>
     5e2: 04 04        	<unknown>
     5e4: 95 00        	<unknown>
     5e6: 00 00        	<unknown>
     5e8: 02 2a        	<unknown>
     5ea: 00 00        	<unknown>
     5ec: 00 50        	<unknown>
     5ee: 04 04        	<unknown>
     5f0: 95 00        	<unknown>
     5f2: 00 00        	<unknown>
     5f4: 02 9f        	<unknown>
     5f6: 01 00        	<unknown>
     5f8: 00 50        	<unknown>
     5fa: 04 04        	<unknown>
     5fc: 95 00        	<unknown>
     5fe: 00 00        	<unknown>
     600: 02 9a        	<unknown>
     602: 01 00        	<unknown>
     604: 00 50        	<unknown>
     606: 04 04        	<unknown>
     608: 95 00        	<unknown>
     60a: 00 00        	<unknown>
     60c: 02 e6        	<unknown>
     60e: 01 00        	<unknown>
     610: 00 50        	<unknown>
     612: 04 04        	<unknown>
     614: 95 00        	<unknown>
     616: 00 00        	<unknown>
     618: 02 e1        	<unknown>
     61a: 01 00        	<unknown>
     61c: 00 50        	<unknown>
     61e: 04 04        	<unknown>
     620: 95 00        	<unknown>
     622: 00 00        	<unknown>
     624: 03 5f 5f 6d  	lhu	t5, 1749(t5)
     628: 00 50        	<unknown>
     62a: 04 04        	<unknown>
     62c: 95 00        	<unknown>
     62e: 00 00        	<unknown>
     630: 00 05        	<unknown>
     632: 4f 06 00 00  	fnmadd.s	fa2, ft0, ft0, ft0, rne
     636: 02 b3        	<unknown>
     638: 01 00        	<unknown>
     63a: 00 73        	<unknown>
     63c: 04 04        	<unknown>
     63e: 95 00        	<unknown>
     640: 00 00        	<unknown>
     642: 03 5f 5f 61  	lhu	t5, 1557(t5)
     646: 00 73        	<unknown>
     648: 04 04        	<unknown>
     64a: 95 00        	<unknown>
     64c: 00 00        	<unknown>
     64e: 00 05        	<unknown>
     650: 61 06        	<unknown>
     652: 00 00        	<unknown>
     654: 03 5f 5f 78  	lhu	t5, 1925(t5)
     658: 00 81        	<unknown>
     65a: 04 05        	<unknown>
     65c: 95 00        	<unknown>
     65e: 00 00        	<unknown>
     660: 00 10        	<unknown>
     662: 03 6d 31 00  	<unknown>
     666: 91 04        	<unknown>
     668: 0f 95 00 00  	<unknown>
     66c: 00 03        	<unknown>
     66e: 6d 30        	<unknown>
     670: 00 91        	<unknown>
     672: 04 13        	<unknown>
     674: 95 00        	<unknown>
     676: 00 00        	<unknown>
     678: 05 d2        	<unknown>
     67a: 06 00        	<unknown>
     67c: 00 02        	<unknown>
     67e: 2f 00 00 00  	<unknown>
     682: 9c 04        	<unknown>
     684: 08 95        	<unknown>
     686: 00 00        	<unknown>
     688: 00 02        	<unknown>
     68a: 2a 00        	<unknown>
     68c: 00 00        	<unknown>
     68e: 9c 04        	<unknown>
     690: 08 95        	<unknown>
     692: 00 00        	<unknown>
     694: 00 02        	<unknown>
     696: 9f 01 00 00  	<unknown>
     69a: 9c 04        	<unknown>
     69c: 08 95        	<unknown>
     69e: 00 00        	<unknown>
     6a0: 00 02        	<unknown>
     6a2: 9a 01        	<unknown>
     6a4: 00 00        	<unknown>
     6a6: 9c 04        	<unknown>
     6a8: 08 95        	<unknown>
     6aa: 00 00        	<unknown>
     6ac: 00 02        	<unknown>
     6ae: e6 01        	<unknown>
     6b0: 00 00        	<unknown>
     6b2: 9c 04        	<unknown>
     6b4: 08 95        	<unknown>
     6b6: 00 00        	<unknown>
     6b8: 00 02        	<unknown>
     6ba: e1 01        	<unknown>
     6bc: 00 00        	<unknown>
     6be: 9c 04        	<unknown>
     6c0: 08 95        	<unknown>
     6c2: 00 00        	<unknown>
     6c4: 00 03        	<unknown>
     6c6: 5f 5f 6d 00  	<unknown>
     6ca: 9c 04        	<unknown>
     6cc: 08 95        	<unknown>
     6ce: 00 00        	<unknown>
     6d0: 00 00        	<unknown>
     6d2: 05 38        	<unknown>
     6d4: 07 00 00 02  	<unknown>
     6d8: 5a 01        	<unknown>
     6da: 00 00        	<unknown>
     6dc: 9d 04        	<unknown>
     6de: 08 95        	<unknown>
     6e0: 00 00        	<unknown>
     6e2: 00 02        	<unknown>
     6e4: 5f 01 00 00  	<unknown>
     6e8: 9d 04        	<unknown>
     6ea: 08 95        	<unknown>
     6ec: 00 00        	<unknown>
     6ee: 00 02        	<unknown>
     6f0: 64 01        	<unknown>
     6f2: 00 00        	<unknown>
     6f4: 9d 04        	<unknown>
     6f6: 08 95        	<unknown>
     6f8: 00 00        	<unknown>
     6fa: 00 02        	<unknown>
     6fc: 69 01        	<unknown>
     6fe: 00 00        	<unknown>
     700: 9d 04        	<unknown>
     702: 08 95        	<unknown>
     704: 00 00        	<unknown>
     706: 00 02        	<unknown>
     708: f0 01        	<unknown>
     70a: 00 00        	<unknown>
     70c: 9d 04        	<unknown>
     70e: 08 95        	<unknown>
     710: 00 00        	<unknown>
     712: 00 02        	<unknown>
     714: 39 00        	<unknown>
     716: 00 00        	<unknown>
     718: 9d 04        	<unknown>
     71a: 08 95        	<unknown>
     71c: 00 00        	<unknown>
     71e: 00 02        	<unknown>
     720: eb 01 00 00  	<unknown>
     724: 9d 04        	<unknown>
     726: 08 95        	<unknown>
     728: 00 00        	<unknown>
     72a: 00 02        	<unknown>
     72c: 34 00        	<unknown>
     72e: 00 00        	<unknown>
     730: 9d 04        	<unknown>
     732: 08 95        	<unknown>
     734: 00 00        	<unknown>
     736: 00 00        	<unknown>
     738: 05 4a        	<unknown>
     73a: 07 00 00 03  	<unknown>
     73e: 5f 5f 78 00  	<unknown>
     742: a2 04        	<unknown>
     744: 05 95        	<unknown>
     746: 00 00        	<unknown>
     748: 00 00        	<unknown>
     74a: 10 03        	<unknown>
     74c: 5f 5f 78 00  	<unknown>
     750: aa 04        	<unknown>
     752: 05 95        	<unknown>
     754: 00 00        	<unknown>
     756: 00 00        	<unknown>
     758: 00 00        	<unknown>
     75a: 1f 04 ab 00  	<unknown>
     75e: 00 00        	<unknown>
     760: 00 b0        	<unknown>
     762: 07 00 00 05  	<unknown>
     766: 00 01        	<unknown>
     768: 04 a6        	<unknown>
     76a: 01 00        	<unknown>
     76c: 00 11        	<unknown>
     76e: 72 00        	<unknown>
     770: 00 00        	<unknown>
     772: 1d 00        	<unknown>
     774: 00 00        	<unknown>
     776: 00 21        	<unknown>
     778: 00 00        	<unknown>
     77a: 00 38        	<unknown>
     77c: 34 00        	<unknown>
     77e: 80 e4        	<unknown>
     780: 03 00 00 13  	lb	zero, 304(zero)
     784: 07 00 00 04  	<unknown>
     788: 08 07        	<unknown>
     78a: 4c 00        	<unknown>
     78c: 00 00        	<unknown>
     78e: 04 04        	<unknown>
     790: 07 56 00 00  	<unknown>
     794: 00 12        	<unknown>
     796: 04 05        	<unknown>
     798: 69 6e        	<unknown>
     79a: 74 00        	<unknown>
     79c: 04 08        	<unknown>
     79e: 05 3e        	<unknown>
     7a0: 00 00        	<unknown>
     7a2: 00 04        	<unknown>
     7a4: 10 04        	<unknown>
     7a6: cd 01        	<unknown>
     7a8: 00 00        	<unknown>
     7aa: 04 01        	<unknown>
     7ac: 06 4e        	<unknown>
     7ae: 01 00        	<unknown>
     7b0: 00 04        	<unknown>
     7b2: 01 08        	<unknown>
     7b4: 4c 01        	<unknown>
     7b6: 00 00        	<unknown>
     7b8: 04 02        	<unknown>
     7ba: 05 20        	<unknown>
     7bc: 00 00        	<unknown>
     7be: 00 04        	<unknown>
     7c0: 02 07        	<unknown>
     7c2: 7f 01 00 00  	<unknown>
     7c6: 04 04        	<unknown>
     7c8: 05 43        	<unknown>
     7ca: 00 00        	<unknown>
     7cc: 00 04        	<unknown>
     7ce: 04 07        	<unknown>
     7d0: 51 00        	<unknown>
     7d2: 00 00        	<unknown>
     7d4: 04 01        	<unknown>
     7d6: 08 55        	<unknown>
     7d8: 01 00        	<unknown>
     7da: 00 07        	<unknown>
     7dc: 6e 01        	<unknown>
     7de: 00 00        	<unknown>
     7e0: 7b 16 50 00  	<unknown>
     7e4: 00 00        	<unknown>
     7e6: 09 7a        	<unknown>
     7e8: 00 00        	<unknown>
     7ea: 00 07        	<unknown>
     7ec: da 01        	<unknown>
     7ee: 00 00        	<unknown>
     7f0: 80 0f        	<unknown>
     7f2: 34 00        	<unknown>
     7f4: 00 00        	<unknown>
     7f6: 07 d9 01 00  	<unknown>
     7fa: 00 81        	<unknown>
     7fc: 16 2d        	<unknown>
     7fe: 00 00        	<unknown>
     800: 00 07        	<unknown>
     802: 93 01 00 00  	li	gp, 0
     806: 84 0f        	<unknown>
     808: 3b 00 00 00  	<unknown>
     80c: 07 92 01 00  	<unknown>
     810: 00 85        	<unknown>
     812: 16 26        	<unknown>
     814: 00 00        	<unknown>
     816: 00 04        	<unknown>
     818: 04 04        	<unknown>
     81a: 1a 00        	<unknown>
     81c: 00 00        	<unknown>
     81e: 04 08        	<unknown>
     820: 03 12 00 00  	lh	tp, 0(zero)
     824: 00 04        	<unknown>
     826: 08 04        	<unknown>
     828: d2 01        	<unknown>
     82a: 00 00        	<unknown>
     82c: 04 10        	<unknown>
     82e: 03 a4 01 00  	lw	s0, 0(gp)
     832: 00 04        	<unknown>
     834: 20 03        	<unknown>
     836: c5 01        	<unknown>
     838: 00 00        	<unknown>
     83a: 13 76 01 00  	andi	a2, sp, 0
     83e: 00 08        	<unknown>
     840: 02 ed        	<unknown>
     842: 01 0a        	<unknown>
     844: 04 01        	<unknown>
     846: 00 00        	<unknown>
     848: 14 6c        	<unknown>
     84a: 6f 77 00 02  	jal	a4, 0x786a <.debug_info+0x786a>
     84e: ed 01        	<unknown>
     850: 1a 8a        	<unknown>
     852: 00 00        	<unknown>
     854: 00 00        	<unknown>
     856: 15 63        	<unknown>
     858: 00 00        	<unknown>
     85a: 00 02        	<unknown>
     85c: ed 01        	<unknown>
     85e: 1f 8a 00 00  	<unknown>
     862: 00 04        	<unknown>
     864: 00 16        	<unknown>
     866: 08 02        	<unknown>
     868: f4 01        	<unknown>
     86a: 09 24        	<unknown>
     86c: 01 00        	<unknown>
     86e: 00 0d        	<unknown>
     870: 73 00 f6 01  	<unknown>
     874: 13 d9 00 00  	srli	s2, ra, 0
     878: 00 0d        	<unknown>
     87a: 6c 6c        	<unknown>
     87c: 00 f7        	<unknown>
     87e: 01 0a        	<unknown>
     880: a0 00        	<unknown>
     882: 00 00        	<unknown>
     884: 00 17        	<unknown>
     886: 00 00        	<unknown>
     888: 00 00        	<unknown>
     88a: 02 f8        	<unknown>
     88c: 01 03        	<unknown>
     88e: 04 01        	<unknown>
     890: 00 00        	<unknown>
     892: 09 24        	<unknown>
     894: 01 00        	<unknown>
     896: 00 18        	<unknown>
     898: 85 00        	<unknown>
     89a: 00 00        	<unknown>
     89c: 46 01        	<unknown>
     89e: 00 00        	<unknown>
     8a0: 19 2d        	<unknown>
     8a2: 00 00        	<unknown>
     8a4: 00 ff        	<unknown>
     8a6: 00 09        	<unknown>
     8a8: 36 01        	<unknown>
     8aa: 00 00        	<unknown>
     8ac: 1a 68        	<unknown>
     8ae: 00 00        	<unknown>
     8b0: 00 02        	<unknown>
     8b2: 02 02        	<unknown>
     8b4: 16 46        	<unknown>
     8b6: 01 00        	<unknown>
     8b8: 00 1b        	<unknown>
     8ba: f5 01        	<unknown>
     8bc: 00 00        	<unknown>
     8be: 01 06        	<unknown>
     8c0: 05 01        	<unknown>
     8c2: ab 00 00 00  	vx_tex	ra, 0, zero, zero, zero
     8c6: 38 34        	<unknown>
     8c8: 00 80        	<unknown>
     8ca: e4 03        	<unknown>
     8cc: 00 00        	<unknown>
     8ce: 01 9c        	<unknown>
     8d0: 81 04        	<unknown>
     8d2: 00 00        	<unknown>
     8d4: 0e 75        	<unknown>
     8d6: 00 14        	<unknown>
     8d8: ab 00 00 00  	vx_tex	ra, 0, zero, zero, zero
     8dc: 58 0a        	<unknown>
     8de: 00 00        	<unknown>
     8e0: 0e 76        	<unknown>
     8e2: 00 1f        	<unknown>
     8e4: ab 00 00 00  	vx_tex	ra, 0, zero, zero, zero
     8e8: f9 0a        	<unknown>
     8ea: 00 00        	<unknown>
     8ec: 03 77 00 08  	<unknown>
     8f0: 05 0b        	<unknown>
     8f2: ab 00 00 00  	vx_tex	ra, 0, zero, zero, zero
     8f6: 1c 81        	<unknown>
     8f8: 04 00        	<unknown>
     8fa: 00 38        	<unknown>
     8fc: 34 00        	<unknown>
     8fe: 80 e0        	<unknown>
     900: 03 00 00 01  	lb	zero, 16(zero)
     904: 0a 05        	<unknown>
     906: 0a 0a        	<unknown>
     908: a3 04 00 00  	sb	zero, 9(zero)
     90c: 9a 0b        	<unknown>
     90e: 00 00        	<unknown>
     910: 0a 9b        	<unknown>
     912: 04 00        	<unknown>
     914: 00 ab        	<unknown>
     916: 0b 00 00 0a  	<unknown>
     91a: 93 04 00 00  	li	s1, 0
     91e: ec 0b        	<unknown>
     920: 00 00        	<unknown>
     922: 08 ac        	<unknown>
     924: 04 00        	<unknown>
     926: 00 08        	<unknown>
     928: b7 04 00 00  	lui	s1, 0
     92c: 08 c2        	<unknown>
     92e: 04 00        	<unknown>
     930: 00 01        	<unknown>
     932: cd 04        	<unknown>
     934: 00 00        	<unknown>
     936: 3d 0c        	<unknown>
     938: 00 00        	<unknown>
     93a: 01 d8        	<unknown>
     93c: 04 00        	<unknown>
     93e: 00 96        	<unknown>
     940: 0c 00        	<unknown>
     942: 00 01        	<unknown>
     944: e3 04 00 00  	beqz	zero, 0x114c <.debug_info+0x114c>
     948: ce 0c        	<unknown>
     94a: 00 00        	<unknown>
     94c: 01 ee        	<unknown>
     94e: 04 00        	<unknown>
     950: 00 27        	<unknown>
     952: 0d 00        	<unknown>
     954: 00 01        	<unknown>
     956: f9 04        	<unknown>
     958: 00 00        	<unknown>
     95a: b7 0d 00 00  	lui	s11, 0
     95e: 01 04        	<unknown>
     960: 05 00        	<unknown>
     962: 00 ce        	<unknown>
     964: 0d 00        	<unknown>
     966: 00 01        	<unknown>
     968: 0f 05 00 00  	<unknown>
     96c: db 0d 00 00  	<unknown>
     970: 01 1a        	<unknown>
     972: 05 00        	<unknown>
     974: 00 f4        	<unknown>
     976: 0d 00        	<unknown>
     978: 00 01        	<unknown>
     97a: 24 05        	<unknown>
     97c: 00 00        	<unknown>
     97e: 0b 0e 00 00  	<unknown>
     982: 08 2f        	<unknown>
     984: 05 00        	<unknown>
     986: 00 06        	<unknown>
     988: 3a 05        	<unknown>
     98a: 00 00        	<unknown>
     98c: 1d 01        	<unknown>
     98e: 00 00        	<unknown>
     990: 46 02        	<unknown>
     992: 00 00        	<unknown>
     994: 01 3f        	<unknown>
     996: 05 00        	<unknown>
     998: 00 43        	<unknown>
     99a: 0e 00        	<unknown>
     99c: 00 01        	<unknown>
     99e: 4b 05 00 00  	fnmsub.s	fa0, ft0, ft0, ft0, rne
     9a2: 5a 0e        	<unknown>
     9a4: 00 00        	<unknown>
     9a6: 00 0b        	<unknown>
     9a8: 58 05        	<unknown>
     9aa: 00 00        	<unknown>
     9ac: 98 34        	<unknown>
     9ae: 00 80        	<unknown>
     9b0: 48 00        	<unknown>
     9b2: 00 00        	<unknown>
     9b4: 97 02 00 00  	auipc	t0, 0
     9b8: 01 5d        	<unknown>
     9ba: 05 00        	<unknown>
     9bc: 00 66        	<unknown>
     9be: 0e 00        	<unknown>
     9c0: 00 01        	<unknown>
     9c2: 69 05        	<unknown>
     9c4: 00 00        	<unknown>
     9c6: 72 0e        	<unknown>
     9c8: 00 00        	<unknown>
     9ca: 01 75        	<unknown>
     9cc: 05 00        	<unknown>
     9ce: 00 7e        	<unknown>
     9d0: 0e 00        	<unknown>
     9d2: 00 01        	<unknown>
     9d4: 81 05        	<unknown>
     9d6: 00 00        	<unknown>
     9d8: 95 0e        	<unknown>
     9da: 00 00        	<unknown>
     9dc: 01 8d        	<unknown>
     9de: 05 00        	<unknown>
     9e0: 00 b7        	<unknown>
     9e2: 0e 00        	<unknown>
     9e4: 00 01        	<unknown>
     9e6: 99 05        	<unknown>
     9e8: 00 00        	<unknown>
     9ea: d3 0e 00 00  	fadd.s	ft9, ft0, ft0, rne
     9ee: 01 a5        	<unknown>
     9f0: 05 00        	<unknown>
     9f2: 00 ef        	<unknown>
     9f4: 0e 00        	<unknown>
     9f6: 00 00        	<unknown>
     9f8: 06 2a        	<unknown>
     9fa: 06 00        	<unknown>
     9fc: 00 30        	<unknown>
     9fe: 01 00        	<unknown>
     a00: 00 e4        	<unknown>
     a02: 02 00        	<unknown>
     a04: 00 01        	<unknown>
     a06: 2f 06 00 00  	<unknown>
     a0a: fb 0e 00 00  	<unknown>
     a0e: 01 3b        	<unknown>
     a10: 06 00        	<unknown>
     a12: 00 07        	<unknown>
     a14: 0f 00 00 01  	fence	w, 0
     a18: 47 06 00 00  	fmsub.s	fa2, ft0, ft0, ft0, rne
     a1c: 13 0f 00 00  	li	t5, 0
     a20: 01 53        	<unknown>
     a22: 06 00        	<unknown>
     a24: 00 1f        	<unknown>
     a26: 0f 00 00 01  	fence	w, 0
     a2a: 5f 06 00 00  	<unknown>
     a2e: 41 0f        	<unknown>
     a30: 00 00        	<unknown>
     a32: 01 6b        	<unknown>
     a34: 06 00        	<unknown>
     a36: 00 68        	<unknown>
     a38: 0f 00 00 01  	fence	w, 0
     a3c: 77 06 00 00  	<unknown>
     a40: 8f 0f 00 00  	<unknown>
     a44: 00 06        	<unknown>
     a46: b2 05        	<unknown>
     a48: 00 00        	<unknown>
     a4a: 43 01 00 00  	fmadd.s	ft2, ft0, ft0, ft0, rne
     a4e: 04 03        	<unknown>
     a50: 00 00        	<unknown>
     a52: 01 b7        	<unknown>
     a54: 05 00        	<unknown>
     a56: 00 a6        	<unknown>
     a58: 0f 00 00 01  	fence	w, 0
     a5c: c3 05 00 00  	fmadd.s	fa1, ft0, ft0, ft0, rne
     a60: bd 0f        	<unknown>
     a62: 00 00        	<unknown>
     a64: 00 06        	<unknown>
     a66: d0 05        	<unknown>
     a68: 00 00        	<unknown>
     a6a: 5f 01 00 00  	<unknown>
     a6e: 51 03        	<unknown>
     a70: 00 00        	<unknown>
     a72: 01 d5        	<unknown>
     a74: 05 00        	<unknown>
     a76: 00 c9        	<unknown>
     a78: 0f 00 00 01  	fence	w, 0
     a7c: e1 05        	<unknown>
     a7e: 00 00        	<unknown>
     a80: d5 0f        	<unknown>
     a82: 00 00        	<unknown>
     a84: 01 ed        	<unknown>
     a86: 05 00        	<unknown>
     a88: 00 e1        	<unknown>
     a8a: 0f 00 00 01  	fence	w, 0
     a8e: f9 05        	<unknown>
     a90: 00 00        	<unknown>
     a92: ed 0f        	<unknown>
     a94: 00 00        	<unknown>
     a96: 01 05        	<unknown>
     a98: 06 00        	<unknown>
     a9a: 00 0f        	<unknown>
     a9c: 10 00        	<unknown>
     a9e: 00 01        	<unknown>
     aa0: 11 06        	<unknown>
     aa2: 00 00        	<unknown>
     aa4: 36 10        	<unknown>
     aa6: 00 00        	<unknown>
     aa8: 01 1d        	<unknown>
     aaa: 06 00        	<unknown>
     aac: 00 5d        	<unknown>
     aae: 10 00        	<unknown>
     ab0: 00 00        	<unknown>
     ab2: 06 84        	<unknown>
     ab4: 06 00        	<unknown>
     ab6: 00 72        	<unknown>
     ab8: 01 00        	<unknown>
     aba: 00 71        	<unknown>
     abc: 03 00 00 01  	lb	zero, 16(zero)
     ac0: 89 06        	<unknown>
     ac2: 00 00        	<unknown>
     ac4: 74 10        	<unknown>
     ac6: 00 00        	<unknown>
     ac8: 01 95        	<unknown>
     aca: 06 00        	<unknown>
     acc: 00 8b        	<unknown>
     ace: 10 00        	<unknown>
     ad0: 00 00        	<unknown>
     ad2: 0b a2 06 00  	vx_split	tp, a3
     ad6: 00 94        	<unknown>
     ad8: 36 00        	<unknown>
     ada: 80 14        	<unknown>
     adc: 00 00        	<unknown>
     ade: 00 8c        	<unknown>
     ae0: 03 00 00 01  	lb	zero, 16(zero)
     ae4: a7 06 00 00  	<unknown>
     ae8: 97 10 00 00  	auipc	ra, 1
     aec: 00 0f        	<unknown>
     aee: b4 06        	<unknown>
     af0: 00 00        	<unknown>
     af2: c8 36        	<unknown>
     af4: 00 80        	<unknown>
     af6: 50 01        	<unknown>
     af8: 00 00        	<unknown>
     afa: 01 b5        	<unknown>
     afc: 06 00        	<unknown>
     afe: 00 a3        	<unknown>
     b00: 10 00        	<unknown>
     b02: 00 01        	<unknown>
     b04: c0 06        	<unknown>
     b06: 00 00        	<unknown>
     b08: af 10 00 00  	<unknown>
     b0c: 06 cb        	<unknown>
     b0e: 06 00        	<unknown>
     b10: 00 85        	<unknown>
     b12: 01 00        	<unknown>
     b14: 00 f8        	<unknown>
     b16: 03 00 00 01  	lb	zero, 16(zero)
     b1a: d0 06        	<unknown>
     b1c: 00 00        	<unknown>
     b1e: c6 10        	<unknown>
     b20: 00 00        	<unknown>
     b22: 01 dc        	<unknown>
     b24: 06 00        	<unknown>
     b26: 00 e1        	<unknown>
     b28: 10 00        	<unknown>
     b2a: 00 01        	<unknown>
     b2c: e8 06        	<unknown>
     b2e: 00 00        	<unknown>
     b30: fe 10        	<unknown>
     b32: 00 00        	<unknown>
     b34: 01 f4        	<unknown>
     b36: 06 00        	<unknown>
     b38: 00 15        	<unknown>
     b3a: 11 00        	<unknown>
     b3c: 00 01        	<unknown>
     b3e: 00 07        	<unknown>
     b40: 00 00        	<unknown>
     b42: 2c 11        	<unknown>
     b44: 00 00        	<unknown>
     b46: 01 0c        	<unknown>
     b48: 07 00 00 5e  	<unknown>
     b4c: 11 00        	<unknown>
     b4e: 00 01        	<unknown>
     b50: 18 07        	<unknown>
     b52: 00 00        	<unknown>
     b54: 90 11        	<unknown>
     b56: 00 00        	<unknown>
     b58: 00 06        	<unknown>
     b5a: 25 07        	<unknown>
     b5c: 00 00        	<unknown>
     b5e: aa 01        	<unknown>
     b60: 00 00        	<unknown>
     b62: 4c 04        	<unknown>
     b64: 00 00        	<unknown>
     b66: 01 2a        	<unknown>
     b68: 07 00 00 cb  	<unknown>
     b6c: 11 00        	<unknown>
     b6e: 00 01        	<unknown>
     b70: 36 07        	<unknown>
     b72: 00 00        	<unknown>
     b74: d7 11 00 00  	<unknown>
     b78: 01 42        	<unknown>
     b7a: 07 00 00 f5  	<unknown>
     b7e: 11 00        	<unknown>
     b80: 00 01        	<unknown>
     b82: 4e 07        	<unknown>
     b84: 00 00        	<unknown>
     b86: 01 12        	<unknown>
     b88: 00 00        	<unknown>
     b8a: 01 5a        	<unknown>
     b8c: 07 00 00 0d  	<unknown>
     b90: 12 00        	<unknown>
     b92: 00 01        	<unknown>
     b94: 66 07        	<unknown>
     b96: 00 00        	<unknown>
     b98: 19 12        	<unknown>
     b9a: 00 00        	<unknown>
     b9c: 01 72        	<unknown>
     b9e: 07 00 00 45  	<unknown>
     ba2: 12 00        	<unknown>
     ba4: 00 1d        	<unknown>
     ba6: 7e 07        	<unknown>
     ba8: 00 00        	<unknown>
     baa: 01 6c        	<unknown>
     bac: 00 0b        	<unknown>
     bae: 8b 07 00 00  	<unknown>
     bb2: e4 37        	<unknown>
     bb4: 00 80        	<unknown>
     bb6: 14 00        	<unknown>
     bb8: 00 00        	<unknown>
     bba: 67 04 00 00  	jalr	s0, zero
     bbe: 01 90        	<unknown>
     bc0: 07 00 00 51  	<unknown>
     bc4: 12 00        	<unknown>
     bc6: 00 00        	<unknown>
     bc8: 0f 9d 07 00  	<unknown>
     bcc: 00 f8        	<unknown>
     bce: 37 00 80 10  	lui	zero, 67584
     bd2: 00 00        	<unknown>
     bd4: 00 01        	<unknown>
     bd6: 9e 07        	<unknown>
     bd8: 00 00        	<unknown>
     bda: 5d 12        	<unknown>
     bdc: 00 00        	<unknown>
     bde: 00 00        	<unknown>
     be0: 00 00        	<unknown>
     be2: 1e b8        	<unknown>
     be4: 01 00        	<unknown>
     be6: 00 01        	<unknown>
     be8: e3 03 01 ab  	beq	sp, a6, 0x68e <.debug_info+0x68e>
     bec: 00 00        	<unknown>
     bee: 00 03        	<unknown>
     bf0: ad 07        	<unknown>
     bf2: 00 00        	<unknown>
     bf4: 0c 6e        	<unknown>
     bf6: 00 17        	<unknown>
     bf8: ab 00 00 00  	vx_tex	ra, 0, zero, zero, zero
     bfc: 0c 64        	<unknown>
     bfe: 00 22        	<unknown>
     c00: ab 00 00 00  	vx_tex	ra, 0, zero, zero, zero
     c04: 0c 72        	<unknown>
     c06: 70 00        	<unknown>
     c08: 2e ad        	<unknown>
     c0a: 07 00 00 03  	<unknown>
     c0e: 6e 6e        	<unknown>
     c10: 00 e5        	<unknown>
     c12: 03 11 31 01  	lh	sp, 19(sp)
     c16: 00 00        	<unknown>
     c18: 03 64 64 00  	<unknown>
     c1c: e6 03        	<unknown>
     c1e: 11 31        	<unknown>
     c20: 01 00        	<unknown>
     c22: 00 03        	<unknown>
     c24: 72 72        	<unknown>
     c26: 00 e7        	<unknown>
     c28: 03 0b 24 01  	lb	s6, 18(s0)
     c2c: 00 00        	<unknown>
     c2e: 03 64 30 00  	<unknown>
     c32: e8 03        	<unknown>
     c34: 0a 95        	<unknown>
     c36: 00 00        	<unknown>
     c38: 00 03        	<unknown>
     c3a: 64 31        	<unknown>
     c3c: 00 e8        	<unknown>
     c3e: 03 0e 95 00  	lb	t3, 9(a0)
     c42: 00 00        	<unknown>
     c44: 03 6e 30 00  	<unknown>
     c48: e8 03        	<unknown>
     c4a: 12 95        	<unknown>
     c4c: 00 00        	<unknown>
     c4e: 00 03        	<unknown>
     c50: 6e 31        	<unknown>
     c52: 00 e8        	<unknown>
     c54: 03 16 95 00  	lh	a2, 9(a0)
     c58: 00 00        	<unknown>
     c5a: 03 6e 32 00  	<unknown>
     c5e: e8 03        	<unknown>
     c60: 1a 95        	<unknown>
     c62: 00 00        	<unknown>
     c64: 00 03        	<unknown>
     c66: 71 30        	<unknown>
     c68: 00 e9        	<unknown>
     c6a: 03 0a 95 00  	lb	s4, 9(a0)
     c6e: 00 00        	<unknown>
     c70: 03 71 31 00  	<unknown>
     c74: e9 03        	<unknown>
     c76: 0e 95        	<unknown>
     c78: 00 00        	<unknown>
     c7a: 00 03        	<unknown>
     c7c: 62 00        	<unknown>
     c7e: ea 03        	<unknown>
     c80: 0a 95        	<unknown>
     c82: 00 00        	<unknown>
     c84: 00 03        	<unknown>
     c86: 62 6d        	<unknown>
     c88: 00 ea        	<unknown>
     c8a: 03 0d 95 00  	lb	s10, 9(a0)
     c8e: 00 00        	<unknown>
     c90: 03 77 77 00  	<unknown>
     c94: b3 04 11 31  	<unknown>
     c98: 01 00        	<unknown>
     c9a: 00 05        	<unknown>
     c9c: 58 05        	<unknown>
     c9e: 00 00        	<unknown>
     ca0: 02 b3        	<unknown>
     ca2: 01 00        	<unknown>
     ca4: 00 1a        	<unknown>
     ca6: 04 04        	<unknown>
     ca8: 95 00        	<unknown>
     caa: 00 00        	<unknown>
     cac: 03 5f 5f 61  	lhu	t5, 1557(t5)
     cb0: 00 1a        	<unknown>
     cb2: 04 04        	<unknown>
     cb4: 95 00        	<unknown>
     cb6: 00 00        	<unknown>
     cb8: 00 05        	<unknown>
     cba: b2 05        	<unknown>
     cbc: 00 00        	<unknown>
     cbe: 02 2f        	<unknown>
     cc0: 00 00        	<unknown>
     cc2: 00 26        	<unknown>
     cc4: 04 04        	<unknown>
     cc6: 95 00        	<unknown>
     cc8: 00 00        	<unknown>
     cca: 02 2a        	<unknown>
     ccc: 00 00        	<unknown>
     cce: 00 26        	<unknown>
     cd0: 04 04        	<unknown>
     cd2: 95 00        	<unknown>
     cd4: 00 00        	<unknown>
     cd6: 02 9f        	<unknown>
     cd8: 01 00        	<unknown>
     cda: 00 26        	<unknown>
     cdc: 04 04        	<unknown>
     cde: 95 00        	<unknown>
     ce0: 00 00        	<unknown>
     ce2: 02 9a        	<unknown>
     ce4: 01 00        	<unknown>
     ce6: 00 26        	<unknown>
     ce8: 04 04        	<unknown>
     cea: 95 00        	<unknown>
     cec: 00 00        	<unknown>
     cee: 02 e6        	<unknown>
     cf0: 01 00        	<unknown>
     cf2: 00 26        	<unknown>
     cf4: 04 04        	<unknown>
     cf6: 95 00        	<unknown>
     cf8: 00 00        	<unknown>
     cfa: 02 e1        	<unknown>
     cfc: 01 00        	<unknown>
     cfe: 00 26        	<unknown>
     d00: 04 04        	<unknown>
     d02: 95 00        	<unknown>
     d04: 00 00        	<unknown>
     d06: 03 5f 5f 6d  	lhu	t5, 1749(t5)
     d0a: 00 26        	<unknown>
     d0c: 04 04        	<unknown>
     d0e: 95 00        	<unknown>
     d10: 00 00        	<unknown>
     d12: 00 05        	<unknown>
     d14: d0 05        	<unknown>
     d16: 00 00        	<unknown>
     d18: 02 b3        	<unknown>
     d1a: 01 00        	<unknown>
     d1c: 00 32        	<unknown>
     d1e: 04 04        	<unknown>
     d20: 95 00        	<unknown>
     d22: 00 00        	<unknown>
     d24: 03 5f 5f 61  	lhu	t5, 1557(t5)
     d28: 00 32        	<unknown>
     d2a: 04 04        	<unknown>
     d2c: 95 00        	<unknown>
     d2e: 00 00        	<unknown>
     d30: 00 05        	<unknown>
     d32: 2a 06        	<unknown>
     d34: 00 00        	<unknown>
     d36: 02 2f        	<unknown>
     d38: 00 00        	<unknown>
     d3a: 00 4b        	<unknown>
     d3c: 04 08        	<unknown>
     d3e: 95 00        	<unknown>
     d40: 00 00        	<unknown>
     d42: 02 2a        	<unknown>
     d44: 00 00        	<unknown>
     d46: 00 4b        	<unknown>
     d48: 04 08        	<unknown>
     d4a: 95 00        	<unknown>
     d4c: 00 00        	<unknown>
     d4e: 02 9f        	<unknown>
     d50: 01 00        	<unknown>
     d52: 00 4b        	<unknown>
     d54: 04 08        	<unknown>
     d56: 95 00        	<unknown>
     d58: 00 00        	<unknown>
     d5a: 02 9a        	<unknown>
     d5c: 01 00        	<unknown>
     d5e: 00 4b        	<unknown>
     d60: 04 08        	<unknown>
     d62: 95 00        	<unknown>
     d64: 00 00        	<unknown>
     d66: 02 e6        	<unknown>
     d68: 01 00        	<unknown>
     d6a: 00 4b        	<unknown>
     d6c: 04 08        	<unknown>
     d6e: 95 00        	<unknown>
     d70: 00 00        	<unknown>
     d72: 02 e1        	<unknown>
     d74: 01 00        	<unknown>
     d76: 00 4b        	<unknown>
     d78: 04 08        	<unknown>
     d7a: 95 00        	<unknown>
     d7c: 00 00        	<unknown>
     d7e: 03 5f 5f 6d  	lhu	t5, 1749(t5)
     d82: 00 4b        	<unknown>
     d84: 04 08        	<unknown>
     d86: 95 00        	<unknown>
     d88: 00 00        	<unknown>
     d8a: 00 05        	<unknown>
     d8c: 84 06        	<unknown>
     d8e: 00 00        	<unknown>
     d90: 02 2f        	<unknown>
     d92: 00 00        	<unknown>
     d94: 00 50        	<unknown>
     d96: 04 04        	<unknown>
     d98: 95 00        	<unknown>
     d9a: 00 00        	<unknown>
     d9c: 02 2a        	<unknown>
     d9e: 00 00        	<unknown>
     da0: 00 50        	<unknown>
     da2: 04 04        	<unknown>
     da4: 95 00        	<unknown>
     da6: 00 00        	<unknown>
     da8: 02 9f        	<unknown>
     daa: 01 00        	<unknown>
     dac: 00 50        	<unknown>
     dae: 04 04        	<unknown>
     db0: 95 00        	<unknown>
     db2: 00 00        	<unknown>
     db4: 02 9a        	<unknown>
     db6: 01 00        	<unknown>
     db8: 00 50        	<unknown>
     dba: 04 04        	<unknown>
     dbc: 95 00        	<unknown>
     dbe: 00 00        	<unknown>
     dc0: 02 e6        	<unknown>
     dc2: 01 00        	<unknown>
     dc4: 00 50        	<unknown>
     dc6: 04 04        	<unknown>
     dc8: 95 00        	<unknown>
     dca: 00 00        	<unknown>
     dcc: 02 e1        	<unknown>
     dce: 01 00        	<unknown>
     dd0: 00 50        	<unknown>
     dd2: 04 04        	<unknown>
     dd4: 95 00        	<unknown>
     dd6: 00 00        	<unknown>
     dd8: 03 5f 5f 6d  	lhu	t5, 1749(t5)
     ddc: 00 50        	<unknown>
     dde: 04 04        	<unknown>
     de0: 95 00        	<unknown>
     de2: 00 00        	<unknown>
     de4: 00 05        	<unknown>
     de6: a2 06        	<unknown>
     de8: 00 00        	<unknown>
     dea: 02 b3        	<unknown>
     dec: 01 00        	<unknown>
     dee: 00 73        	<unknown>
     df0: 04 04        	<unknown>
     df2: 95 00        	<unknown>
     df4: 00 00        	<unknown>
     df6: 03 5f 5f 61  	lhu	t5, 1557(t5)
     dfa: 00 73        	<unknown>
     dfc: 04 04        	<unknown>
     dfe: 95 00        	<unknown>
     e00: 00 00        	<unknown>
     e02: 00 05        	<unknown>
     e04: b4 06        	<unknown>
     e06: 00 00        	<unknown>
     e08: 03 5f 5f 78  	lhu	t5, 1925(t5)
     e0c: 00 81        	<unknown>
     e0e: 04 05        	<unknown>
     e10: 95 00        	<unknown>
     e12: 00 00        	<unknown>
     e14: 00 10        	<unknown>
     e16: 03 6d 31 00  	<unknown>
     e1a: 91 04        	<unknown>
     e1c: 0f 95 00 00  	<unknown>
     e20: 00 03        	<unknown>
     e22: 6d 30        	<unknown>
     e24: 00 91        	<unknown>
     e26: 04 13        	<unknown>
     e28: 95 00        	<unknown>
     e2a: 00 00        	<unknown>
     e2c: 05 25        	<unknown>
     e2e: 07 00 00 02  	<unknown>
     e32: 2f 00 00 00  	<unknown>
     e36: 9c 04        	<unknown>
     e38: 08 95        	<unknown>
     e3a: 00 00        	<unknown>
     e3c: 00 02        	<unknown>
     e3e: 2a 00        	<unknown>
     e40: 00 00        	<unknown>
     e42: 9c 04        	<unknown>
     e44: 08 95        	<unknown>
     e46: 00 00        	<unknown>
     e48: 00 02        	<unknown>
     e4a: 9f 01 00 00  	<unknown>
     e4e: 9c 04        	<unknown>
     e50: 08 95        	<unknown>
     e52: 00 00        	<unknown>
     e54: 00 02        	<unknown>
     e56: 9a 01        	<unknown>
     e58: 00 00        	<unknown>
     e5a: 9c 04        	<unknown>
     e5c: 08 95        	<unknown>
     e5e: 00 00        	<unknown>
     e60: 00 02        	<unknown>
     e62: e6 01        	<unknown>
     e64: 00 00        	<unknown>
     e66: 9c 04        	<unknown>
     e68: 08 95        	<unknown>
     e6a: 00 00        	<unknown>
     e6c: 00 02        	<unknown>
     e6e: e1 01        	<unknown>
     e70: 00 00        	<unknown>
     e72: 9c 04        	<unknown>
     e74: 08 95        	<unknown>
     e76: 00 00        	<unknown>
     e78: 00 03        	<unknown>
     e7a: 5f 5f 6d 00  	<unknown>
     e7e: 9c 04        	<unknown>
     e80: 08 95        	<unknown>
     e82: 00 00        	<unknown>
     e84: 00 00        	<unknown>
     e86: 05 8b        	<unknown>
     e88: 07 00 00 02  	<unknown>
     e8c: 5a 01        	<unknown>
     e8e: 00 00        	<unknown>
     e90: 9d 04        	<unknown>
     e92: 08 95        	<unknown>
     e94: 00 00        	<unknown>
     e96: 00 02        	<unknown>
     e98: 5f 01 00 00  	<unknown>
     e9c: 9d 04        	<unknown>
     e9e: 08 95        	<unknown>
     ea0: 00 00        	<unknown>
     ea2: 00 02        	<unknown>
     ea4: 64 01        	<unknown>
     ea6: 00 00        	<unknown>
     ea8: 9d 04        	<unknown>
     eaa: 08 95        	<unknown>
     eac: 00 00        	<unknown>
     eae: 00 02        	<unknown>
     eb0: 69 01        	<unknown>
     eb2: 00 00        	<unknown>
     eb4: 9d 04        	<unknown>
     eb6: 08 95        	<unknown>
     eb8: 00 00        	<unknown>
     eba: 00 02        	<unknown>
     ebc: f0 01        	<unknown>
     ebe: 00 00        	<unknown>
     ec0: 9d 04        	<unknown>
     ec2: 08 95        	<unknown>
     ec4: 00 00        	<unknown>
     ec6: 00 02        	<unknown>
     ec8: 39 00        	<unknown>
     eca: 00 00        	<unknown>
     ecc: 9d 04        	<unknown>
     ece: 08 95        	<unknown>
     ed0: 00 00        	<unknown>
     ed2: 00 02        	<unknown>
     ed4: eb 01 00 00  	<unknown>
     ed8: 9d 04        	<unknown>
     eda: 08 95        	<unknown>
     edc: 00 00        	<unknown>
     ede: 00 02        	<unknown>
     ee0: 34 00        	<unknown>
     ee2: 00 00        	<unknown>
     ee4: 9d 04        	<unknown>
     ee6: 08 95        	<unknown>
     ee8: 00 00        	<unknown>
     eea: 00 00        	<unknown>
     eec: 05 9d        	<unknown>
     eee: 07 00 00 03  	<unknown>
     ef2: 5f 5f 78 00  	<unknown>
     ef6: a2 04        	<unknown>
     ef8: 05 95        	<unknown>
     efa: 00 00        	<unknown>
     efc: 00 00        	<unknown>
     efe: 10 03        	<unknown>
     f00: 5f 5f 78 00  	<unknown>
     f04: aa 04        	<unknown>
     f06: 05 95        	<unknown>
     f08: 00 00        	<unknown>
     f0a: 00 00        	<unknown>
     f0c: 00 00        	<unknown>
     f0e: 1f 04 ab 00  	<unknown>
     f12: 00 00        	<unknown>
     f14: 00 3b        	<unknown>
     f16: 05 00        	<unknown>
     f18: 00 05        	<unknown>
     f1a: 00 01        	<unknown>
     f1c: 04 50        	<unknown>
     f1e: 03 00 00 0d  	lb	zero, 208(zero)
     f22: a3 02 00 00  	sb	zero, 5(zero)
     f26: 1d a2        	<unknown>
     f28: 00 00        	<unknown>
     f2a: 00 21        	<unknown>
     f2c: 00 00        	<unknown>
     f2e: 00 1c        	<unknown>
     f30: 38 00        	<unknown>
     f32: 80 a4        	<unknown>
     f34: 0c 00        	<unknown>
     f36: 00 a0        	<unknown>
     f38: 0e 00        	<unknown>
     f3a: 00 05        	<unknown>
     f3c: 08 04        	<unknown>
     f3e: d2 01        	<unknown>
     f40: 00 00        	<unknown>
     f42: 0e 04        	<unknown>
     f44: 05 69        	<unknown>
     f46: 6e 74        	<unknown>
     f48: 00 05        	<unknown>
     f4a: 01 06        	<unknown>
     f4c: 4e 01        	<unknown>
     f4e: 00 00        	<unknown>
     f50: 05 08        	<unknown>
     f52: 05 3e        	<unknown>
     f54: 00 00        	<unknown>
     f56: 00 05        	<unknown>
     f58: 01 08        	<unknown>
     f5a: 4c 01        	<unknown>
     f5c: 00 00        	<unknown>
     f5e: 05 04        	<unknown>
     f60: 07 56 00 00  	<unknown>
     f64: 00 05        	<unknown>
     f66: 08 07        	<unknown>
     f68: 4c 00        	<unknown>
     f6a: 00 00        	<unknown>
     f6c: 05 02        	<unknown>
     f6e: 07 7f 01 00  	<unknown>
     f72: 00 0f        	<unknown>
     f74: 2c 02        	<unknown>
     f76: 00 00        	<unknown>
     f78: 02 48        	<unknown>
     f7a: 0f 26 00 00  	<unknown>
     f7e: 00 10        	<unknown>
     f80: 08 02        	<unknown>
     f82: 4f 03 a6 00  	fnmadd.s	ft6, fa2, fa0, ft0, rne
     f86: 00 00        	<unknown>
     f88: 0a 0d        	<unknown>
     f8a: 02 00        	<unknown>
     f8c: 00 57        	<unknown>
     f8e: 49 00        	<unknown>
     f90: 00 00        	<unknown>
     f92: 20 00        	<unknown>
     f94: 0a 13        	<unknown>
     f96: 02 00        	<unknown>
     f98: 00 58        	<unknown>
     f9a: 49 00        	<unknown>
     f9c: 00 00        	<unknown>
     f9e: 14 20        	<unknown>
     fa0: 11 65        	<unknown>
     fa2: 78 70        	<unknown>
     fa4: 00 02        	<unknown>
     fa6: 59 0e        	<unknown>
     fa8: 49 00        	<unknown>
     faa: 00 00        	<unknown>
     fac: 0b 34 0a 6b  	<unknown>
     fb0: 02 00        	<unknown>
     fb2: 00 5a        	<unknown>
     fb4: 49 00        	<unknown>
     fb6: 00 00        	<unknown>
     fb8: 01 3f        	<unknown>
     fba: 00 12        	<unknown>
     fbc: dc 03        	<unknown>
     fbe: 00 00        	<unknown>
     fc0: 08 02        	<unknown>
     fc2: 4c 07        	<unknown>
     fc4: cc 00        	<unknown>
     fc6: 00 00        	<unknown>
     fc8: 13 66 6c 74  	ori	a2, s8, 1862
     fcc: 00 02        	<unknown>
     fce: 4e 0a        	<unknown>
     fd0: 5e 00        	<unknown>
     fd2: 00 00        	<unknown>
     fd4: 14 15        	<unknown>
     fd6: 04 00        	<unknown>
     fd8: 00 02        	<unknown>
     fda: 5c 05        	<unknown>
     fdc: 6a 00        	<unknown>
     fde: 00 00        	<unknown>
     fe0: 00 15        	<unknown>
     fe2: 04 02        	<unknown>
     fe4: 00 00        	<unknown>
     fe6: 01 23        	<unknown>
     fe8: 01 5e        	<unknown>
     fea: 00 00        	<unknown>
     fec: 00 1c        	<unknown>
     fee: 38 00        	<unknown>
     ff0: 80 a4        	<unknown>
     ff2: 0c 00        	<unknown>
     ff4: 00 01        	<unknown>
     ff6: 9c 27        	<unknown>
     ff8: 05 00        	<unknown>
     ffa: 00 0b        	<unknown>
     ffc: 61 00        	<unknown>
     ffe: 12 5e        	<unknown>
    1000: 00 00        	<unknown>
    1002: 00 75        	<unknown>
    1004: 12 00        	<unknown>
    1006: 00 0b        	<unknown>
    1008: 62 00        	<unknown>
    100a: 1c 5e        	<unknown>
    100c: 00 00        	<unknown>
    100e: 00 96        	<unknown>
    1010: 12 00        	<unknown>
    1012: 00 02        	<unknown>
    1014: 7a 02        	<unknown>
    1016: 00 00        	<unknown>
    1018: 25 2d        	<unknown>
    101a: 00 00        	<unknown>
    101c: 00 b7        	<unknown>
    101e: 12 00        	<unknown>
    1020: 00 02        	<unknown>
    1022: 23 04 00 00  	sb	zero, 8(zero)
    1026: 25 2d        	<unknown>
    1028: 00 00        	<unknown>
    102a: 00 68        	<unknown>
    102c: 14 00        	<unknown>
    102e: 00 07        	<unknown>
    1030: 41 5f        	<unknown>
    1032: 63 00 26 03  	beq	a2, s2, 0x1052 <.debug_info+0x1052>
    1036: 27 05 00 00  	<unknown>
    103a: 01 41        	<unknown>
    103c: 5f 73 00 26  	<unknown>
    1040: 27 05 00 00  	<unknown>
    1044: 7f 14 00 00  	<unknown>
    1048: 01 41        	<unknown>
    104a: 5f 65 00 26  	<unknown>
    104e: 27 05 00 00  	<unknown>
    1052: 7d 15        	<unknown>
    1054: 00 00        	<unknown>
    1056: 02 9e        	<unknown>
    1058: 02 00        	<unknown>
    105a: 00 26        	<unknown>
    105c: 2e 05        	<unknown>
    105e: 00 00        	<unknown>
    1060: a7 16 00 00  	<unknown>
    1064: 02 70        	<unknown>
    1066: 02 00        	<unknown>
    1068: 00 26        	<unknown>
    106a: 2e 05        	<unknown>
    106c: 00 00        	<unknown>
    106e: 1e 18        	<unknown>
    1070: 00 00        	<unknown>
    1072: 07 42 5f 63  	<unknown>
    1076: 00 27        	<unknown>
    1078: 03 27 05 00  	lw	a4, 0(a0)
    107c: 00 01        	<unknown>
    107e: 42 5f        	<unknown>
    1080: 73 00 27 27  	<unknown>
    1084: 05 00        	<unknown>
    1086: 00 08        	<unknown>
    1088: 1a 00        	<unknown>
    108a: 00 01        	<unknown>
    108c: 42 5f        	<unknown>
    108e: 65 00        	<unknown>
    1090: 27 27 05 00  	fsw	ft0, 14(a0)
    1094: 00 a3        	<unknown>
    1096: 1a 00        	<unknown>
    1098: 00 02        	<unknown>
    109a: 60 03        	<unknown>
    109c: 00 00        	<unknown>
    109e: 27 2e 05 00  	fsw	ft0, 28(a0)
    10a2: 00 cd        	<unknown>
    10a4: 1b 00 00 02  	<unknown>
    10a8: 65 03        	<unknown>
    10aa: 00 00        	<unknown>
    10ac: 27 2e 05 00  	fsw	ft0, 28(a0)
    10b0: 00 39        	<unknown>
    10b2: 1d 00        	<unknown>
    10b4: 00 07        	<unknown>
    10b6: 52 5f        	<unknown>
    10b8: 63 00 28 03  	beq	a6, s2, 0x10d8 <.debug_info+0x10d8>
    10bc: 27 05 00 00  	<unknown>
    10c0: 01 52        	<unknown>
    10c2: 5f 73 00 28  	<unknown>
    10c6: 27 05 00 00  	<unknown>
    10ca: 00 1f        	<unknown>
    10cc: 00 00        	<unknown>
    10ce: 01 52        	<unknown>
    10d0: 5f 65 00 28  	<unknown>
    10d4: 27 05 00 00  	<unknown>
    10d8: 1f 20 00 00  	<unknown>
    10dc: 02 3c        	<unknown>
    10de: 02 00        	<unknown>
    10e0: 00 28        	<unknown>
    10e2: 2e 05        	<unknown>
    10e4: 00 00        	<unknown>
    10e6: 15 22        	<unknown>
    10e8: 00 00        	<unknown>
    10ea: 02 28        	<unknown>
    10ec: 04 00        	<unknown>
    10ee: 00 28        	<unknown>
    10f0: 2e 05        	<unknown>
    10f2: 00 00        	<unknown>
    10f4: 7d 24        	<unknown>
    10f6: 00 00        	<unknown>
    10f8: 07 72 00 29  	<unknown>
    10fc: 0a 5e        	<unknown>
    10fe: 00 00        	<unknown>
    1100: 00 03        	<unknown>
    1102: c9 01        	<unknown>
    1104: 00 00        	<unknown>
    1106: 00 02        	<unknown>
    1108: 00 00        	<unknown>
    110a: 08 41        	<unknown>
    110c: 02 00        	<unknown>
    110e: 00 2c        	<unknown>
    1110: a6 00        	<unknown>
    1112: 00 00        	<unknown>
    1114: 00 03        	<unknown>
    1116: ee 01        	<unknown>
    1118: 00 00        	<unknown>
    111a: 14 02        	<unknown>
    111c: 00 00        	<unknown>
    111e: 08 41        	<unknown>
    1120: 02 00        	<unknown>
    1122: 00 2d        	<unknown>
    1124: a6 00        	<unknown>
    1126: 00 00        	<unknown>
    1128: 00 03        	<unknown>
    112a: 1c 02        	<unknown>
    112c: 00 00        	<unknown>
    112e: e1 02        	<unknown>
    1130: 00 00        	<unknown>
    1132: 06 06        	<unknown>
    1134: 04 00        	<unknown>
    1136: 00 e8        	<unknown>
    1138: 39 00        	<unknown>
    113a: 80 06        	<unknown>
    113c: 0b 04 00 00  	<unknown>
    1140: 80 3a        	<unknown>
    1142: 00 80        	<unknown>
    1144: 06 10        	<unknown>
    1146: 04 00        	<unknown>
    1148: 00 b8        	<unknown>
    114a: 39 00        	<unknown>
    114c: 80 06        	<unknown>
    114e: 33 02 00 00  	add	tp, zero, zero
    1152: 18 42        	<unknown>
    1154: 00 80        	<unknown>
    1156: 02 c5        	<unknown>
    1158: 03 00 00 2e  	lb	zero, 736(zero)
    115c: 2d 00        	<unknown>
    115e: 00 00        	<unknown>
    1160: 26 27        	<unknown>
    1162: 00 00        	<unknown>
    1164: 16 60        	<unknown>
    1166: 02 00        	<unknown>
    1168: 00 07        	<unknown>
    116a: 5f 5f 78 00  	<unknown>
    116e: 2e 03        	<unknown>
    1170: 2e 05        	<unknown>
    1172: 00 00        	<unknown>
    1174: 00 04        	<unknown>
    1176: a4 39        	<unknown>
    1178: 00 80        	<unknown>
    117a: 10 00        	<unknown>
    117c: 00 00        	<unknown>
    117e: 7c 02        	<unknown>
    1180: 00 00        	<unknown>
    1182: 01 5f        	<unknown>
    1184: 5f 78 00 2e  	<unknown>
    1188: 2e 05        	<unknown>
    118a: 00 00        	<unknown>
    118c: c5 28        	<unknown>
    118e: 00 00        	<unknown>
    1190: 00 04        	<unknown>
    1192: c4 38        	<unknown>
    1194: 00 80        	<unknown>
    1196: 10 00        	<unknown>
    1198: 00 00        	<unknown>
    119a: 98 02        	<unknown>
    119c: 00 00        	<unknown>
    119e: 01 5f        	<unknown>
    11a0: 5f 78 00 2e  	<unknown>
    11a4: 2e 05        	<unknown>
    11a6: 00 00        	<unknown>
    11a8: e1 28        	<unknown>
    11aa: 00 00        	<unknown>
    11ac: 00 04        	<unknown>
    11ae: ec 3a        	<unknown>
    11b0: 00 80        	<unknown>
    11b2: 10 00        	<unknown>
    11b4: 00 00        	<unknown>
    11b6: b4 02        	<unknown>
    11b8: 00 00        	<unknown>
    11ba: 01 5f        	<unknown>
    11bc: 5f 78 00 2e  	<unknown>
    11c0: 2e 05        	<unknown>
    11c2: 00 00        	<unknown>
    11c4: 08 29        	<unknown>
    11c6: 00 00        	<unknown>
    11c8: 00 03        	<unknown>
    11ca: d1 02        	<unknown>
    11cc: 00 00        	<unknown>
    11ce: cc 02        	<unknown>
    11d0: 00 00        	<unknown>
    11d2: 01 5f        	<unknown>
    11d4: 5f 78 00 2e  	<unknown>
    11d8: 2e 05        	<unknown>
    11da: 00 00        	<unknown>
    11dc: 24 29        	<unknown>
    11de: 00 00        	<unknown>
    11e0: 00 09        	<unknown>
    11e2: e4 02        	<unknown>
    11e4: 00 00        	<unknown>
    11e6: 01 5f        	<unknown>
    11e8: 5f 78 00 2e  	<unknown>
    11ec: 2e 05        	<unknown>
    11ee: 00 00        	<unknown>
    11f0: 30 29        	<unknown>
    11f2: 00 00        	<unknown>
    11f4: 00 00        	<unknown>
    11f6: 03 f7 02 00  	<unknown>
    11fa: 00 24        	<unknown>
    11fc: 04 00        	<unknown>
    11fe: 00 06        	<unknown>
    1200: 75 02        	<unknown>
    1202: 00 00        	<unknown>
    1204: 7c 3d        	<unknown>
    1206: 00 80        	<unknown>
    1208: 06 ff        	<unknown>
    120a: 01 00        	<unknown>
    120c: 00 b0        	<unknown>
    120e: 3e 00        	<unknown>
    1210: 80 06        	<unknown>
    1212: 7f 02 00 00  	<unknown>
    1216: f0 3d        	<unknown>
    1218: 00 80        	<unknown>
    121a: 06 99        	<unknown>
    121c: 02 00        	<unknown>
    121e: 00 ec        	<unknown>
    1220: 40 00        	<unknown>
    1222: 80 06        	<unknown>
    1224: fd 03        	<unknown>
    1226: 00 00        	<unknown>
    1228: 18 42        	<unknown>
    122a: 00 80        	<unknown>
    122c: 02 c5        	<unknown>
    122e: 03 00 00 2e  	lb	zero, 736(zero)
    1232: 2d 00        	<unknown>
    1234: 00 00        	<unknown>
    1236: 7c 29        	<unknown>
    1238: 00 00        	<unknown>
    123a: 04 5c        	<unknown>
    123c: 3d 00        	<unknown>
    123e: 80 10        	<unknown>
    1240: 00 00        	<unknown>
    1242: 00 41        	<unknown>
    1244: 03 00 00 01  	lb	zero, 16(zero)
    1248: 5f 5f 78 00  	<unknown>
    124c: 2e 2e        	<unknown>
    124e: 05 00        	<unknown>
    1250: 00 25        	<unknown>
    1252: 2b 00 00 00  	vx_tex	zero, 0, zero, zero, zero
    1256: 04 d8        	<unknown>
    1258: 3d 00        	<unknown>
    125a: 80 14        	<unknown>
    125c: 00 00        	<unknown>
    125e: 00 5d        	<unknown>
    1260: 03 00 00 01  	lb	zero, 16(zero)
    1264: 5f 5f 78 00  	<unknown>
    1268: 2e 2e        	<unknown>
    126a: 05 00        	<unknown>
    126c: 00 41        	<unknown>
    126e: 2b 00 00 00  	vx_tex	zero, 0, zero, zero, zero
    1272: 04 8c        	<unknown>
    1274: 3e 00        	<unknown>
    1276: 80 14        	<unknown>
    1278: 00 00        	<unknown>
    127a: 00 79        	<unknown>
    127c: 03 00 00 01  	lb	zero, 16(zero)
    1280: 5f 5f 78 00  	<unknown>
    1284: 2e 2e        	<unknown>
    1286: 05 00        	<unknown>
    1288: 00 4d        	<unknown>
    128a: 2b 00 00 00  	vx_tex	zero, 0, zero, zero, zero
    128e: 04 28        	<unknown>
    1290: 3f 00 80 14  	<unknown>
    1294: 00 00        	<unknown>
    1296: 00 95        	<unknown>
    1298: 03 00 00 01  	lb	zero, 16(zero)
    129c: 5f 5f 78 00  	<unknown>
    12a0: 2e 2e        	<unknown>
    12a2: 05 00        	<unknown>
    12a4: 00 59        	<unknown>
    12a6: 2b 00 00 00  	vx_tex	zero, 0, zero, zero, zero
    12aa: 03 07 04 00  	lb	a4, 0(s0)
    12ae: 00 ad        	<unknown>
    12b0: 03 00 00 01  	lb	zero, 16(zero)
    12b4: 5f 5f 78 00  	<unknown>
    12b8: 2e 2e        	<unknown>
    12ba: 05 00        	<unknown>
    12bc: 00 65        	<unknown>
    12be: 2b 00 00 00  	vx_tex	zero, 0, zero, zero, zero
    12c2: 04 d4        	<unknown>
    12c4: 3f 00 80 10  	<unknown>
    12c8: 00 00        	<unknown>
    12ca: 00 c9        	<unknown>
    12cc: 03 00 00 01  	lb	zero, 16(zero)
    12d0: 5f 5f 78 00  	<unknown>
    12d4: 2e 2e        	<unknown>
    12d6: 05 00        	<unknown>
    12d8: 00 7c        	<unknown>
    12da: 2b 00 00 00  	vx_tex	zero, 0, zero, zero, zero
    12de: 03 1a 04 00  	lh	s4, 0(s0)
    12e2: 00 e1        	<unknown>
    12e4: 03 00 00 01  	lb	zero, 16(zero)
    12e8: 5f 5f 78 00  	<unknown>
    12ec: 2e 2e        	<unknown>
    12ee: 05 00        	<unknown>
    12f0: 00 98        	<unknown>
    12f2: 2b 00 00 00  	vx_tex	zero, 0, zero, zero, zero
    12f6: 04 d8        	<unknown>
    12f8: 40 00        	<unknown>
    12fa: 80 10        	<unknown>
    12fc: 00 00        	<unknown>
    12fe: 00 fd        	<unknown>
    1300: 03 00 00 01  	lb	zero, 16(zero)
    1304: 5f 5f 78 00  	<unknown>
    1308: 2e 2e        	<unknown>
    130a: 05 00        	<unknown>
    130c: 00 ba        	<unknown>
    130e: 2b 00 00 00  	vx_tex	zero, 0, zero, zero, zero
    1312: 09 d9        	<unknown>
    1314: 03 00 00 02  	lb	zero, 32(zero)
    1318: 6a 03        	<unknown>
    131a: 00 00        	<unknown>
    131c: 2e 2d        	<unknown>
    131e: 00 00        	<unknown>
    1320: 00 d6        	<unknown>
    1322: 2b 00 00 0c  	vx_tex	zero, 2, zero, zero, ra
    1326: f8 40        	<unknown>
    1328: 00 80        	<unknown>
    132a: 35 05        	<unknown>
    132c: 00 00        	<unknown>
    132e: 0c b4        	<unknown>
    1330: 41 00        	<unknown>
    1332: 80 35        	<unknown>
    1334: 05 00        	<unknown>
    1336: 00 00        	<unknown>
    1338: 00 03        	<unknown>
    133a: 2d 04        	<unknown>
    133c: 00 00        	<unknown>
    133e: 12 05        	<unknown>
    1340: 00 00        	<unknown>
    1342: 02 80        	<unknown>
    1344: 03 00 00 2f  	lb	zero, 752(zero)
    1348: 2d 00        	<unknown>
    134a: 00 00        	<unknown>
    134c: 33 2c 00 00  	sltz	s8, zero
    1350: 03 c0 04 00  	lbu	zero, 0(s1)
    1354: 00 cc        	<unknown>
    1356: 04 00        	<unknown>
    1358: 00 08        	<unknown>
    135a: e8 03        	<unknown>
    135c: 00 00        	<unknown>
    135e: 2f 27 05 00  	amoadd.w	a4, zero, (a0)
    1362: 00 02        	<unknown>
    1364: 56 02        	<unknown>
    1366: 00 00        	<unknown>
    1368: 2f 27 05 00  	amoadd.w	a4, zero, (a0)
    136c: 00 88        	<unknown>
    136e: 2c 00        	<unknown>
    1370: 00 02        	<unknown>
    1372: 84 02        	<unknown>
    1374: 00 00        	<unknown>
    1376: 2f 27 05 00  	amoadd.w	a4, zero, (a0)
    137a: 00 b5        	<unknown>
    137c: 2c 00        	<unknown>
    137e: 00 02        	<unknown>
    1380: 99 03        	<unknown>
    1382: 00 00        	<unknown>
    1384: 2f 2e 05 00  	amoadd.w	t3, zero, (a0)
    1388: 00 e6        	<unknown>
    138a: 2c 00        	<unknown>
    138c: 00 02        	<unknown>
    138e: af 03 00 00  	<unknown>
    1392: 2f 2e 05 00  	amoadd.w	t3, zero, (a0)
    1396: 00 ae        	<unknown>
    1398: 2d 00        	<unknown>
    139a: 00 04        	<unknown>
    139c: 84 41        	<unknown>
    139e: 00 80        	<unknown>
    13a0: 04 00        	<unknown>
    13a2: 00 00        	<unknown>
    13a4: 9f 04 00 00  	<unknown>
    13a8: 07 5f 5f 78  	<unknown>
    13ac: 00 2f        	<unknown>
    13ae: 03 2e 05 00  	lw	t3, 0(a0)
    13b2: 00 00        	<unknown>
    13b4: 03 1b 05 00  	lh	s6, 0(a0)
    13b8: 00 b7        	<unknown>
    13ba: 04 00        	<unknown>
    13bc: 00 01        	<unknown>
    13be: 5f 5f 78 00  	<unknown>
    13c2: 2f 2e 05 00  	amoadd.w	t3, zero, (a0)
    13c6: 00 e8        	<unknown>
    13c8: 2e 00        	<unknown>
    13ca: 00 00        	<unknown>
    13cc: 09 2e        	<unknown>
    13ce: 05 00        	<unknown>
    13d0: 00 01        	<unknown>
    13d2: 5f 5f 78 00  	<unknown>
    13d6: 2f 2e 05 00  	amoadd.w	t3, zero, (a0)
    13da: 00 f6        	<unknown>
    13dc: 2e 00        	<unknown>
    13de: 00 00        	<unknown>
    13e0: 00 04        	<unknown>
    13e2: c4 3c        	<unknown>
    13e4: 00 80        	<unknown>
    13e6: 08 00        	<unknown>
    13e8: 00 00        	<unknown>
    13ea: e8 04        	<unknown>
    13ec: 00 00        	<unknown>
    13ee: 17 5f 5f 78  	auipc	t5, 493045
    13f2: 00 01        	<unknown>
    13f4: 2f 03 2e 05  	<unknown>
    13f8: 00 00        	<unknown>
    13fa: 01 5a        	<unknown>
    13fc: 00 03        	<unknown>
    13fe: ad 04        	<unknown>
    1400: 00 00        	<unknown>
    1402: fd 04        	<unknown>
    1404: 00 00        	<unknown>
    1406: 07 5f 5f 78  	<unknown>
    140a: 00 2f        	<unknown>
    140c: 03 2e 05 00  	lw	t3, 0(a0)
    1410: 00 00        	<unknown>
    1412: 09 9a        	<unknown>
    1414: 04 00        	<unknown>
    1416: 00 01        	<unknown>
    1418: 5f 5f 78 00  	<unknown>
    141c: 2f 2e 05 00  	amoadd.w	t3, zero, (a0)
    1420: 00 15        	<unknown>
    1422: 2f 00 00 00  	<unknown>
    1426: 00 18        	<unknown>
    1428: 40 43        	<unknown>
    142a: 00 80        	<unknown>
    142c: 28 00        	<unknown>
    142e: 00 00        	<unknown>
    1430: 08 19        	<unknown>
    1432: 02 00        	<unknown>
    1434: 00 2f        	<unknown>
    1436: a6 00        	<unknown>
    1438: 00 00        	<unknown>
    143a: 00 00        	<unknown>
    143c: 05 04        	<unknown>
    143e: 05 43        	<unknown>
    1440: 00 00        	<unknown>
    1442: 00 05        	<unknown>
    1444: 04 07        	<unknown>
    1446: 51 00        	<unknown>
    1448: 00 00        	<unknown>
    144a: 19 1a        	<unknown>
    144c: 04 00        	<unknown>
    144e: 00 1a        	<unknown>
    1450: 04 00        	<unknown>
    1452: 00 00        	<unknown>
    1454: ca 06        	<unknown>
    1456: 00 00        	<unknown>
    1458: 05 00        	<unknown>
    145a: 01 04        	<unknown>
    145c: ca 04        	<unknown>
    145e: 00 00        	<unknown>
    1460: 0e a3        	<unknown>
    1462: 02 00        	<unknown>
    1464: 00 1d        	<unknown>
    1466: f2 00        	<unknown>
    1468: 00 00        	<unknown>
    146a: 21 00        	<unknown>
    146c: 00 00        	<unknown>
    146e: c0 44        	<unknown>
    1470: 00 80        	<unknown>
    1472: 98 08        	<unknown>
    1474: 00 00        	<unknown>
    1476: 4f 25 00 00  	fnmadd.s	fa0, ft0, ft0, ft0, rdn
    147a: 06 08        	<unknown>
    147c: 04 d2        	<unknown>
    147e: 01 00        	<unknown>
    1480: 00 0f        	<unknown>
    1482: 04 05        	<unknown>
    1484: 69 6e        	<unknown>
    1486: 74 00        	<unknown>
    1488: 06 01        	<unknown>
    148a: 06 4e        	<unknown>
    148c: 01 00        	<unknown>
    148e: 00 06        	<unknown>
    1490: 08 05        	<unknown>
    1492: 3e 00        	<unknown>
    1494: 00 00        	<unknown>
    1496: 06 01        	<unknown>
    1498: 08 4c        	<unknown>
    149a: 01 00        	<unknown>
    149c: 00 06        	<unknown>
    149e: 04 07        	<unknown>
    14a0: 56 00        	<unknown>
    14a2: 00 00        	<unknown>
    14a4: 06 08        	<unknown>
    14a6: 07 4c 00 00  	<unknown>
    14aa: 00 10        	<unknown>
    14ac: 7f 04 00 00  	<unknown>
    14b0: 02 4e        	<unknown>
    14b2: 01 16        	<unknown>
    14b4: 64 00        	<unknown>
    14b6: 00 00        	<unknown>
    14b8: 06 02        	<unknown>
    14ba: 07 7f 01 00  	<unknown>
    14be: 00 11        	<unknown>
    14c0: 2c 02        	<unknown>
    14c2: 00 00        	<unknown>
    14c4: 03 48 0f 26  	lbu	a6, 608(t5)
    14c8: 00 00        	<unknown>
    14ca: 00 12        	<unknown>
    14cc: 08 03        	<unknown>
    14ce: 4f 03 b3 00  	fnmadd.s	ft6, ft6, fa1, ft0, rne
    14d2: 00 00        	<unknown>
    14d4: 0a 0d        	<unknown>
    14d6: 02 00        	<unknown>
    14d8: 00 57        	<unknown>
    14da: 49 00        	<unknown>
    14dc: 00 00        	<unknown>
    14de: 20 00        	<unknown>
    14e0: 0a 13        	<unknown>
    14e2: 02 00        	<unknown>
    14e4: 00 58        	<unknown>
    14e6: 49 00        	<unknown>
    14e8: 00 00        	<unknown>
    14ea: 14 20        	<unknown>
    14ec: 13 65 78 70  	ori	a0, a6, 1799
    14f0: 00 03        	<unknown>
    14f2: 59 0e        	<unknown>
    14f4: 49 00        	<unknown>
    14f6: 00 00        	<unknown>
    14f8: 0b 34 0a 6b  	<unknown>
    14fc: 02 00        	<unknown>
    14fe: 00 5a        	<unknown>
    1500: 49 00        	<unknown>
    1502: 00 00        	<unknown>
    1504: 01 3f        	<unknown>
    1506: 00 14        	<unknown>
    1508: dc 03        	<unknown>
    150a: 00 00        	<unknown>
    150c: 08 03        	<unknown>
    150e: 4c 07        	<unknown>
    1510: d9 00        	<unknown>
    1512: 00 00        	<unknown>
    1514: 15 66        	<unknown>
    1516: 6c 74        	<unknown>
    1518: 00 03        	<unknown>
    151a: 4e 0a        	<unknown>
    151c: 6b 00 00 00  	<unknown>
    1520: 16 15        	<unknown>
    1522: 04 00        	<unknown>
    1524: 00 03        	<unknown>
    1526: 5c 05        	<unknown>
    1528: 77 00 00 00  	<unknown>
    152c: 00 17        	<unknown>
    152e: 76 04        	<unknown>
    1530: 00 00        	<unknown>
    1532: 01 23        	<unknown>
    1534: 01 6b        	<unknown>
    1536: 00 00        	<unknown>
    1538: 00 c0        	<unknown>
    153a: 44 00        	<unknown>
    153c: 80 98        	<unknown>
    153e: 08 00        	<unknown>
    1540: 00 01        	<unknown>
    1542: 9c b6        	<unknown>
    1544: 06 00        	<unknown>
    1546: 00 0c        	<unknown>
    1548: 61 00        	<unknown>
    154a: 12 6b        	<unknown>
    154c: 00 00        	<unknown>
    154e: 00 2d        	<unknown>
    1550: 2f 00 00 0c  	<unknown>
    1554: 62 00        	<unknown>
    1556: 1c 6b        	<unknown>
    1558: 00 00        	<unknown>
    155a: 00 ce        	<unknown>
    155c: 2f 00 00 01  	<unknown>
    1560: 7a 02        	<unknown>
    1562: 00 00        	<unknown>
    1564: 25 2d        	<unknown>
    1566: 00 00        	<unknown>
    1568: 00 6f        	<unknown>
    156a: 30 00        	<unknown>
    156c: 00 01        	<unknown>
    156e: 23 04 00 00  	sb	zero, 8(zero)
    1572: 25 2d        	<unknown>
    1574: 00 00        	<unknown>
    1576: 00 fa        	<unknown>
    1578: 30 00        	<unknown>
    157a: 00 02        	<unknown>
    157c: 41 5f        	<unknown>
    157e: 63 00 26 b6  	beq	a2, sp, 0x8de <.debug_info+0x8de>
    1582: 06 00        	<unknown>
    1584: 00 11        	<unknown>
    1586: 31 00        	<unknown>
    1588: 00 02        	<unknown>
    158a: 41 5f        	<unknown>
    158c: 73 00 26 b6  	<unknown>
    1590: 06 00        	<unknown>
    1592: 00 78        	<unknown>
    1594: 31 00        	<unknown>
    1596: 00 02        	<unknown>
    1598: 41 5f        	<unknown>
    159a: 65 00        	<unknown>
    159c: 26 b6        	<unknown>
    159e: 06 00        	<unknown>
    15a0: 00 99        	<unknown>
    15a2: 31 00        	<unknown>
    15a4: 00 01        	<unknown>
    15a6: 9e 02        	<unknown>
    15a8: 00 00        	<unknown>
    15aa: 26 bd        	<unknown>
    15ac: 06 00        	<unknown>
    15ae: 00 26        	<unknown>
    15b0: 32 00        	<unknown>
    15b2: 00 01        	<unknown>
    15b4: 70 02        	<unknown>
    15b6: 00 00        	<unknown>
    15b8: 26 bd        	<unknown>
    15ba: 06 00        	<unknown>
    15bc: 00 c2        	<unknown>
    15be: 32 00        	<unknown>
    15c0: 00 02        	<unknown>
    15c2: 42 5f        	<unknown>
    15c4: 63 00 27 b6  	beq	a4, sp, 0x924 <.debug_info+0x924>
    15c8: 06 00        	<unknown>
    15ca: 00 78        	<unknown>
    15cc: 33 00 00 02  	mul	zero, zero, zero
    15d0: 42 5f        	<unknown>
    15d2: 73 00 27 b6  	<unknown>
    15d6: 06 00        	<unknown>
    15d8: 00 d4        	<unknown>
    15da: 33 00 00 02  	mul	zero, zero, zero
    15de: 42 5f        	<unknown>
    15e0: 65 00        	<unknown>
    15e2: 27 b6 06 00  	<unknown>
    15e6: 00 05        	<unknown>
    15e8: 34 00        	<unknown>
    15ea: 00 01        	<unknown>
    15ec: 60 03        	<unknown>
    15ee: 00 00        	<unknown>
    15f0: 27 bd 06 00  	<unknown>
    15f4: 00 71        	<unknown>
    15f6: 34 00        	<unknown>
    15f8: 00 01        	<unknown>
    15fa: 65 03        	<unknown>
    15fc: 00 00        	<unknown>
    15fe: 27 bd 06 00  	<unknown>
    1602: 00 44        	<unknown>
    1604: 35 00        	<unknown>
    1606: 00 02        	<unknown>
    1608: 52 5f        	<unknown>
    160a: 63 00 28 b6  	beq	a6, sp, 0x96a <.debug_info+0x96a>
    160e: 06 00        	<unknown>
    1610: 00 f0        	<unknown>
    1612: 35 00        	<unknown>
    1614: 00 02        	<unknown>
    1616: 52 5f        	<unknown>
    1618: 73 00 28 b6  	<unknown>
    161c: 06 00        	<unknown>
    161e: 00 1f        	<unknown>
    1620: 36 00        	<unknown>
    1622: 00 02        	<unknown>
    1624: 52 5f        	<unknown>
    1626: 65 00        	<unknown>
    1628: 28 b6        	<unknown>
    162a: 06 00        	<unknown>
    162c: 00 b9        	<unknown>
    162e: 36 00        	<unknown>
    1630: 00 01        	<unknown>
    1632: 3c 02        	<unknown>
    1634: 00 00        	<unknown>
    1636: 28 bd        	<unknown>
    1638: 06 00        	<unknown>
    163a: 00 34        	<unknown>
    163c: 37 00 00 01  	lui	zero, 4096
    1640: 28 04        	<unknown>
    1642: 00 00        	<unknown>
    1644: 28 bd        	<unknown>
    1646: 06 00        	<unknown>
    1648: 00 18        	<unknown>
    164a: 38 00        	<unknown>
    164c: 00 04        	<unknown>
    164e: 72 00        	<unknown>
    1650: 29 0a        	<unknown>
    1652: 6b 00 00 00  	<unknown>
    1656: 03 4d 05 00  	lbu	s10, 0(a0)
    165a: 00 16        	<unknown>
    165c: 02 00        	<unknown>
    165e: 00 07        	<unknown>
    1660: 41 02        	<unknown>
    1662: 00 00        	<unknown>
    1664: 2c b3        	<unknown>
    1666: 00 00        	<unknown>
    1668: 00 00        	<unknown>
    166a: 03 7b 05 00  	<unknown>
    166e: 00 40        	<unknown>
    1670: 02 00        	<unknown>
    1672: 00 01        	<unknown>
    1674: a0 04        	<unknown>
    1676: 00 00        	<unknown>
    1678: 2c b6        	<unknown>
    167a: 06 00        	<unknown>
    167c: 00 fa        	<unknown>
    167e: 38 00        	<unknown>
    1680: 00 08        	<unknown>
    1682: 5c 45        	<unknown>
    1684: 00 80        	<unknown>
    1686: c4 06        	<unknown>
    1688: 00 00        	<unknown>
    168a: 08 90        	<unknown>
    168c: 45 00        	<unknown>
    168e: 80 c4        	<unknown>
    1690: 06 00        	<unknown>
    1692: 00 00        	<unknown>
    1694: 03 8e 05 00  	lb	t3, 0(a1)
    1698: 00 54        	<unknown>
    169a: 02 00        	<unknown>
    169c: 00 07        	<unknown>
    169e: 41 02        	<unknown>
    16a0: 00 00        	<unknown>
    16a2: 2d b3        	<unknown>
    16a4: 00 00        	<unknown>
    16a6: 00 00        	<unknown>
    16a8: 03 bc 05 00  	<unknown>
    16ac: 00 7e        	<unknown>
    16ae: 02 00        	<unknown>
    16b0: 00 01        	<unknown>
    16b2: a0 04        	<unknown>
    16b4: 00 00        	<unknown>
    16b6: 2d b6        	<unknown>
    16b8: 06 00        	<unknown>
    16ba: 00 27        	<unknown>
    16bc: 39 00        	<unknown>
    16be: 00 08        	<unknown>
    16c0: 84 46        	<unknown>
    16c2: 00 80        	<unknown>
    16c4: c4 06        	<unknown>
    16c6: 00 00        	<unknown>
    16c8: 08 c0        	<unknown>
    16ca: 46 00        	<unknown>
    16cc: 80 c4        	<unknown>
    16ce: 06 00        	<unknown>
    16d0: 00 00        	<unknown>
    16d2: 03 cf 05 00  	lbu	t5, 0(a1)
    16d6: 00 3f        	<unknown>
    16d8: 05 00        	<unknown>
    16da: 00 01        	<unknown>
    16dc: 1f 05 00 00  	<unknown>
    16e0: 2e bd        	<unknown>
    16e2: 06 00        	<unknown>
    16e4: 00 54        	<unknown>
    16e6: 39 00        	<unknown>
    16e8: 00 01        	<unknown>
    16ea: 06 05        	<unknown>
    16ec: 00 00        	<unknown>
    16ee: 2e bd        	<unknown>
    16f0: 06 00        	<unknown>
    16f2: 00 7a        	<unknown>
    16f4: 39 00        	<unknown>
    16f6: 00 01        	<unknown>
    16f8: ed 04        	<unknown>
    16fa: 00 00        	<unknown>
    16fc: 2e bd        	<unknown>
    16fe: 06 00        	<unknown>
    1700: 00 a1        	<unknown>
    1702: 39 00        	<unknown>
    1704: 00 01        	<unknown>
    1706: d4 04        	<unknown>
    1708: 00 00        	<unknown>
    170a: 2e bd        	<unknown>
    170c: 06 00        	<unknown>
    170e: 00 b9        	<unknown>
    1710: 39 00        	<unknown>
    1712: 00 01        	<unknown>
    1714: bb 04 00 00  	<unknown>
    1718: 2e bd        	<unknown>
    171a: 06 00        	<unknown>
    171c: 00 fc        	<unknown>
    171e: 39 00        	<unknown>
    1720: 00 01        	<unknown>
    1722: 87 04 00 00  	<unknown>
    1726: 2e bd        	<unknown>
    1728: 06 00        	<unknown>
    172a: 00 61        	<unknown>
    172c: 3a 00        	<unknown>
    172e: 00 01        	<unknown>
    1730: 5d 04        	<unknown>
    1732: 00 00        	<unknown>
    1734: 2e bd        	<unknown>
    1736: 06 00        	<unknown>
    1738: 00 78        	<unknown>
    173a: 3a 00        	<unknown>
    173c: 00 03        	<unknown>
    173e: e2 05        	<unknown>
    1740: 00 00        	<unknown>
    1742: 55 03        	<unknown>
    1744: 00 00        	<unknown>
    1746: 01 2f        	<unknown>
    1748: 00 00        	<unknown>
    174a: 00 2e        	<unknown>
    174c: bd 06        	<unknown>
    174e: 00 00        	<unknown>
    1750: 8f 3a 00 00  	<unknown>
    1754: 01 2a        	<unknown>
    1756: 00 00        	<unknown>
    1758: 00 2e        	<unknown>
    175a: bd 06        	<unknown>
    175c: 00 00        	<unknown>
    175e: 9b 3a 00 00  	<unknown>
    1762: 01 9f        	<unknown>
    1764: 01 00        	<unknown>
    1766: 00 2e        	<unknown>
    1768: bd 06        	<unknown>
    176a: 00 00        	<unknown>
    176c: b8 3a        	<unknown>
    176e: 00 00        	<unknown>
    1770: 01 9a        	<unknown>
    1772: 01 00        	<unknown>
    1774: 00 2e        	<unknown>
    1776: bd 06        	<unknown>
    1778: 00 00        	<unknown>
    177a: cf 3a 00 00  	fnmadd.s	fs5, ft0, ft0, ft0, rup
    177e: 01 e6        	<unknown>
    1780: 01 00        	<unknown>
    1782: 00 2e        	<unknown>
    1784: bd 06        	<unknown>
    1786: 00 00        	<unknown>
    1788: e6 3a        	<unknown>
    178a: 00 00        	<unknown>
    178c: 01 e1        	<unknown>
    178e: 01 00        	<unknown>
    1790: 00 2e        	<unknown>
    1792: bd 06        	<unknown>
    1794: 00 00        	<unknown>
    1796: 2a 3b        	<unknown>
    1798: 00 00        	<unknown>
    179a: 02 5f        	<unknown>
    179c: 5f 6d 00 2e  	<unknown>
    17a0: bd 06        	<unknown>
    17a2: 00 00        	<unknown>
    17a4: 5c 3b        	<unknown>
    17a6: 00 00        	<unknown>
    17a8: 00 05        	<unknown>
    17aa: ec 47        	<unknown>
    17ac: 00 80        	<unknown>
    17ae: 58 00        	<unknown>
    17b0: 00 00        	<unknown>
    17b2: d3 03 00 00  	fadd.s	ft7, ft0, ft0, rne
    17b6: 01 5a        	<unknown>
    17b8: 01 00        	<unknown>
    17ba: 00 2e        	<unknown>
    17bc: bd 06        	<unknown>
    17be: 00 00        	<unknown>
    17c0: 93 3b 00 00  	sltiu	s7, zero, 0
    17c4: 01 5f        	<unknown>
    17c6: 01 00        	<unknown>
    17c8: 00 2e        	<unknown>
    17ca: bd 06        	<unknown>
    17cc: 00 00        	<unknown>
    17ce: 00 3c        	<unknown>
    17d0: 00 00        	<unknown>
    17d2: 01 64        	<unknown>
    17d4: 01 00        	<unknown>
    17d6: 00 2e        	<unknown>
    17d8: bd 06        	<unknown>
    17da: 00 00        	<unknown>
    17dc: 2b 3d 00 00  	<unknown>
    17e0: 01 69        	<unknown>
    17e2: 01 00        	<unknown>
    17e4: 00 2e        	<unknown>
    17e6: bd 06        	<unknown>
    17e8: 00 00        	<unknown>
    17ea: 5b 3d 00 00  	<unknown>
    17ee: 01 f0        	<unknown>
    17f0: 01 00        	<unknown>
    17f2: 00 2e        	<unknown>
    17f4: 57 00 00 00  	<unknown>
    17f8: 67 3d 00 00  	<unknown>
    17fc: 01 39        	<unknown>
    17fe: 00 00        	<unknown>
    1800: 00 2e        	<unknown>
    1802: 57 00 00 00  	<unknown>
    1806: 80 3d        	<unknown>
    1808: 00 00        	<unknown>
    180a: 01 eb        	<unknown>
    180c: 01 00        	<unknown>
    180e: 00 2e        	<unknown>
    1810: 57 00 00 00  	<unknown>
    1814: 8c 3d        	<unknown>
    1816: 00 00        	<unknown>
    1818: 01 34        	<unknown>
    181a: 00 00        	<unknown>
    181c: 00 2e        	<unknown>
    181e: 57 00 00 00  	<unknown>
    1822: d4 3d        	<unknown>
    1824: 00 00        	<unknown>
    1826: 00 03        	<unknown>
    1828: fe 05        	<unknown>
    182a: 00 00        	<unknown>
    182c: eb 03 00 00  	<unknown>
    1830: 02 5f        	<unknown>
    1832: 5f 78 00 2e  	<unknown>
    1836: bd 06        	<unknown>
    1838: 00 00        	<unknown>
    183a: ef 3d 00 00  	jal	s11, 0x483a <.debug_info+0x483a>
    183e: 00 05        	<unknown>
    1840: 8c 48        	<unknown>
    1842: 00 80        	<unknown>
    1844: 10 00        	<unknown>
    1846: 00 00        	<unknown>
    1848: 04 04        	<unknown>
    184a: 00 00        	<unknown>
    184c: 04 5f        	<unknown>
    184e: 5f 78 00 2e  	<unknown>
    1852: 03 bd 06 00  	<unknown>
    1856: 00 00        	<unknown>
    1858: 05 9c        	<unknown>
    185a: 48 00        	<unknown>
    185c: 80 10        	<unknown>
    185e: 00 00        	<unknown>
    1860: 00 20        	<unknown>
    1862: 04 00        	<unknown>
    1864: 00 02        	<unknown>
    1866: 5f 5f 78 00  	<unknown>
    186a: 2e bd        	<unknown>
    186c: 06 00        	<unknown>
    186e: 00 06        	<unknown>
    1870: 3e 00        	<unknown>
    1872: 00 00        	<unknown>
    1874: 03 11 06 00  	lh	sp, 0(a2)
    1878: 00 8c        	<unknown>
    187a: 04 00        	<unknown>
    187c: 00 01        	<unknown>
    187e: 2f 00 00 00  	<unknown>
    1882: 2e bd        	<unknown>
    1884: 06 00        	<unknown>
    1886: 00 12        	<unknown>
    1888: 3e 00        	<unknown>
    188a: 00 01        	<unknown>
    188c: 2a 00        	<unknown>
    188e: 00 00        	<unknown>
    1890: 2e bd        	<unknown>
    1892: 06 00        	<unknown>
    1894: 00 1e        	<unknown>
    1896: 3e 00        	<unknown>
    1898: 00 01        	<unknown>
    189a: 9f 01 00 00  	<unknown>
    189e: 2e bd        	<unknown>
    18a0: 06 00        	<unknown>
    18a2: 00 3b        	<unknown>
    18a4: 3e 00        	<unknown>
    18a6: 00 01        	<unknown>
    18a8: 9a 01        	<unknown>
    18aa: 00 00        	<unknown>
    18ac: 2e bd        	<unknown>
    18ae: 06 00        	<unknown>
    18b0: 00 52        	<unknown>
    18b2: 3e 00        	<unknown>
    18b4: 00 01        	<unknown>
    18b6: e6 01        	<unknown>
    18b8: 00 00        	<unknown>
    18ba: 2e bd        	<unknown>
    18bc: 06 00        	<unknown>
    18be: 00 69        	<unknown>
    18c0: 3e 00        	<unknown>
    18c2: 00 01        	<unknown>
    18c4: e1 01        	<unknown>
    18c6: 00 00        	<unknown>
    18c8: 2e bd        	<unknown>
    18ca: 06 00        	<unknown>
    18cc: 00 ad        	<unknown>
    18ce: 3e 00        	<unknown>
    18d0: 00 02        	<unknown>
    18d2: 5f 5f 6d 00  	<unknown>
    18d6: 2e bd        	<unknown>
    18d8: 06 00        	<unknown>
    18da: 00 ea        	<unknown>
    18dc: 3e 00        	<unknown>
    18de: 00 00        	<unknown>
    18e0: 05 40        	<unknown>
    18e2: 49 00        	<unknown>
    18e4: 80 4c        	<unknown>
    18e6: 00 00        	<unknown>
    18e8: 00 0a        	<unknown>
    18ea: 05 00        	<unknown>
    18ec: 00 01        	<unknown>
    18ee: 5a 01        	<unknown>
    18f0: 00 00        	<unknown>
    18f2: 2e bd        	<unknown>
    18f4: 06 00        	<unknown>
    18f6: 00 25        	<unknown>
    18f8: 3f 00 00 01  	<unknown>
    18fc: 5f 01 00 00  	<unknown>
    1900: 2e bd        	<unknown>
    1902: 06 00        	<unknown>
    1904: 00 78        	<unknown>
    1906: 3f 00 00 01  	<unknown>
    190a: 64 01        	<unknown>
    190c: 00 00        	<unknown>
    190e: 2e bd        	<unknown>
    1910: 06 00        	<unknown>
    1912: 00 69        	<unknown>
    1914: 40 00        	<unknown>
    1916: 00 01        	<unknown>
    1918: 69 01        	<unknown>
    191a: 00 00        	<unknown>
    191c: 2e bd        	<unknown>
    191e: 06 00        	<unknown>
    1920: 00 f6        	<unknown>
    1922: 40 00        	<unknown>
    1924: 00 01        	<unknown>
    1926: f0 01        	<unknown>
    1928: 00 00        	<unknown>
    192a: 2e 57        	<unknown>
    192c: 00 00        	<unknown>
    192e: 00 02        	<unknown>
    1930: 41 00        	<unknown>
    1932: 00 01        	<unknown>
    1934: 39 00        	<unknown>
    1936: 00 00        	<unknown>
    1938: 2e 57        	<unknown>
    193a: 00 00        	<unknown>
    193c: 00 1b        	<unknown>
    193e: 41 00        	<unknown>
    1940: 00 01        	<unknown>
    1942: eb 01 00 00  	<unknown>
    1946: 2e 57        	<unknown>
    1948: 00 00        	<unknown>
    194a: 00 27        	<unknown>
    194c: 41 00        	<unknown>
    194e: 00 01        	<unknown>
    1950: 34 00        	<unknown>
    1952: 00 00        	<unknown>
    1954: 2e 57        	<unknown>
    1956: 00 00        	<unknown>
    1958: 00 51        	<unknown>
    195a: 41 00        	<unknown>
    195c: 00 00        	<unknown>
    195e: 05 a4        	<unknown>
    1960: 49 00        	<unknown>
    1962: 80 04        	<unknown>
    1964: 00 00        	<unknown>
    1966: 00 26        	<unknown>
    1968: 05 00        	<unknown>
    196a: 00 02        	<unknown>
    196c: 5f 5f 78 00  	<unknown>
    1970: 2e bd        	<unknown>
    1972: 06 00        	<unknown>
    1974: 00 6c        	<unknown>
    1976: 41 00        	<unknown>
    1978: 00 00        	<unknown>
    197a: 0b bc 49 00  	<unknown>
    197e: 80 14        	<unknown>
    1980: 00 00        	<unknown>
    1982: 00 02        	<unknown>
    1984: 5f 5f 78 00  	<unknown>
    1988: 2e bd        	<unknown>
    198a: 06 00        	<unknown>
    198c: 00 78        	<unknown>
    198e: 41 00        	<unknown>
    1990: 00 00        	<unknown>
    1992: 00 05        	<unknown>
    1994: 10 4a        	<unknown>
    1996: 00 80        	<unknown>
    1998: 08 00        	<unknown>
    199a: 00 00        	<unknown>
    199c: 58 05        	<unknown>
    199e: 00 00        	<unknown>
    19a0: 0d 5f        	<unknown>
    19a2: 5f 78 00 bd  	<unknown>
    19a6: 06 00        	<unknown>
    19a8: 00 01        	<unknown>
    19aa: 5f 00 09 69  	<unknown>
    19ae: 05 00        	<unknown>
    19b0: 00 04        	<unknown>
    19b2: 5f 5f 78 00  	<unknown>
    19b6: 2f 03 bd 06  	<unknown>
    19ba: 00 00        	<unknown>
    19bc: 00 03        	<unknown>
    19be: 24 06        	<unknown>
    19c0: 00 00        	<unknown>
    19c2: 7e 05        	<unknown>
    19c4: 00 00        	<unknown>
    19c6: 04 5f        	<unknown>
    19c8: 5f 78 00 2f  	<unknown>
    19cc: 03 bd 06 00  	<unknown>
    19d0: 00 00        	<unknown>
    19d2: 03 37 06 00  	<unknown>
    19d6: 00 a1        	<unknown>
    19d8: 06 00        	<unknown>
    19da: 00 01        	<unknown>
    19dc: 4f 05 00 00  	fnmadd.s	fa0, ft0, ft0, ft0, rne
    19e0: 2f 2d 00 00  	amoadd.w	s10, zero, (zero)
    19e4: 00 84        	<unknown>
    19e6: 41 00        	<unknown>
    19e8: 00 05        	<unknown>
    19ea: 68 4b        	<unknown>
    19ec: 00 80        	<unknown>
    19ee: 60 00        	<unknown>
    19f0: 00 00        	<unknown>
    19f2: 22 06        	<unknown>
    19f4: 00 00        	<unknown>
    19f6: 07 6a 05 00  	<unknown>
    19fa: 00 2f        	<unknown>
    19fc: b6 06        	<unknown>
    19fe: 00 00        	<unknown>
    1a00: 07 38 05 00  	<unknown>
    1a04: 00 2f        	<unknown>
    1a06: b6 06        	<unknown>
    1a08: 00 00        	<unknown>
    1a0a: 01 81        	<unknown>
    1a0c: 05 00        	<unknown>
    1a0e: 00 2f        	<unknown>
    1a10: b6 06        	<unknown>
    1a12: 00 00        	<unknown>
    1a14: b5 41        	<unknown>
    1a16: 00 00        	<unknown>
    1a18: 01 2d        	<unknown>
    1a1a: 04 00        	<unknown>
    1a1c: 00 2f        	<unknown>
    1a1e: bd 06        	<unknown>
    1a20: 00 00        	<unknown>
    1a22: c2 41        	<unknown>
    1a24: 00 00        	<unknown>
    1a26: 01 45        	<unknown>
    1a28: 04 00        	<unknown>
    1a2a: 00 2f        	<unknown>
    1a2c: bd 06        	<unknown>
    1a2e: 00 00        	<unknown>
    1a30: d9 41        	<unknown>
    1a32: 00 00        	<unknown>
    1a34: 05 98        	<unknown>
    1a36: 4b 00 80 04  	<unknown>
    1a3a: 00 00        	<unknown>
    1a3c: 00 fc        	<unknown>
    1a3e: 05 00        	<unknown>
    1a40: 00 02        	<unknown>
    1a42: 5f 5f 78 00  	<unknown>
    1a46: 2f bd 06 00  	<unknown>
    1a4a: 00 1c        	<unknown>
    1a4c: 42 00        	<unknown>
    1a4e: 00 00        	<unknown>
    1a50: 09 0d        	<unknown>
    1a52: 06 00        	<unknown>
    1a54: 00 04        	<unknown>
    1a56: 5f 5f 78 00  	<unknown>
    1a5a: 2f 03 bd 06  	<unknown>
    1a5e: 00 00        	<unknown>
    1a60: 00 18        	<unknown>
    1a62: 4a 06        	<unknown>
    1a64: 00 00        	<unknown>
    1a66: 02 5f        	<unknown>
    1a68: 5f 78 00 2f  	<unknown>
    1a6c: bd 06        	<unknown>
    1a6e: 00 00        	<unknown>
    1a70: 2a 42        	<unknown>
    1a72: 00 00        	<unknown>
    1a74: 00 00        	<unknown>
    1a76: 05 14        	<unknown>
    1a78: 4c 00        	<unknown>
    1a7a: 80 08        	<unknown>
    1a7c: 00 00        	<unknown>
    1a7e: 00 3b        	<unknown>
    1a80: 06 00        	<unknown>
    1a82: 00 0d        	<unknown>
    1a84: 5f 5f 78 00  	<unknown>
    1a88: bd 06        	<unknown>
    1a8a: 00 00        	<unknown>
    1a8c: 01 5f        	<unknown>
    1a8e: 00 09        	<unknown>
    1a90: 4c 06        	<unknown>
    1a92: 00 00        	<unknown>
    1a94: 04 5f        	<unknown>
    1a96: 5f 78 00 2f  	<unknown>
    1a9a: 03 bd 06 00  	<unknown>
    1a9e: 00 00        	<unknown>
    1aa0: 03 5d 06 00  	lhu	s10, 0(a2)
    1aa4: 00 61        	<unknown>
    1aa6: 06 00        	<unknown>
    1aa8: 00 04        	<unknown>
    1aaa: 5f 5f 78 00  	<unknown>
    1aae: 2f 03 bd 06  	<unknown>
    1ab2: 00 00        	<unknown>
    1ab4: 00 05        	<unknown>
    1ab6: f8 4c        	<unknown>
    1ab8: 00 80        	<unknown>
    1aba: 04 00        	<unknown>
    1abc: 00 00        	<unknown>
    1abe: 7a 06        	<unknown>
    1ac0: 00 00        	<unknown>
    1ac2: 04 5f        	<unknown>
    1ac4: 5f 78 00 2f  	<unknown>
    1ac8: 03 bd 06 00  	<unknown>
    1acc: 00 00        	<unknown>
    1ace: 09 8b        	<unknown>
    1ad0: 06 00        	<unknown>
    1ad2: 00 04        	<unknown>
    1ad4: 5f 5f 78 00  	<unknown>
    1ad8: 2f 03 bd 06  	<unknown>
    1adc: 00 00        	<unknown>
    1ade: 00 0b        	<unknown>
    1ae0: 20 4d        	<unknown>
    1ae2: 00 80        	<unknown>
    1ae4: 08 00        	<unknown>
    1ae6: 00 00        	<unknown>
    1ae8: 04 5f        	<unknown>
    1aea: 5f 78 00 2f  	<unknown>
    1aee: 03 bd 06 00  	<unknown>
    1af2: 00 00        	<unknown>
    1af4: 00 0b        	<unknown>
    1af6: 5c 4a        	<unknown>
    1af8: 00 80        	<unknown>
    1afa: 20 00        	<unknown>
    1afc: 00 00        	<unknown>
    1afe: 07 19 02 00  	<unknown>
    1b02: 00 2f        	<unknown>
    1b04: b3 00 00 00  	add	ra, zero, zero
    1b08: 00 00        	<unknown>
    1b0a: 06 04        	<unknown>
    1b0c: 05 43        	<unknown>
    1b0e: 00 00        	<unknown>
    1b10: 00 06        	<unknown>
    1b12: 04 07        	<unknown>
    1b14: 51 00        	<unknown>
    1b16: 00 00        	<unknown>
    1b18: 19 1a        	<unknown>
    1b1a: 04 00        	<unknown>
    1b1c: 00 1a        	<unknown>
    1b1e: 04 00        	<unknown>
    1b20: 00 00        	<unknown>
    1b22: 35 02        	<unknown>
    1b24: 00 00        	<unknown>
    1b26: 05 00        	<unknown>
    1b28: 01 04        	<unknown>
    1b2a: 44 06        	<unknown>
    1b2c: 00 00        	<unknown>
    1b2e: 0b a3 02 00  	vx_split	t1, t0
    1b32: 00 1d        	<unknown>
    1b34: 24 01        	<unknown>
    1b36: 00 00        	<unknown>
    1b38: 21 00        	<unknown>
    1b3a: 00 00        	<unknown>
    1b3c: 58 4d        	<unknown>
    1b3e: 00 80        	<unknown>
    1b40: c4 00        	<unknown>
    1b42: 00 00        	<unknown>
    1b44: 8e 37        	<unknown>
    1b46: 00 00        	<unknown>
    1b48: 01 08        	<unknown>
    1b4a: 04 d2        	<unknown>
    1b4c: 01 00        	<unknown>
    1b4e: 00 06        	<unknown>
    1b50: a0 05        	<unknown>
    1b52: 00 00        	<unknown>
    1b54: 02 50        	<unknown>
    1b56: 0d 39        	<unknown>
    1b58: 00 00        	<unknown>
    1b5a: 00 0c        	<unknown>
    1b5c: 04 05        	<unknown>
    1b5e: 69 6e        	<unknown>
    1b60: 74 00        	<unknown>
    1b62: 01 01        	<unknown>
    1b64: 06 4e        	<unknown>
    1b66: 01 00        	<unknown>
    1b68: 00 01        	<unknown>
    1b6a: 08 05        	<unknown>
    1b6c: 3e 00        	<unknown>
    1b6e: 00 00        	<unknown>
    1b70: 01 01        	<unknown>
    1b72: 08 4c        	<unknown>
    1b74: 01 00        	<unknown>
    1b76: 00 01        	<unknown>
    1b78: 04 07        	<unknown>
    1b7a: 56 00        	<unknown>
    1b7c: 00 00        	<unknown>
    1b7e: 01 08        	<unknown>
    1b80: 07 4c 00 00  	<unknown>
    1b84: 00 01        	<unknown>
    1b86: 02 07        	<unknown>
    1b88: 7f 01 00 00  	<unknown>
    1b8c: 06 2c        	<unknown>
    1b8e: 02 00        	<unknown>
    1b90: 00 03        	<unknown>
    1b92: 48 0f        	<unknown>
    1b94: 26 00        	<unknown>
    1b96: 00 00        	<unknown>
    1b98: 0d 08        	<unknown>
    1b9a: 03 4f 03 b2  	lbu	t5, -1248(t1)
    1b9e: 00 00        	<unknown>
    1ba0: 00 05        	<unknown>
    1ba2: 0d 02        	<unknown>
    1ba4: 00 00        	<unknown>
    1ba6: 57 55 00 00  	<unknown>
    1baa: 00 20        	<unknown>
    1bac: 00 05        	<unknown>
    1bae: 13 02 00 00  	li	tp, 0
    1bb2: 58 55        	<unknown>
    1bb4: 00 00        	<unknown>
    1bb6: 00 14        	<unknown>
    1bb8: 20 0e        	<unknown>
    1bba: 65 78        	<unknown>
    1bbc: 70 00        	<unknown>
    1bbe: 03 59 0e 55  	lhu	s2, 1360(t3)
    1bc2: 00 00        	<unknown>
    1bc4: 00 0b        	<unknown>
    1bc6: 34 05        	<unknown>
    1bc8: 6b 02 00 00  	<unknown>
    1bcc: 5a 55        	<unknown>
    1bce: 00 00        	<unknown>
    1bd0: 00 01        	<unknown>
    1bd2: 3f 00 0f dc  	<unknown>
    1bd6: 03 00 00 08  	lb	zero, 128(zero)
    1bda: 03 4c 07 d8  	lbu	s8, -640(a4)
    1bde: 00 00        	<unknown>
    1be0: 00 10        	<unknown>
    1be2: 66 6c        	<unknown>
    1be4: 74 00        	<unknown>
    1be6: 03 4e 0a 6a  	lbu	t3, 1696(s4)
    1bea: 00 00        	<unknown>
    1bec: 00 11        	<unknown>
    1bee: 15 04        	<unknown>
    1bf0: 00 00        	<unknown>
    1bf2: 03 5c 05 76  	lhu	s8, 1888(a0)
    1bf6: 00 00        	<unknown>
    1bf8: 00 00        	<unknown>
    1bfa: 12 98        	<unknown>
    1bfc: 05 00        	<unknown>
    1bfe: 00 01        	<unknown>
    1c00: 23 01 2d 00  	sb	sp, 2(s10)
    1c04: 00 00        	<unknown>
    1c06: 58 4d        	<unknown>
    1c08: 00 80        	<unknown>
    1c0a: c4 00        	<unknown>
    1c0c: 00 00        	<unknown>
    1c0e: 01 9c        	<unknown>
    1c10: 2a 02        	<unknown>
    1c12: 00 00        	<unknown>
    1c14: 07 61 00 11  	<unknown>
    1c18: 6a 00        	<unknown>
    1c1a: 00 00        	<unknown>
    1c1c: 44 42        	<unknown>
    1c1e: 00 00        	<unknown>
    1c20: 07 62 00 1b  	<unknown>
    1c24: 6a 00        	<unknown>
    1c26: 00 00        	<unknown>
    1c28: 65 42        	<unknown>
    1c2a: 00 00        	<unknown>
    1c2c: 03 7a 02 00  	<unknown>
    1c30: 00 25        	<unknown>
    1c32: 39 00        	<unknown>
    1c34: 00 00        	<unknown>
    1c36: e6 42        	<unknown>
    1c38: 00 00        	<unknown>
    1c3a: 02 23        	<unknown>
    1c3c: 04 00        	<unknown>
    1c3e: 00 25        	<unknown>
    1c40: 39 00        	<unknown>
    1c42: 00 00        	<unknown>
    1c44: 08 41        	<unknown>
    1c46: 5f 63 00 26  	<unknown>
    1c4a: 2a 02        	<unknown>
    1c4c: 00 00        	<unknown>
    1c4e: 13 41 5f 73  	xori	sp, t5, 1845
    1c52: 00 01        	<unknown>
    1c54: 26 03        	<unknown>
    1c56: 2a 02        	<unknown>
    1c58: 00 00        	<unknown>
    1c5a: 0b 43 00 00  	<unknown>
    1c5e: 04 41        	<unknown>
    1c60: 5f 65 00 26  	<unknown>
    1c64: 03 2a 02 00  	lw	s4, 0(tp)
    1c68: 00 01        	<unknown>
    1c6a: 60 03        	<unknown>
    1c6c: 9e 02        	<unknown>
    1c6e: 00 00        	<unknown>
    1c70: 26 31        	<unknown>
    1c72: 02 00        	<unknown>
    1c74: 00 2c        	<unknown>
    1c76: 43 00 00 03  	<unknown>
    1c7a: 70 02        	<unknown>
    1c7c: 00 00        	<unknown>
    1c7e: 26 31        	<unknown>
    1c80: 02 00        	<unknown>
    1c82: 00 59        	<unknown>
    1c84: 43 00 00 08  	fmadd.s	ft0, ft0, ft0, ft1, rne
    1c88: 42 5f        	<unknown>
    1c8a: 63 00 27 2a  	beq	a4, sp, 0x1f2a <.debug_info+0x1f2a>
    1c8e: 02 00        	<unknown>
    1c90: 00 04        	<unknown>
    1c92: 42 5f        	<unknown>
    1c94: 73 00 27 03  	<unknown>
    1c98: 2a 02        	<unknown>
    1c9a: 00 00        	<unknown>
    1c9c: 06 7d        	<unknown>
    1c9e: 00 08        	<unknown>
    1ca0: ff 1a 9f 04  	<unknown>
    1ca4: 42 5f        	<unknown>
    1ca6: 65 00        	<unknown>
    1ca8: 27 03 2a 02  	<unknown>
    1cac: 00 00        	<unknown>
    1cae: 01 56        	<unknown>
    1cb0: 03 60 03 00  	<unknown>
    1cb4: 00 27        	<unknown>
    1cb6: 31 02        	<unknown>
    1cb8: 00 00        	<unknown>
    1cba: 70 43        	<unknown>
    1cbc: 00 00        	<unknown>
    1cbe: 14 65        	<unknown>
    1cc0: 03 00 00 01  	lb	zero, 16(zero)
    1cc4: 27 03 31 02  	<unknown>
    1cc8: 00 00        	<unknown>
    1cca: 01 5f        	<unknown>
    1ccc: 04 72        	<unknown>
    1cce: 00 28        	<unknown>
    1cd0: 0b 2d 00 00  	vx_split	s10, zero
    1cd4: 00 01        	<unknown>
    1cd6: 5a 09        	<unknown>
    1cd8: 7c 06        	<unknown>
    1cda: 00 00        	<unknown>
    1cdc: c9 01        	<unknown>
    1cde: 00 00        	<unknown>
    1ce0: 02 41        	<unknown>
    1ce2: 02 00        	<unknown>
    1ce4: 00 2b        	<unknown>
    1ce6: b2 00        	<unknown>
    1ce8: 00 00        	<unknown>
    1cea: 00 09        	<unknown>
    1cec: a1 06        	<unknown>
    1cee: 00 00        	<unknown>
    1cf0: dd 01        	<unknown>
    1cf2: 00 00        	<unknown>
    1cf4: 02 41        	<unknown>
    1cf6: 02 00        	<unknown>
    1cf8: 00 2c        	<unknown>
    1cfa: b2 00        	<unknown>
    1cfc: 00 00        	<unknown>
    1cfe: 00 0a        	<unknown>
    1d00: ed 01        	<unknown>
    1d02: 00 00        	<unknown>
    1d04: 02 ae        	<unknown>
    1d06: 05 00        	<unknown>
    1d08: 00 2d        	<unknown>
    1d0a: 39 00        	<unknown>
    1d0c: 00 00        	<unknown>
    1d0e: 00 0a        	<unknown>
    1d10: fd 01        	<unknown>
    1d12: 00 00        	<unknown>
    1d14: 02 ae        	<unknown>
    1d16: 05 00        	<unknown>
    1d18: 00 2d        	<unknown>
    1d1a: 39 00        	<unknown>
    1d1c: 00 00        	<unknown>
    1d1e: 00 15        	<unknown>
    1d20: c8 4d        	<unknown>
    1d22: 00 80        	<unknown>
    1d24: 08 00        	<unknown>
    1d26: 00 00        	<unknown>
    1d28: 15 02        	<unknown>
    1d2a: 00 00        	<unknown>
    1d2c: 02 ae        	<unknown>
    1d2e: 05 00        	<unknown>
    1d30: 00 2d        	<unknown>
    1d32: 39 00        	<unknown>
    1d34: 00 00        	<unknown>
    1d36: 00 16        	<unknown>
    1d38: bd 06        	<unknown>
    1d3a: 00 00        	<unknown>
    1d3c: 03 ae 05 00  	lw	t3, 0(a1)
    1d40: 00 2d        	<unknown>
    1d42: 39 00        	<unknown>
    1d44: 00 00        	<unknown>
    1d46: 9d 43        	<unknown>
    1d48: 00 00        	<unknown>
    1d4a: 00 00        	<unknown>
    1d4c: 01 04        	<unknown>
    1d4e: 05 43        	<unknown>
    1d50: 00 00        	<unknown>
    1d52: 00 01        	<unknown>
    1d54: 04 07        	<unknown>
    1d56: 51 00        	<unknown>
    1d58: 00 00        	<unknown>
    1d5a: 00 26        	<unknown>
    1d5c: 02 00        	<unknown>
    1d5e: 00 05        	<unknown>
    1d60: 00 01        	<unknown>
    1d62: 04 9e        	<unknown>
    1d64: 07 00 00 0b  	<unknown>
    1d68: a3 02 00 00  	sb	zero, 5(zero)
    1d6c: 1d 5b        	<unknown>
    1d6e: 01 00        	<unknown>
    1d70: 00 21        	<unknown>
    1d72: 00 00        	<unknown>
    1d74: 00 1c        	<unknown>
    1d76: 4e 00        	<unknown>
    1d78: 80 10        	<unknown>
    1d7a: 01 00        	<unknown>
    1d7c: 00 ff        	<unknown>
    1d7e: 39 00        	<unknown>
    1d80: 00 01        	<unknown>
    1d82: 08 04        	<unknown>
    1d84: d2 01        	<unknown>
    1d86: 00 00        	<unknown>
    1d88: 06 a0        	<unknown>
    1d8a: 05 00        	<unknown>
    1d8c: 00 02        	<unknown>
    1d8e: 50 0d        	<unknown>
    1d90: 39 00        	<unknown>
    1d92: 00 00        	<unknown>
    1d94: 0c 04        	<unknown>
    1d96: 05 69        	<unknown>
    1d98: 6e 74        	<unknown>
    1d9a: 00 01        	<unknown>
    1d9c: 01 06        	<unknown>
    1d9e: 4e 01        	<unknown>
    1da0: 00 00        	<unknown>
    1da2: 01 08        	<unknown>
    1da4: 05 3e        	<unknown>
    1da6: 00 00        	<unknown>
    1da8: 00 01        	<unknown>
    1daa: 01 08        	<unknown>
    1dac: 4c 01        	<unknown>
    1dae: 00 00        	<unknown>
    1db0: 01 04        	<unknown>
    1db2: 07 56 00 00  	<unknown>
    1db6: 00 01        	<unknown>
    1db8: 08 07        	<unknown>
    1dba: 4c 00        	<unknown>
    1dbc: 00 00        	<unknown>
    1dbe: 01 02        	<unknown>
    1dc0: 07 7f 01 00  	<unknown>
    1dc4: 00 06        	<unknown>
    1dc6: 2c 02        	<unknown>
    1dc8: 00 00        	<unknown>
    1dca: 03 48 0f 26  	lbu	a6, 608(t5)
    1dce: 00 00        	<unknown>
    1dd0: 00 0d        	<unknown>
    1dd2: 08 03        	<unknown>
    1dd4: 4f 03 b2 00  	fnmadd.s	ft6, ft4, fa1, ft0, rne
    1dd8: 00 00        	<unknown>
    1dda: 05 0d        	<unknown>
    1ddc: 02 00        	<unknown>
    1dde: 00 57        	<unknown>
    1de0: 55 00        	<unknown>
    1de2: 00 00        	<unknown>
    1de4: 20 00        	<unknown>
    1de6: 05 13        	<unknown>
    1de8: 02 00        	<unknown>
    1dea: 00 58        	<unknown>
    1dec: 55 00        	<unknown>
    1dee: 00 00        	<unknown>
    1df0: 14 20        	<unknown>
    1df2: 0e 65        	<unknown>
    1df4: 78 70        	<unknown>
    1df6: 00 03        	<unknown>
    1df8: 59 0e        	<unknown>
    1dfa: 55 00        	<unknown>
    1dfc: 00 00        	<unknown>
    1dfe: 0b 34 05 6b  	<unknown>
    1e02: 02 00        	<unknown>
    1e04: 00 5a        	<unknown>
    1e06: 55 00        	<unknown>
    1e08: 00 00        	<unknown>
    1e0a: 01 3f        	<unknown>
    1e0c: 00 0f        	<unknown>
    1e0e: dc 03        	<unknown>
    1e10: 00 00        	<unknown>
    1e12: 08 03        	<unknown>
    1e14: 4c 07        	<unknown>
    1e16: d8 00        	<unknown>
    1e18: 00 00        	<unknown>
    1e1a: 10 66        	<unknown>
    1e1c: 6c 74        	<unknown>
    1e1e: 00 03        	<unknown>
    1e20: 4e 0a        	<unknown>
    1e22: 6a 00        	<unknown>
    1e24: 00 00        	<unknown>
    1e26: 11 15        	<unknown>
    1e28: 04 00        	<unknown>
    1e2a: 00 03        	<unknown>
    1e2c: 5c 05        	<unknown>
    1e2e: 76 00        	<unknown>
    1e30: 00 00        	<unknown>
    1e32: 00 12        	<unknown>
    1e34: bf 05 00 00  	<unknown>
    1e38: 01 23        	<unknown>
    1e3a: 01 2d        	<unknown>
    1e3c: 00 00        	<unknown>
    1e3e: 00 1c        	<unknown>
    1e40: 4e 00        	<unknown>
    1e42: 80 10        	<unknown>
    1e44: 01 00        	<unknown>
    1e46: 00 01        	<unknown>
    1e48: 9c 1b        	<unknown>
    1e4a: 02 00        	<unknown>
    1e4c: 00 07        	<unknown>
    1e4e: 61 00        	<unknown>
    1e50: 11 6a        	<unknown>
    1e52: 00 00        	<unknown>
    1e54: 00 b6        	<unknown>
    1e56: 43 00 00 07  	<unknown>
    1e5a: 62 00        	<unknown>
    1e5c: 1b 6a 00 00  	<unknown>
    1e60: 00 d7        	<unknown>
    1e62: 43 00 00 02  	<unknown>
    1e66: 7a 02        	<unknown>
    1e68: 00 00        	<unknown>
    1e6a: 25 39        	<unknown>
    1e6c: 00 00        	<unknown>
    1e6e: 00 88        	<unknown>
    1e70: 44 00        	<unknown>
    1e72: 00 03        	<unknown>
    1e74: 23 04 00 00  	sb	zero, 8(zero)
    1e78: 25 39        	<unknown>
    1e7a: 00 00        	<unknown>
    1e7c: 00 08        	<unknown>
    1e7e: 41 5f        	<unknown>
    1e80: 63 00 26 1b  	beq	a2, s2, 0x2020 <.debug_info+0x2020>
    1e84: 02 00        	<unknown>
    1e86: 00 04        	<unknown>
    1e88: 41 5f        	<unknown>
    1e8a: 73 00 26 03  	<unknown>
    1e8e: 1b 02 00 00  	<unknown>
    1e92: 01 5b        	<unknown>
    1e94: 04 41        	<unknown>
    1e96: 5f 65 00 26  	<unknown>
    1e9a: 03 1b 02 00  	lh	s6, 0(tp)
    1e9e: 00 01        	<unknown>
    1ea0: 56 02        	<unknown>
    1ea2: 9e 02        	<unknown>
    1ea4: 00 00        	<unknown>
    1ea6: 26 22        	<unknown>
    1ea8: 02 00        	<unknown>
    1eaa: 00 95        	<unknown>
    1eac: 44 00        	<unknown>
    1eae: 00 02        	<unknown>
    1eb0: 70 02        	<unknown>
    1eb2: 00 00        	<unknown>
    1eb4: 26 22        	<unknown>
    1eb6: 02 00        	<unknown>
    1eb8: 00 1a        	<unknown>
    1eba: 45 00        	<unknown>
    1ebc: 00 08        	<unknown>
    1ebe: 42 5f        	<unknown>
    1ec0: 63 00 27 1b  	beq	a4, s2, 0x2060 <.debug_info+0x2060>
    1ec4: 02 00        	<unknown>
    1ec6: 00 04        	<unknown>
    1ec8: 42 5f        	<unknown>
    1eca: 73 00 27 03  	<unknown>
    1ece: 1b 02 00 00  	<unknown>
    1ed2: 01 5d        	<unknown>
    1ed4: 13 42 5f 65  	xori	tp, t5, 1621
    1ed8: 00 01        	<unknown>
    1eda: 27 03 1b 02  	<unknown>
    1ede: 00 00        	<unknown>
    1ee0: 47 45 00 00  	fmsub.s	fa0, ft0, ft0, ft0, rmm
    1ee4: 02 60        	<unknown>
    1ee6: 03 00 00 27  	lb	zero, 624(zero)
    1eea: 22 02        	<unknown>
    1eec: 00 00        	<unknown>
    1eee: 95 45        	<unknown>
    1ef0: 00 00        	<unknown>
    1ef2: 02 65        	<unknown>
    1ef4: 03 00 00 27  	lb	zero, 624(zero)
    1ef8: 22 02        	<unknown>
    1efa: 00 00        	<unknown>
    1efc: 0f 46 00 00  	<unknown>
    1f00: 04 72        	<unknown>
    1f02: 00 28        	<unknown>
    1f04: 0b 2d 00 00  	vx_split	s10, zero
    1f08: 00 01        	<unknown>
    1f0a: 5a 09        	<unknown>
    1f0c: dc 06        	<unknown>
    1f0e: 00 00        	<unknown>
    1f10: c4 01        	<unknown>
    1f12: 00 00        	<unknown>
    1f14: 03 41 02 00  	lbu	sp, 0(tp)
    1f18: 00 2b        	<unknown>
    1f1a: b2 00        	<unknown>
    1f1c: 00 00        	<unknown>
    1f1e: 00 09        	<unknown>
    1f20: 01 07        	<unknown>
    1f22: 00 00        	<unknown>
    1f24: d8 01        	<unknown>
    1f26: 00 00        	<unknown>
    1f28: 03 41 02 00  	lbu	sp, 0(tp)
    1f2c: 00 2c        	<unknown>
    1f2e: b2 00        	<unknown>
    1f30: 00 00        	<unknown>
    1f32: 00 0a        	<unknown>
    1f34: e8 01        	<unknown>
    1f36: 00 00        	<unknown>
    1f38: 03 ae 05 00  	lw	t3, 0(a1)
    1f3c: 00 2d        	<unknown>
    1f3e: 39 00        	<unknown>
    1f40: 00 00        	<unknown>
    1f42: 00 0a        	<unknown>
    1f44: f8 01        	<unknown>
    1f46: 00 00        	<unknown>
    1f48: 03 ae 05 00  	lw	t3, 0(a1)
    1f4c: 00 2d        	<unknown>
    1f4e: 39 00        	<unknown>
    1f50: 00 00        	<unknown>
    1f52: 00 14        	<unknown>
    1f54: 26 07        	<unknown>
    1f56: 00 00        	<unknown>
    1f58: 02 c7        	<unknown>
    1f5a: 05 00        	<unknown>
    1f5c: 00 2d        	<unknown>
    1f5e: 39 00        	<unknown>
    1f60: 00 00        	<unknown>
    1f62: 3c 46        	<unknown>
    1f64: 00 00        	<unknown>
    1f66: 02 d9        	<unknown>
    1f68: 05 00        	<unknown>
    1f6a: 00 2d        	<unknown>
    1f6c: 39 00        	<unknown>
    1f6e: 00 00        	<unknown>
    1f70: 7f 46 00 00  	<unknown>
    1f74: 00 00        	<unknown>
    1f76: 01 04        	<unknown>
    1f78: 05 43        	<unknown>
    1f7a: 00 00        	<unknown>
    1f7c: 00 01        	<unknown>
    1f7e: 04 07        	<unknown>
    1f80: 51 00        	<unknown>
    1f82: 00 00        	<unknown>
    1f84: 00 26        	<unknown>
    1f86: 02 00        	<unknown>
    1f88: 00 05        	<unknown>
    1f8a: 00 01        	<unknown>
    1f8c: 04 dc        	<unknown>
    1f8e: 08 00        	<unknown>
    1f90: 00 0b        	<unknown>
    1f92: a3 02 00 00  	sb	zero, 5(zero)
    1f96: 1d 82        	<unknown>
    1f98: 01 00        	<unknown>
    1f9a: 00 21        	<unknown>
    1f9c: 00 00        	<unknown>
    1f9e: 00 2c        	<unknown>
    1fa0: 4f 00 80 10  	fnmadd.s	ft0, ft0, fs0, ft2, rne
    1fa4: 01 00        	<unknown>
    1fa6: 00 5d        	<unknown>
    1fa8: 3d 00        	<unknown>
    1faa: 00 01        	<unknown>
    1fac: 08 04        	<unknown>
    1fae: d2 01        	<unknown>
    1fb0: 00 00        	<unknown>
    1fb2: 06 a0        	<unknown>
    1fb4: 05 00        	<unknown>
    1fb6: 00 02        	<unknown>
    1fb8: 50 0d        	<unknown>
    1fba: 39 00        	<unknown>
    1fbc: 00 00        	<unknown>
    1fbe: 0c 04        	<unknown>
    1fc0: 05 69        	<unknown>
    1fc2: 6e 74        	<unknown>
    1fc4: 00 01        	<unknown>
    1fc6: 01 06        	<unknown>
    1fc8: 4e 01        	<unknown>
    1fca: 00 00        	<unknown>
    1fcc: 01 08        	<unknown>
    1fce: 05 3e        	<unknown>
    1fd0: 00 00        	<unknown>
    1fd2: 00 01        	<unknown>
    1fd4: 01 08        	<unknown>
    1fd6: 4c 01        	<unknown>
    1fd8: 00 00        	<unknown>
    1fda: 01 04        	<unknown>
    1fdc: 07 56 00 00  	<unknown>
    1fe0: 00 01        	<unknown>
    1fe2: 08 07        	<unknown>
    1fe4: 4c 00        	<unknown>
    1fe6: 00 00        	<unknown>
    1fe8: 01 02        	<unknown>
    1fea: 07 7f 01 00  	<unknown>
    1fee: 00 06        	<unknown>
    1ff0: 2c 02        	<unknown>
    1ff2: 00 00        	<unknown>
    1ff4: 03 48 0f 26  	lbu	a6, 608(t5)
    1ff8: 00 00        	<unknown>
    1ffa: 00 0d        	<unknown>
    1ffc: 08 03        	<unknown>
    1ffe: 4f 03 b2 00  	fnmadd.s	ft6, ft4, fa1, ft0, rne
    2002: 00 00        	<unknown>
    2004: 05 0d        	<unknown>
    2006: 02 00        	<unknown>
    2008: 00 57        	<unknown>
    200a: 55 00        	<unknown>
    200c: 00 00        	<unknown>
    200e: 20 00        	<unknown>
    2010: 05 13        	<unknown>
    2012: 02 00        	<unknown>
    2014: 00 58        	<unknown>
    2016: 55 00        	<unknown>
    2018: 00 00        	<unknown>
    201a: 14 20        	<unknown>
    201c: 0e 65        	<unknown>
    201e: 78 70        	<unknown>
    2020: 00 03        	<unknown>
    2022: 59 0e        	<unknown>
    2024: 55 00        	<unknown>
    2026: 00 00        	<unknown>
    2028: 0b 34 05 6b  	<unknown>
    202c: 02 00        	<unknown>
    202e: 00 5a        	<unknown>
    2030: 55 00        	<unknown>
    2032: 00 00        	<unknown>
    2034: 01 3f        	<unknown>
    2036: 00 0f        	<unknown>
    2038: dc 03        	<unknown>
    203a: 00 00        	<unknown>
    203c: 08 03        	<unknown>
    203e: 4c 07        	<unknown>
    2040: d8 00        	<unknown>
    2042: 00 00        	<unknown>
    2044: 10 66        	<unknown>
    2046: 6c 74        	<unknown>
    2048: 00 03        	<unknown>
    204a: 4e 0a        	<unknown>
    204c: 6a 00        	<unknown>
    204e: 00 00        	<unknown>
    2050: 11 15        	<unknown>
    2052: 04 00        	<unknown>
    2054: 00 03        	<unknown>
    2056: 5c 05        	<unknown>
    2058: 76 00        	<unknown>
    205a: 00 00        	<unknown>
    205c: 00 12        	<unknown>
    205e: eb 05 00 00  	<unknown>
    2062: 01 23        	<unknown>
    2064: 01 2d        	<unknown>
    2066: 00 00        	<unknown>
    2068: 00 2c        	<unknown>
    206a: 4f 00 80 10  	fnmadd.s	ft0, ft0, fs0, ft2, rne
    206e: 01 00        	<unknown>
    2070: 00 01        	<unknown>
    2072: 9c 1b        	<unknown>
    2074: 02 00        	<unknown>
    2076: 00 07        	<unknown>
    2078: 61 00        	<unknown>
    207a: 11 6a        	<unknown>
    207c: 00 00        	<unknown>
    207e: 00 bc        	<unknown>
    2080: 46 00        	<unknown>
    2082: 00 07        	<unknown>
    2084: 62 00        	<unknown>
    2086: 1b 6a 00 00  	<unknown>
    208a: 00 dd        	<unknown>
    208c: 46 00        	<unknown>
    208e: 00 02        	<unknown>
    2090: 7a 02        	<unknown>
    2092: 00 00        	<unknown>
    2094: 25 39        	<unknown>
    2096: 00 00        	<unknown>
    2098: 00 8e        	<unknown>
    209a: 47 00 00 03  	<unknown>
    209e: 23 04 00 00  	sb	zero, 8(zero)
    20a2: 25 39        	<unknown>
    20a4: 00 00        	<unknown>
    20a6: 00 08        	<unknown>
    20a8: 41 5f        	<unknown>
    20aa: 63 00 26 1b  	beq	a2, s2, 0x224a <.debug_info+0x224a>
    20ae: 02 00        	<unknown>
    20b0: 00 04        	<unknown>
    20b2: 41 5f        	<unknown>
    20b4: 73 00 26 03  	<unknown>
    20b8: 1b 02 00 00  	<unknown>
    20bc: 01 5b        	<unknown>
    20be: 04 41        	<unknown>
    20c0: 5f 65 00 26  	<unknown>
    20c4: 03 1b 02 00  	lh	s6, 0(tp)
    20c8: 00 01        	<unknown>
    20ca: 56 02        	<unknown>
    20cc: 9e 02        	<unknown>
    20ce: 00 00        	<unknown>
    20d0: 26 22        	<unknown>
    20d2: 02 00        	<unknown>
    20d4: 00 9b        	<unknown>
    20d6: 47 00 00 02  	<unknown>
    20da: 70 02        	<unknown>
    20dc: 00 00        	<unknown>
    20de: 26 22        	<unknown>
    20e0: 02 00        	<unknown>
    20e2: 00 20        	<unknown>
    20e4: 48 00        	<unknown>
    20e6: 00 08        	<unknown>
    20e8: 42 5f        	<unknown>
    20ea: 63 00 27 1b  	beq	a4, s2, 0x228a <.debug_info+0x228a>
    20ee: 02 00        	<unknown>
    20f0: 00 04        	<unknown>
    20f2: 42 5f        	<unknown>
    20f4: 73 00 27 03  	<unknown>
    20f8: 1b 02 00 00  	<unknown>
    20fc: 01 5d        	<unknown>
    20fe: 13 42 5f 65  	xori	tp, t5, 1621
    2102: 00 01        	<unknown>
    2104: 27 03 1b 02  	<unknown>
    2108: 00 00        	<unknown>
    210a: 4d 48        	<unknown>
    210c: 00 00        	<unknown>
    210e: 02 60        	<unknown>
    2110: 03 00 00 27  	lb	zero, 624(zero)
    2114: 22 02        	<unknown>
    2116: 00 00        	<unknown>
    2118: 9b 48 00 00  	<unknown>
    211c: 02 65        	<unknown>
    211e: 03 00 00 27  	lb	zero, 624(zero)
    2122: 22 02        	<unknown>
    2124: 00 00        	<unknown>
    2126: 15 49        	<unknown>
    2128: 00 00        	<unknown>
    212a: 04 72        	<unknown>
    212c: 00 28        	<unknown>
    212e: 0b 2d 00 00  	vx_split	s10, zero
    2132: 00 01        	<unknown>
    2134: 5a 09        	<unknown>
    2136: 4e 07        	<unknown>
    2138: 00 00        	<unknown>
    213a: c4 01        	<unknown>
    213c: 00 00        	<unknown>
    213e: 03 41 02 00  	lbu	sp, 0(tp)
    2142: 00 2b        	<unknown>
    2144: b2 00        	<unknown>
    2146: 00 00        	<unknown>
    2148: 00 09        	<unknown>
    214a: 73 07 00 00  	<unknown>
    214e: d8 01        	<unknown>
    2150: 00 00        	<unknown>
    2152: 03 41 02 00  	lbu	sp, 0(tp)
    2156: 00 2c        	<unknown>
    2158: b2 00        	<unknown>
    215a: 00 00        	<unknown>
    215c: 00 0a        	<unknown>
    215e: e8 01        	<unknown>
    2160: 00 00        	<unknown>
    2162: 03 ae 05 00  	lw	t3, 0(a1)
    2166: 00 2d        	<unknown>
    2168: 39 00        	<unknown>
    216a: 00 00        	<unknown>
    216c: 00 0a        	<unknown>
    216e: f8 01        	<unknown>
    2170: 00 00        	<unknown>
    2172: 03 ae 05 00  	lw	t3, 0(a1)
    2176: 00 2d        	<unknown>
    2178: 39 00        	<unknown>
    217a: 00 00        	<unknown>
    217c: 00 14        	<unknown>
    217e: 98 07        	<unknown>
    2180: 00 00        	<unknown>
    2182: 02 c7        	<unknown>
    2184: 05 00        	<unknown>
    2186: 00 2d        	<unknown>
    2188: 39 00        	<unknown>
    218a: 00 00        	<unknown>
    218c: 42 49        	<unknown>
    218e: 00 00        	<unknown>
    2190: 02 d9        	<unknown>
    2192: 05 00        	<unknown>
    2194: 00 2d        	<unknown>
    2196: 39 00        	<unknown>
    2198: 00 00        	<unknown>
    219a: 85 49        	<unknown>
    219c: 00 00        	<unknown>
    219e: 00 00        	<unknown>
    21a0: 01 04        	<unknown>
    21a2: 05 43        	<unknown>
    21a4: 00 00        	<unknown>
    21a6: 00 01        	<unknown>
    21a8: 04 07        	<unknown>
    21aa: 51 00        	<unknown>
    21ac: 00 00        	<unknown>
    21ae: 00 e3        	<unknown>
    21b0: 06 00        	<unknown>
    21b2: 00 05        	<unknown>
    21b4: 00 01        	<unknown>
    21b6: 04 1a        	<unknown>
    21b8: 0a 00        	<unknown>
    21ba: 00 0f        	<unknown>
    21bc: a3 02 00 00  	sb	zero, 5(zero)
    21c0: 1d a9        	<unknown>
    21c2: 01 00        	<unknown>
    21c4: 00 21        	<unknown>
    21c6: 00 00        	<unknown>
    21c8: 00 3c        	<unknown>
    21ca: 50 00        	<unknown>
    21cc: 80 c0        	<unknown>
    21ce: 07 00 00 bb  	<unknown>
    21d2: 40 00        	<unknown>
    21d4: 00 05        	<unknown>
    21d6: 08 04        	<unknown>
    21d8: d2 01        	<unknown>
    21da: 00 00        	<unknown>
    21dc: 10 04        	<unknown>
    21de: 05 69        	<unknown>
    21e0: 6e 74        	<unknown>
    21e2: 00 05        	<unknown>
    21e4: 01 06        	<unknown>
    21e6: 4e 01        	<unknown>
    21e8: 00 00        	<unknown>
    21ea: 05 08        	<unknown>
    21ec: 05 3e        	<unknown>
    21ee: 00 00        	<unknown>
    21f0: 00 05        	<unknown>
    21f2: 01 08        	<unknown>
    21f4: 4c 01        	<unknown>
    21f6: 00 00        	<unknown>
    21f8: 05 04        	<unknown>
    21fa: 07 56 00 00  	<unknown>
    21fe: 00 05        	<unknown>
    2200: 08 07        	<unknown>
    2202: 4c 00        	<unknown>
    2204: 00 00        	<unknown>
    2206: 11 7f        	<unknown>
    2208: 04 00        	<unknown>
    220a: 00 02        	<unknown>
    220c: 4e 01        	<unknown>
    220e: 16 64        	<unknown>
    2210: 00 00        	<unknown>
    2212: 00 05        	<unknown>
    2214: 02 07        	<unknown>
    2216: 7f 01 00 00  	<unknown>
    221a: 12 2c        	<unknown>
    221c: 02 00        	<unknown>
    221e: 00 03        	<unknown>
    2220: 48 0f        	<unknown>
    2222: 26 00        	<unknown>
    2224: 00 00        	<unknown>
    2226: 13 08 03 4f  	addi	a6, t1, 1264
    222a: 03 b3 00 00  	<unknown>
    222e: 00 0b        	<unknown>
    2230: 0d 02        	<unknown>
    2232: 00 00        	<unknown>
    2234: 57 49 00 00  	<unknown>
    2238: 00 20        	<unknown>
    223a: 00 0b        	<unknown>
    223c: 13 02 00 00  	li	tp, 0
    2240: 58 49        	<unknown>
    2242: 00 00        	<unknown>
    2244: 00 14        	<unknown>
    2246: 20 14        	<unknown>
    2248: 65 78        	<unknown>
    224a: 70 00        	<unknown>
    224c: 03 59 0e 49  	lhu	s2, 1168(t3)
    2250: 00 00        	<unknown>
    2252: 00 0b        	<unknown>
    2254: 34 0b        	<unknown>
    2256: 6b 02 00 00  	<unknown>
    225a: 5a 49        	<unknown>
    225c: 00 00        	<unknown>
    225e: 00 01        	<unknown>
    2260: 3f 00 15 dc  	<unknown>
    2264: 03 00 00 08  	lb	zero, 128(zero)
    2268: 03 4c 07 d9  	lbu	s8, -624(a4)
    226c: 00 00        	<unknown>
    226e: 00 16        	<unknown>
    2270: 66 6c        	<unknown>
    2272: 74 00        	<unknown>
    2274: 03 4e 0a 6b  	lbu	t3, 1712(s4)
    2278: 00 00        	<unknown>
    227a: 00 17        	<unknown>
    227c: 15 04        	<unknown>
    227e: 00 00        	<unknown>
    2280: 03 5c 05 77  	lhu	s8, 1904(a0)
    2284: 00 00        	<unknown>
    2286: 00 00        	<unknown>
    2288: 18 6a        	<unknown>
    228a: 06 00        	<unknown>
    228c: 00 01        	<unknown>
    228e: 23 01 6b 00  	sb	t1, 2(s6)
    2292: 00 00        	<unknown>
    2294: 3c 50        	<unknown>
    2296: 00 80        	<unknown>
    2298: c0 07        	<unknown>
    229a: 00 00        	<unknown>
    229c: 01 9c        	<unknown>
    229e: bf 06 00 00  	<unknown>
    22a2: 0c 61        	<unknown>
    22a4: 00 12        	<unknown>
    22a6: 6b 00 00 00  	<unknown>
    22aa: c2 49        	<unknown>
    22ac: 00 00        	<unknown>
    22ae: 0c 62        	<unknown>
    22b0: 00 1c        	<unknown>
    22b2: 6b 00 00 00  	<unknown>
    22b6: 63 4a 00 00  	bltz	zero, 0x22ca <.debug_info+0x22ca>
    22ba: 01 7a        	<unknown>
    22bc: 02 00        	<unknown>
    22be: 00 25        	<unknown>
    22c0: 2d 00        	<unknown>
    22c2: 00 00        	<unknown>
    22c4: 04 4b        	<unknown>
    22c6: 00 00        	<unknown>
    22c8: 01 23        	<unknown>
    22ca: 04 00        	<unknown>
    22cc: 00 25        	<unknown>
    22ce: 2d 00        	<unknown>
    22d0: 00 00        	<unknown>
    22d2: 8f 4b 00 00  	<unknown>
    22d6: 04 41        	<unknown>
    22d8: 5f 63 00 26  	<unknown>
    22dc: bf 06 00 00  	<unknown>
    22e0: a6 4b        	<unknown>
    22e2: 00 00        	<unknown>
    22e4: 04 41        	<unknown>
    22e6: 5f 73 00 26  	<unknown>
    22ea: bf 06 00 00  	<unknown>
    22ee: f7 4b 00 00  	<unknown>
    22f2: 04 41        	<unknown>
    22f4: 5f 65 00 26  	<unknown>
    22f8: bf 06 00 00  	<unknown>
    22fc: 18 4c        	<unknown>
    22fe: 00 00        	<unknown>
    2300: 01 9e        	<unknown>
    2302: 02 00        	<unknown>
    2304: 00 26        	<unknown>
    2306: c6 06        	<unknown>
    2308: 00 00        	<unknown>
    230a: d3 4c 00 00  	fadd.s	fs9, ft0, ft0, rmm
    230e: 01 70        	<unknown>
    2310: 02 00        	<unknown>
    2312: 00 26        	<unknown>
    2314: c6 06        	<unknown>
    2316: 00 00        	<unknown>
    2318: 64 4d        	<unknown>
    231a: 00 00        	<unknown>
    231c: 04 42        	<unknown>
    231e: 5f 63 00 27  	<unknown>
    2322: bf 06 00 00  	<unknown>
    2326: 26 4e        	<unknown>
    2328: 00 00        	<unknown>
    232a: 04 42        	<unknown>
    232c: 5f 73 00 27  	<unknown>
    2330: bf 06 00 00  	<unknown>
    2334: 77 4e 00 00  	<unknown>
    2338: 04 42        	<unknown>
    233a: 5f 65 00 27  	<unknown>
    233e: bf 06 00 00  	<unknown>
    2342: a8 4e        	<unknown>
    2344: 00 00        	<unknown>
    2346: 01 60        	<unknown>
    2348: 03 00 00 27  	lb	zero, 624(zero)
    234c: c6 06        	<unknown>
    234e: 00 00        	<unknown>
    2350: 14 4f        	<unknown>
    2352: 00 00        	<unknown>
    2354: 01 65        	<unknown>
    2356: 03 00 00 27  	lb	zero, 624(zero)
    235a: c6 06        	<unknown>
    235c: 00 00        	<unknown>
    235e: c6 4f        	<unknown>
    2360: 00 00        	<unknown>
    2362: 04 52        	<unknown>
    2364: 5f 63 00 28  	<unknown>
    2368: bf 06 00 00  	<unknown>
    236c: 5c 50        	<unknown>
    236e: 00 00        	<unknown>
    2370: 04 52        	<unknown>
    2372: 5f 73 00 28  	<unknown>
    2376: bf 06 00 00  	<unknown>
    237a: 8b 50 00 00  	<unknown>
    237e: 04 52        	<unknown>
    2380: 5f 65 00 28  	<unknown>
    2384: bf 06 00 00  	<unknown>
    2388: 1a 51        	<unknown>
    238a: 00 00        	<unknown>
    238c: 01 3c        	<unknown>
    238e: 02 00        	<unknown>
    2390: 00 28        	<unknown>
    2392: c6 06        	<unknown>
    2394: 00 00        	<unknown>
    2396: 2d 52        	<unknown>
    2398: 00 00        	<unknown>
    239a: 01 28        	<unknown>
    239c: 04 00        	<unknown>
    239e: 00 28        	<unknown>
    23a0: c6 06        	<unknown>
    23a2: 00 00        	<unknown>
    23a4: 27 53 00 00  	<unknown>
    23a8: 06 72        	<unknown>
    23aa: 00 29        	<unknown>
    23ac: 0a 6b        	<unknown>
    23ae: 00 00        	<unknown>
    23b0: 00 02        	<unknown>
    23b2: c0 07        	<unknown>
    23b4: 00 00        	<unknown>
    23b6: 16 02        	<unknown>
    23b8: 00 00        	<unknown>
    23ba: 03 41 02 00  	lbu	sp, 0(tp)
    23be: 00 2c        	<unknown>
    23c0: b3 00 00 00  	add	ra, zero, zero
    23c4: 00 02        	<unknown>
    23c6: ee 07        	<unknown>
    23c8: 00 00        	<unknown>
    23ca: 40 02        	<unknown>
    23cc: 00 00        	<unknown>
    23ce: 01 a0        	<unknown>
    23d0: 04 00        	<unknown>
    23d2: 00 2c        	<unknown>
    23d4: bf 06 00 00  	<unknown>
    23d8: f3 53 00 00  	csrrwi	t2, ustatus, 0
    23dc: 08 d8        	<unknown>
    23de: 50 00        	<unknown>
    23e0: 80 dd        	<unknown>
    23e2: 06 00        	<unknown>
    23e4: 00 08        	<unknown>
    23e6: 10 51        	<unknown>
    23e8: 00 80        	<unknown>
    23ea: dd 06        	<unknown>
    23ec: 00 00        	<unknown>
    23ee: 00 02        	<unknown>
    23f0: 01 08        	<unknown>
    23f2: 00 00        	<unknown>
    23f4: 54 02        	<unknown>
    23f6: 00 00        	<unknown>
    23f8: 03 41 02 00  	lbu	sp, 0(tp)
    23fc: 00 2d        	<unknown>
    23fe: b3 00 00 00  	add	ra, zero, zero
    2402: 00 02        	<unknown>
    2404: 2f 08 00 00  	<unknown>
    2408: 7e 02        	<unknown>
    240a: 00 00        	<unknown>
    240c: 01 a0        	<unknown>
    240e: 04 00        	<unknown>
    2410: 00 2d        	<unknown>
    2412: bf 06 00 00  	<unknown>
    2416: 20 54        	<unknown>
    2418: 00 00        	<unknown>
    241a: 08 20        	<unknown>
    241c: 52 00        	<unknown>
    241e: 80 dd        	<unknown>
    2420: 06 00        	<unknown>
    2422: 00 08        	<unknown>
    2424: 5c 52        	<unknown>
    2426: 00 80        	<unknown>
    2428: dd 06        	<unknown>
    242a: 00 00        	<unknown>
    242c: 00 02        	<unknown>
    242e: 42 08        	<unknown>
    2430: 00 00        	<unknown>
    2432: 48 05        	<unknown>
    2434: 00 00        	<unknown>
    2436: 03 be 06 00  	<unknown>
    243a: 00 2e        	<unknown>
    243c: cd 06        	<unknown>
    243e: 00 00        	<unknown>
    2440: 02 5e        	<unknown>
    2442: 08 00        	<unknown>
    2444: 00 e7        	<unknown>
    2446: 04 00        	<unknown>
    2448: 00 01        	<unknown>
    244a: e9 06        	<unknown>
    244c: 00 00        	<unknown>
    244e: 2e c6        	<unknown>
    2450: 06 00        	<unknown>
    2452: 00 4d        	<unknown>
    2454: 54 00        	<unknown>
    2456: 00 01        	<unknown>
    2458: 05 07        	<unknown>
    245a: 00 00        	<unknown>
    245c: 2e c6        	<unknown>
    245e: 06 00        	<unknown>
    2460: 00 59        	<unknown>
    2462: 54 00        	<unknown>
    2464: 00 01        	<unknown>
    2466: 73 06 00 00  	<unknown>
    246a: 2e c6        	<unknown>
    246c: 06 00        	<unknown>
    246e: 00 65        	<unknown>
    2470: 54 00        	<unknown>
    2472: 00 01        	<unknown>
    2474: 8f 06 00 00  	<unknown>
    2478: 2e c6        	<unknown>
    247a: 06 00        	<unknown>
    247c: 00 7c        	<unknown>
    247e: 54 00        	<unknown>
    2480: 00 02        	<unknown>
    2482: 71 08        	<unknown>
    2484: 00 00        	<unknown>
    2486: 4c 03        	<unknown>
    2488: 00 00        	<unknown>
    248a: 01 5a        	<unknown>
    248c: 01 00        	<unknown>
    248e: 00 2e        	<unknown>
    2490: c6 06        	<unknown>
    2492: 00 00        	<unknown>
    2494: 88 54        	<unknown>
    2496: 00 00        	<unknown>
    2498: 01 5f        	<unknown>
    249a: 01 00        	<unknown>
    249c: 00 2e        	<unknown>
    249e: c6 06        	<unknown>
    24a0: 00 00        	<unknown>
    24a2: a4 54        	<unknown>
    24a4: 00 00        	<unknown>
    24a6: 01 64        	<unknown>
    24a8: 01 00        	<unknown>
    24aa: 00 2e        	<unknown>
    24ac: c6 06        	<unknown>
    24ae: 00 00        	<unknown>
    24b0: 0e 55        	<unknown>
    24b2: 00 00        	<unknown>
    24b4: 01 69        	<unknown>
    24b6: 01 00        	<unknown>
    24b8: 00 2e        	<unknown>
    24ba: c6 06        	<unknown>
    24bc: 00 00        	<unknown>
    24be: 2a 55        	<unknown>
    24c0: 00 00        	<unknown>
    24c2: 01 f0        	<unknown>
    24c4: 01 00        	<unknown>
    24c6: 00 2e        	<unknown>
    24c8: 57 00 00 00  	<unknown>
    24cc: 41 55        	<unknown>
    24ce: 00 00        	<unknown>
    24d0: 01 39        	<unknown>
    24d2: 00 00        	<unknown>
    24d4: 00 2e        	<unknown>
    24d6: 57 00 00 00  	<unknown>
    24da: 4d 55        	<unknown>
    24dc: 00 00        	<unknown>
    24de: 01 eb        	<unknown>
    24e0: 01 00        	<unknown>
    24e2: 00 2e        	<unknown>
    24e4: 57 00 00 00  	<unknown>
    24e8: 59 55        	<unknown>
    24ea: 00 00        	<unknown>
    24ec: 01 34        	<unknown>
    24ee: 00 00        	<unknown>
    24f0: 00 2e        	<unknown>
    24f2: 57 00 00 00  	<unknown>
    24f6: 65 55        	<unknown>
    24f8: 00 00        	<unknown>
    24fa: 00 02        	<unknown>
    24fc: 84 08        	<unknown>
    24fe: 00 00        	<unknown>
    2500: c2 03        	<unknown>
    2502: 00 00        	<unknown>
    2504: 01 5a        	<unknown>
    2506: 01 00        	<unknown>
    2508: 00 2e        	<unknown>
    250a: c6 06        	<unknown>
    250c: 00 00        	<unknown>
    250e: 71 55        	<unknown>
    2510: 00 00        	<unknown>
    2512: 01 5f        	<unknown>
    2514: 01 00        	<unknown>
    2516: 00 2e        	<unknown>
    2518: c6 06        	<unknown>
    251a: 00 00        	<unknown>
    251c: 7d 55        	<unknown>
    251e: 00 00        	<unknown>
    2520: 01 64        	<unknown>
    2522: 01 00        	<unknown>
    2524: 00 2e        	<unknown>
    2526: c6 06        	<unknown>
    2528: 00 00        	<unknown>
    252a: a4 55        	<unknown>
    252c: 00 00        	<unknown>
    252e: 01 69        	<unknown>
    2530: 01 00        	<unknown>
    2532: 00 2e        	<unknown>
    2534: c6 06        	<unknown>
    2536: 00 00        	<unknown>
    2538: b0 55        	<unknown>
    253a: 00 00        	<unknown>
    253c: 03 f0 01 00  	<unknown>
    2540: 00 2e        	<unknown>
    2542: 57 00 00 00  	<unknown>
    2546: 01 39        	<unknown>
    2548: 00 00        	<unknown>
    254a: 00 2e        	<unknown>
    254c: 57 00 00 00  	<unknown>
    2550: bc 55        	<unknown>
    2552: 00 00        	<unknown>
    2554: 01 eb        	<unknown>
    2556: 01 00        	<unknown>
    2558: 00 2e        	<unknown>
    255a: 57 00 00 00  	<unknown>
    255e: c8 55        	<unknown>
    2560: 00 00        	<unknown>
    2562: 01 34        	<unknown>
    2564: 00 00        	<unknown>
    2566: 00 2e        	<unknown>
    2568: 57 00 00 00  	<unknown>
    256c: d4 55        	<unknown>
    256e: 00 00        	<unknown>
    2570: 00 02        	<unknown>
    2572: a0 08        	<unknown>
    2574: 00 00        	<unknown>
    2576: 34 04        	<unknown>
    2578: 00 00        	<unknown>
    257a: 01 5a        	<unknown>
    257c: 01 00        	<unknown>
    257e: 00 2e        	<unknown>
    2580: c6 06        	<unknown>
    2582: 00 00        	<unknown>
    2584: e0 55        	<unknown>
    2586: 00 00        	<unknown>
    2588: 01 5f        	<unknown>
    258a: 01 00        	<unknown>
    258c: 00 2e        	<unknown>
    258e: c6 06        	<unknown>
    2590: 00 00        	<unknown>
    2592: ec 55        	<unknown>
    2594: 00 00        	<unknown>
    2596: 01 64        	<unknown>
    2598: 01 00        	<unknown>
    259a: 00 2e        	<unknown>
    259c: c6 06        	<unknown>
    259e: 00 00        	<unknown>
    25a0: 13 56 00 00  	srli	a2, zero, 0
    25a4: 01 69        	<unknown>
    25a6: 01 00        	<unknown>
    25a8: 00 2e        	<unknown>
    25aa: c6 06        	<unknown>
    25ac: 00 00        	<unknown>
    25ae: 1f 56 00 00  	<unknown>
    25b2: 03 f0 01 00  	<unknown>
    25b6: 00 2e        	<unknown>
    25b8: 57 00 00 00  	<unknown>
    25bc: 03 39 00 00  	<unknown>
    25c0: 00 2e        	<unknown>
    25c2: 57 00 00 00  	<unknown>
    25c6: 01 eb        	<unknown>
    25c8: 01 00        	<unknown>
    25ca: 00 2e        	<unknown>
    25cc: 57 00 00 00  	<unknown>
    25d0: 2b 56 00 00  	<unknown>
    25d4: 01 34        	<unknown>
    25d6: 00 00        	<unknown>
    25d8: 00 2e        	<unknown>
    25da: 57 00 00 00  	<unknown>
    25de: 37 56 00 00  	lui	a2, 5
    25e2: 00 02        	<unknown>
    25e4: bc 08        	<unknown>
    25e6: 00 00        	<unknown>
    25e8: a6 04        	<unknown>
    25ea: 00 00        	<unknown>
    25ec: 01 5a        	<unknown>
    25ee: 01 00        	<unknown>
    25f0: 00 2e        	<unknown>
    25f2: c6 06        	<unknown>
    25f4: 00 00        	<unknown>
    25f6: 43 56 00 00  	<unknown>
    25fa: 01 5f        	<unknown>
    25fc: 01 00        	<unknown>
    25fe: 00 2e        	<unknown>
    2600: c6 06        	<unknown>
    2602: 00 00        	<unknown>
    2604: 4f 56 00 00  	<unknown>
    2608: 01 64        	<unknown>
    260a: 01 00        	<unknown>
    260c: 00 2e        	<unknown>
    260e: c6 06        	<unknown>
    2610: 00 00        	<unknown>
    2612: 76 56        	<unknown>
    2614: 00 00        	<unknown>
    2616: 01 69        	<unknown>
    2618: 01 00        	<unknown>
    261a: 00 2e        	<unknown>
    261c: c6 06        	<unknown>
    261e: 00 00        	<unknown>
    2620: 82 56        	<unknown>
    2622: 00 00        	<unknown>
    2624: 03 f0 01 00  	<unknown>
    2628: 00 2e        	<unknown>
    262a: 57 00 00 00  	<unknown>
    262e: 03 39 00 00  	<unknown>
    2632: 00 2e        	<unknown>
    2634: 57 00 00 00  	<unknown>
    2638: 01 eb        	<unknown>
    263a: 01 00        	<unknown>
    263c: 00 2e        	<unknown>
    263e: 57 00 00 00  	<unknown>
    2642: 99 56        	<unknown>
    2644: 00 00        	<unknown>
    2646: 01 34        	<unknown>
    2648: 00 00        	<unknown>
    264a: 00 2e        	<unknown>
    264c: 57 00 00 00  	<unknown>
    2650: a5 56        	<unknown>
    2652: 00 00        	<unknown>
    2654: 00 02        	<unknown>
    2656: e1 08        	<unknown>
    2658: 00 00        	<unknown>
    265a: cc 04        	<unknown>
    265c: 00 00        	<unknown>
    265e: 01 d6        	<unknown>
    2660: 06 00        	<unknown>
    2662: 00 2e        	<unknown>
    2664: c6 06        	<unknown>
    2666: 00 00        	<unknown>
    2668: b1 56        	<unknown>
    266a: 00 00        	<unknown>
    266c: 01 ab        	<unknown>
    266e: 06 00        	<unknown>
    2670: 00 2e        	<unknown>
    2672: c6 06        	<unknown>
    2674: 00 00        	<unknown>
    2676: cd 56        	<unknown>
    2678: 00 00        	<unknown>
    267a: 00 09        	<unknown>
    267c: 18 09        	<unknown>
    267e: 00 00        	<unknown>
    2680: 03 d6 06 00  	lhu	a2, 0(a3)
    2684: 00 2e        	<unknown>
    2686: c6 06        	<unknown>
    2688: 00 00        	<unknown>
    268a: 03 ab 06 00  	lw	s6, 0(a3)
    268e: 00 2e        	<unknown>
    2690: c6 06        	<unknown>
    2692: 00 00        	<unknown>
    2694: 00 00        	<unknown>
    2696: 09 46        	<unknown>
    2698: 09 00        	<unknown>
    269a: 00 01        	<unknown>
    269c: f3 05 00 00  	<unknown>
    26a0: 2e 2d        	<unknown>
    26a2: 00 00        	<unknown>
    26a4: 00 fb        	<unknown>
    26a6: 56 00        	<unknown>
    26a8: 00 09        	<unknown>
    26aa: 6b 09 00 00  	<unknown>
    26ae: 01 57        	<unknown>
    26b0: 06 00        	<unknown>
    26b2: 00 2e        	<unknown>
    26b4: bf 06 00 00  	<unknown>
    26b8: 13 57 00 00  	srli	a4, zero, 0
    26bc: 01 09        	<unknown>
    26be: 06 00        	<unknown>
    26c0: 00 2e        	<unknown>
    26c2: bf 06 00 00  	<unknown>
    26c6: 2c 57        	<unknown>
    26c8: 00 00        	<unknown>
    26ca: 01 30        	<unknown>
    26cc: 06 00        	<unknown>
    26ce: 00 2e        	<unknown>
    26d0: bf 06 00 00  	<unknown>
    26d4: 45 57        	<unknown>
    26d6: 00 00        	<unknown>
    26d8: 01 1e        	<unknown>
    26da: 06 00        	<unknown>
    26dc: 00 2e        	<unknown>
    26de: bf 06 00 00  	<unknown>
    26e2: 5e 57        	<unknown>
    26e4: 00 00        	<unknown>
    26e6: 01 45        	<unknown>
    26e8: 06 00        	<unknown>
    26ea: 00 2e        	<unknown>
    26ec: c6 06        	<unknown>
    26ee: 00 00        	<unknown>
    26f0: 6b 57 00 00  	<unknown>
    26f4: 00 00        	<unknown>
    26f6: 00 07        	<unknown>
    26f8: d0 54        	<unknown>
    26fa: 00 80        	<unknown>
    26fc: 08 00        	<unknown>
    26fe: 00 00        	<unknown>
    2700: 61 05        	<unknown>
    2702: 00 00        	<unknown>
    2704: 0d 5f        	<unknown>
    2706: 5f 78 00 c6  	<unknown>
    270a: 06 00        	<unknown>
    270c: 00 01        	<unknown>
    270e: 5f 00 0a 72  	<unknown>
    2712: 05 00        	<unknown>
    2714: 00 06        	<unknown>
    2716: 5f 5f 78 00  	<unknown>
    271a: 2f 03 c6 06  	<unknown>
    271e: 00 00        	<unknown>
    2720: 00 02        	<unknown>
    2722: 90 09        	<unknown>
    2724: 00 00        	<unknown>
    2726: 87 05 00 00  	<unknown>
    272a: 06 5f        	<unknown>
    272c: 5f 78 00 2f  	<unknown>
    2730: 03 c6 06 00  	lbu	a2, 0(a3)
    2734: 00 00        	<unknown>
    2736: 02 a3        	<unknown>
    2738: 09 00        	<unknown>
    273a: 00 aa        	<unknown>
    273c: 06 00        	<unknown>
    273e: 00 01        	<unknown>
    2740: 4f 05 00 00  	fnmadd.s	fa0, ft0, ft0, ft0, rne
    2744: 2f 2d 00 00  	amoadd.w	s10, zero, (zero)
    2748: 00 9b        	<unknown>
    274a: 57 00 00 07  	<unknown>
    274e: f8 55        	<unknown>
    2750: 00 80        	<unknown>
    2752: 60 00        	<unknown>
    2754: 00 00        	<unknown>
    2756: 2b 06 00 00  	vx_tex	a2, 0, zero, zero, zero
    275a: 03 6a 05 00  	<unknown>
    275e: 00 2f        	<unknown>
    2760: bf 06 00 00  	<unknown>
    2764: 03 38 05 00  	<unknown>
    2768: 00 2f        	<unknown>
    276a: bf 06 00 00  	<unknown>
    276e: 01 81        	<unknown>
    2770: 05 00        	<unknown>
    2772: 00 2f        	<unknown>
    2774: bf 06 00 00  	<unknown>
    2778: cc 57        	<unknown>
    277a: 00 00        	<unknown>
    277c: 01 2d        	<unknown>
    277e: 04 00        	<unknown>
    2780: 00 2f        	<unknown>
    2782: c6 06        	<unknown>
    2784: 00 00        	<unknown>
    2786: d9 57        	<unknown>
    2788: 00 00        	<unknown>
    278a: 01 45        	<unknown>
    278c: 04 00        	<unknown>
    278e: 00 2f        	<unknown>
    2790: c6 06        	<unknown>
    2792: 00 00        	<unknown>
    2794: f0 57        	<unknown>
    2796: 00 00        	<unknown>
    2798: 07 28 56 00  	flw	fa6, 5(a2)
    279c: 80 04        	<unknown>
    279e: 00 00        	<unknown>
    27a0: 00 05        	<unknown>
    27a2: 06 00        	<unknown>
    27a4: 00 04        	<unknown>
    27a6: 5f 5f 78 00  	<unknown>
    27aa: 2f c6 06 00  	<unknown>
    27ae: 00 1d        	<unknown>
    27b0: 58 00        	<unknown>
    27b2: 00 00        	<unknown>
    27b4: 0a 16        	<unknown>
    27b6: 06 00        	<unknown>
    27b8: 00 06        	<unknown>
    27ba: 5f 5f 78 00  	<unknown>
    27be: 2f 03 c6 06  	<unknown>
    27c2: 00 00        	<unknown>
    27c4: 00 09        	<unknown>
    27c6: b6 09        	<unknown>
    27c8: 00 00        	<unknown>
    27ca: 04 5f        	<unknown>
    27cc: 5f 78 00 2f  	<unknown>
    27d0: c6 06        	<unknown>
    27d2: 00 00        	<unknown>
    27d4: 2b 58 00 00  	<unknown>
    27d8: 00 00        	<unknown>
    27da: 07 a4 56 00  	flw	fs0, 5(a3)
    27de: 80 08        	<unknown>
    27e0: 00 00        	<unknown>
    27e2: 00 44        	<unknown>
    27e4: 06 00        	<unknown>
    27e6: 00 0d        	<unknown>
    27e8: 5f 5f 78 00  	<unknown>
    27ec: c6 06        	<unknown>
    27ee: 00 00        	<unknown>
    27f0: 01 5f        	<unknown>
    27f2: 00 0a        	<unknown>
    27f4: 55 06        	<unknown>
    27f6: 00 00        	<unknown>
    27f8: 06 5f        	<unknown>
    27fa: 5f 78 00 2f  	<unknown>
    27fe: 03 c6 06 00  	lbu	a2, 0(a3)
    2802: 00 00        	<unknown>
    2804: 02 c9        	<unknown>
    2806: 09 00        	<unknown>
    2808: 00 6a        	<unknown>
    280a: 06 00        	<unknown>
    280c: 00 06        	<unknown>
    280e: 5f 5f 78 00  	<unknown>
    2812: 2f 03 c6 06  	<unknown>
    2816: 00 00        	<unknown>
    2818: 00 07        	<unknown>
    281a: 88 57        	<unknown>
    281c: 00 80        	<unknown>
    281e: 04 00        	<unknown>
    2820: 00 00        	<unknown>
    2822: 83 06 00 00  	lb	a3, 0(zero)
    2826: 06 5f        	<unknown>
    2828: 5f 78 00 2f  	<unknown>
    282c: 03 c6 06 00  	lbu	a2, 0(a3)
    2830: 00 00        	<unknown>
    2832: 0a 94        	<unknown>
    2834: 06 00        	<unknown>
    2836: 00 06        	<unknown>
    2838: 5f 5f 78 00  	<unknown>
    283c: 2f 03 c6 06  	<unknown>
    2840: 00 00        	<unknown>
    2842: 00 0e        	<unknown>
    2844: b0 57        	<unknown>
    2846: 00 80        	<unknown>
    2848: 08 00        	<unknown>
    284a: 00 00        	<unknown>
    284c: 06 5f        	<unknown>
    284e: 5f 78 00 2f  	<unknown>
    2852: 03 c6 06 00  	lbu	a2, 0(a3)
    2856: 00 00        	<unknown>
    2858: 00 0e        	<unknown>
    285a: 58 55        	<unknown>
    285c: 00 80        	<unknown>
    285e: 20 00        	<unknown>
    2860: 00 00        	<unknown>
    2862: 03 19 02 00  	lh	s2, 0(tp)
    2866: 00 2f        	<unknown>
    2868: b3 00 00 00  	add	ra, zero, zero
    286c: 00 00        	<unknown>
    286e: 05 04        	<unknown>
    2870: 05 43        	<unknown>
    2872: 00 00        	<unknown>
    2874: 00 05        	<unknown>
    2876: 04 07        	<unknown>
    2878: 51 00        	<unknown>
    287a: 00 00        	<unknown>
    287c: 19 c6        	<unknown>
    287e: 06 00        	<unknown>
    2880: 00 dd        	<unknown>
    2882: 06 00        	<unknown>
    2884: 00 1a        	<unknown>
    2886: 49 00        	<unknown>
    2888: 00 00        	<unknown>
    288a: 03 00 1b 1a  	lb	zero, 417(s6)
    288e: 04 00        	<unknown>
    2890: 00 1a        	<unknown>
    2892: 04 00        	<unknown>
    2894: 00 00        	<unknown>
    2896: 37 05 00 00  	lui	a0, 0
    289a: 05 00        	<unknown>
    289c: 01 04        	<unknown>
    289e: a6 0b        	<unknown>
    28a0: 00 00        	<unknown>
    28a2: 0d a3        	<unknown>
    28a4: 02 00        	<unknown>
    28a6: 00 1d        	<unknown>
    28a8: d1 01        	<unknown>
    28aa: 00 00        	<unknown>
    28ac: 21 00        	<unknown>
    28ae: 00 00        	<unknown>
    28b0: fc 57        	<unknown>
    28b2: 00 80        	<unknown>
    28b4: bc 0c        	<unknown>
    28b6: 00 00        	<unknown>
    28b8: 58 51        	<unknown>
    28ba: 00 00        	<unknown>
    28bc: 05 08        	<unknown>
    28be: 04 d2        	<unknown>
    28c0: 01 00        	<unknown>
    28c2: 00 0e        	<unknown>
    28c4: 04 05        	<unknown>
    28c6: 69 6e        	<unknown>
    28c8: 74 00        	<unknown>
    28ca: 05 01        	<unknown>
    28cc: 06 4e        	<unknown>
    28ce: 01 00        	<unknown>
    28d0: 00 05        	<unknown>
    28d2: 08 05        	<unknown>
    28d4: 3e 00        	<unknown>
    28d6: 00 00        	<unknown>
    28d8: 05 01        	<unknown>
    28da: 08 4c        	<unknown>
    28dc: 01 00        	<unknown>
    28de: 00 05        	<unknown>
    28e0: 04 07        	<unknown>
    28e2: 56 00        	<unknown>
    28e4: 00 00        	<unknown>
    28e6: 05 08        	<unknown>
    28e8: 07 4c 00 00  	<unknown>
    28ec: 00 05        	<unknown>
    28ee: 02 07        	<unknown>
    28f0: 7f 01 00 00  	<unknown>
    28f4: 0f 2c 02 00  	<unknown>
    28f8: 00 02        	<unknown>
    28fa: 48 0f        	<unknown>
    28fc: 26 00        	<unknown>
    28fe: 00 00        	<unknown>
    2900: 10 08        	<unknown>
    2902: 02 4f        	<unknown>
    2904: 03 a6 00 00  	lw	a2, 0(ra)
    2908: 00 0a        	<unknown>
    290a: 0d 02        	<unknown>
    290c: 00 00        	<unknown>
    290e: 57 49 00 00  	<unknown>
    2912: 00 20        	<unknown>
    2914: 00 0a        	<unknown>
    2916: 13 02 00 00  	li	tp, 0
    291a: 58 49        	<unknown>
    291c: 00 00        	<unknown>
    291e: 00 14        	<unknown>
    2920: 20 11        	<unknown>
    2922: 65 78        	<unknown>
    2924: 70 00        	<unknown>
    2926: 02 59        	<unknown>
    2928: 0e 49        	<unknown>
    292a: 00 00        	<unknown>
    292c: 00 0b        	<unknown>
    292e: 34 0a        	<unknown>
    2930: 6b 02 00 00  	<unknown>
    2934: 5a 49        	<unknown>
    2936: 00 00        	<unknown>
    2938: 00 01        	<unknown>
    293a: 3f 00 12 dc  	<unknown>
    293e: 03 00 00 08  	lb	zero, 128(zero)
    2942: 02 4c        	<unknown>
    2944: 07 cc 00 00  	<unknown>
    2948: 00 13        	<unknown>
    294a: 66 6c        	<unknown>
    294c: 74 00        	<unknown>
    294e: 02 4e        	<unknown>
    2950: 0a 5e        	<unknown>
    2952: 00 00        	<unknown>
    2954: 00 14        	<unknown>
    2956: 15 04        	<unknown>
    2958: 00 00        	<unknown>
    295a: 02 5c        	<unknown>
    295c: 05 6a        	<unknown>
    295e: 00 00        	<unknown>
    2960: 00 00        	<unknown>
    2962: 15 21        	<unknown>
    2964: 07 00 00 01  	<unknown>
    2968: 23 01 5e 00  	sb	t0, 2(t3)
    296c: 00 00        	<unknown>
    296e: fc 57        	<unknown>
    2970: 00 80        	<unknown>
    2972: bc 0c        	<unknown>
    2974: 00 00        	<unknown>
    2976: 01 9c        	<unknown>
    2978: 23 05 00 00  	sb	zero, 10(zero)
    297c: 0b 61 00 12  	<unknown>
    2980: 5e 00        	<unknown>
    2982: 00 00        	<unknown>
    2984: 45 58        	<unknown>
    2986: 00 00        	<unknown>
    2988: 0b 62 00 1c  	<unknown>
    298c: 5e 00        	<unknown>
    298e: 00 00        	<unknown>
    2990: 66 58        	<unknown>
    2992: 00 00        	<unknown>
    2994: 02 7a        	<unknown>
    2996: 02 00        	<unknown>
    2998: 00 25        	<unknown>
    299a: 2d 00        	<unknown>
    299c: 00 00        	<unknown>
    299e: 87 58 00 00  	<unknown>
    29a2: 02 23        	<unknown>
    29a4: 04 00        	<unknown>
    29a6: 00 25        	<unknown>
    29a8: 2d 00        	<unknown>
    29aa: 00 00        	<unknown>
    29ac: 7e 5a        	<unknown>
    29ae: 00 00        	<unknown>
    29b0: 07 41 5f 63  	<unknown>
    29b4: 00 26        	<unknown>
    29b6: 03 23 05 00  	lw	t1, 0(a0)
    29ba: 00 01        	<unknown>
    29bc: 41 5f        	<unknown>
    29be: 73 00 26 23  	<unknown>
    29c2: 05 00        	<unknown>
    29c4: 00 95        	<unknown>
    29c6: 5a 00        	<unknown>
    29c8: 00 01        	<unknown>
    29ca: 41 5f        	<unknown>
    29cc: 65 00        	<unknown>
    29ce: 26 23        	<unknown>
    29d0: 05 00        	<unknown>
    29d2: 00 d5        	<unknown>
    29d4: 5b 00 00 02  	<unknown>
    29d8: 9e 02        	<unknown>
    29da: 00 00        	<unknown>
    29dc: 26 2a        	<unknown>
    29de: 05 00        	<unknown>
    29e0: 00 28        	<unknown>
    29e2: 5d 00        	<unknown>
    29e4: 00 02        	<unknown>
    29e6: 70 02        	<unknown>
    29e8: 00 00        	<unknown>
    29ea: 26 2a        	<unknown>
    29ec: 05 00        	<unknown>
    29ee: 00 68        	<unknown>
    29f0: 5e 00        	<unknown>
    29f2: 00 07        	<unknown>
    29f4: 42 5f        	<unknown>
    29f6: 63 00 27 03  	beq	a4, s2, 0x2a16 <.debug_info+0x2a16>
    29fa: 23 05 00 00  	sb	zero, 10(zero)
    29fe: 01 42        	<unknown>
    2a00: 5f 73 00 27  	<unknown>
    2a04: 23 05 00 00  	sb	zero, 10(zero)
    2a08: 4d 60        	<unknown>
    2a0a: 00 00        	<unknown>
    2a0c: 01 42        	<unknown>
    2a0e: 5f 65 00 27  	<unknown>
    2a12: 23 05 00 00  	sb	zero, 10(zero)
    2a16: 43 61 00 00  	<unknown>
    2a1a: 02 60        	<unknown>
    2a1c: 03 00 00 27  	lb	zero, 624(zero)
    2a20: 2a 05        	<unknown>
    2a22: 00 00        	<unknown>
    2a24: a4 62        	<unknown>
    2a26: 00 00        	<unknown>
    2a28: 02 65        	<unknown>
    2a2a: 03 00 00 27  	lb	zero, 624(zero)
    2a2e: 2a 05        	<unknown>
    2a30: 00 00        	<unknown>
    2a32: 26 64        	<unknown>
    2a34: 00 00        	<unknown>
    2a36: 07 52 5f 63  	<unknown>
    2a3a: 00 28        	<unknown>
    2a3c: 03 23 05 00  	lw	t1, 0(a0)
    2a40: 00 01        	<unknown>
    2a42: 52 5f        	<unknown>
    2a44: 73 00 28 23  	<unknown>
    2a48: 05 00        	<unknown>
    2a4a: 00 ed        	<unknown>
    2a4c: 65 00        	<unknown>
    2a4e: 00 01        	<unknown>
    2a50: 52 5f        	<unknown>
    2a52: 65 00        	<unknown>
    2a54: 28 23        	<unknown>
    2a56: 05 00        	<unknown>
    2a58: 00 d5        	<unknown>
    2a5a: 66 00        	<unknown>
    2a5c: 00 02        	<unknown>
    2a5e: 3c 02        	<unknown>
    2a60: 00 00        	<unknown>
    2a62: 28 2a        	<unknown>
    2a64: 05 00        	<unknown>
    2a66: 00 11        	<unknown>
    2a68: 69 00        	<unknown>
    2a6a: 00 02        	<unknown>
    2a6c: 28 04        	<unknown>
    2a6e: 00 00        	<unknown>
    2a70: 28 2a        	<unknown>
    2a72: 05 00        	<unknown>
    2a74: 00 a6        	<unknown>
    2a76: 6b 00 00 07  	<unknown>
    2a7a: 72 00        	<unknown>
    2a7c: 29 0a        	<unknown>
    2a7e: 5e 00        	<unknown>
    2a80: 00 00        	<unknown>
    2a82: 03 e8 09 00  	<unknown>
    2a86: 00 00        	<unknown>
    2a88: 02 00        	<unknown>
    2a8a: 00 08        	<unknown>
    2a8c: 41 02        	<unknown>
    2a8e: 00 00        	<unknown>
    2a90: 2c a6        	<unknown>
    2a92: 00 00        	<unknown>
    2a94: 00 00        	<unknown>
    2a96: 03 1f 0a 00  	lh	t5, 0(s4)
    2a9a: 00 14        	<unknown>
    2a9c: 02 00        	<unknown>
    2a9e: 00 08        	<unknown>
    2aa0: 41 02        	<unknown>
    2aa2: 00 00        	<unknown>
    2aa4: 2d a6        	<unknown>
    2aa6: 00 00        	<unknown>
    2aa8: 00 00        	<unknown>
    2aaa: 03 56 0a 00  	lhu	a2, 0(s4)
    2aae: 00 e1        	<unknown>
    2ab0: 02 00        	<unknown>
    2ab2: 00 06        	<unknown>
    2ab4: 06 04        	<unknown>
    2ab6: 00 00        	<unknown>
    2ab8: 0c 5a        	<unknown>
    2aba: 00 80        	<unknown>
    2abc: 06 0b        	<unknown>
    2abe: 04 00        	<unknown>
    2ac0: 00 f8        	<unknown>
    2ac2: 5a 00        	<unknown>
    2ac4: 80 06        	<unknown>
    2ac6: 10 04        	<unknown>
    2ac8: 00 00        	<unknown>
    2aca: d4 59        	<unknown>
    2acc: 00 80        	<unknown>
    2ace: 06 33        	<unknown>
    2ad0: 02 00        	<unknown>
    2ad2: 00 60        	<unknown>
    2ad4: 62 00        	<unknown>
    2ad6: 80 02        	<unknown>
    2ad8: c5 03        	<unknown>
    2ada: 00 00        	<unknown>
    2adc: 2e 2d        	<unknown>
    2ade: 00 00        	<unknown>
    2ae0: 00 4f        	<unknown>
    2ae2: 6e 00        	<unknown>
    2ae4: 00 16        	<unknown>
    2ae6: 60 02        	<unknown>
    2ae8: 00 00        	<unknown>
    2aea: 07 5f 5f 78  	<unknown>
    2aee: 00 2e        	<unknown>
    2af0: 03 2a 05 00  	lw	s4, 0(a0)
    2af4: 00 00        	<unknown>
    2af6: 04 c0        	<unknown>
    2af8: 59 00        	<unknown>
    2afa: 80 10        	<unknown>
    2afc: 00 00        	<unknown>
    2afe: 00 7c        	<unknown>
    2b00: 02 00        	<unknown>
    2b02: 00 01        	<unknown>
    2b04: 5f 5f 78 00  	<unknown>
    2b08: 2e 2a        	<unknown>
    2b0a: 05 00        	<unknown>
    2b0c: 00 16        	<unknown>
    2b0e: 6f 00 00 00  	j	0x2b0e <.debug_info+0x2b0e>
    2b12: 04 f4        	<unknown>
    2b14: 58 00        	<unknown>
    2b16: 80 10        	<unknown>
    2b18: 00 00        	<unknown>
    2b1a: 00 98        	<unknown>
    2b1c: 02 00        	<unknown>
    2b1e: 00 01        	<unknown>
    2b20: 5f 5f 78 00  	<unknown>
    2b24: 2e 2a        	<unknown>
    2b26: 05 00        	<unknown>
    2b28: 00 32        	<unknown>
    2b2a: 6f 00 00 00  	j	0x2b2a <.debug_info+0x2b2a>
    2b2e: 04 9c        	<unknown>
    2b30: 5a 00        	<unknown>
    2b32: 80 10        	<unknown>
    2b34: 00 00        	<unknown>
    2b36: 00 b4        	<unknown>
    2b38: 02 00        	<unknown>
    2b3a: 00 01        	<unknown>
    2b3c: 5f 5f 78 00  	<unknown>
    2b40: 2e 2a        	<unknown>
    2b42: 05 00        	<unknown>
    2b44: 00 59        	<unknown>
    2b46: 6f 00 00 00  	j	0x2b46 <.debug_info+0x2b46>
    2b4a: 03 53 0b 00  	lhu	t1, 0(s6)
    2b4e: 00 cc        	<unknown>
    2b50: 02 00        	<unknown>
    2b52: 00 01        	<unknown>
    2b54: 5f 5f 78 00  	<unknown>
    2b58: 2e 2a        	<unknown>
    2b5a: 05 00        	<unknown>
    2b5c: 00 75        	<unknown>
    2b5e: 6f 00 00 00  	j	0x2b5e <.debug_info+0x2b5e>
    2b62: 09 66        	<unknown>
    2b64: 0b 00 00 01  	<unknown>
    2b68: 5f 5f 78 00  	<unknown>
    2b6c: 2e 2a        	<unknown>
    2b6e: 05 00        	<unknown>
    2b70: 00 81        	<unknown>
    2b72: 6f 00 00 00  	j	0x2b72 <.debug_info+0x2b72>
    2b76: 00 03        	<unknown>
    2b78: 79 0b        	<unknown>
    2b7a: 00 00        	<unknown>
    2b7c: 20 04        	<unknown>
    2b7e: 00 00        	<unknown>
    2b80: 06 75        	<unknown>
    2b82: 02 00        	<unknown>
    2b84: 00 b4        	<unknown>
    2b86: 5d 00        	<unknown>
    2b88: 80 06        	<unknown>
    2b8a: ff 01 00 00  	<unknown>
    2b8e: 0c 5f        	<unknown>
    2b90: 00 80        	<unknown>
    2b92: 06 7f        	<unknown>
    2b94: 02 00        	<unknown>
    2b96: 00 20        	<unknown>
    2b98: 5e 00        	<unknown>
    2b9a: 80 06        	<unknown>
    2b9c: 99 02        	<unknown>
    2b9e: 00 00        	<unknown>
    2ba0: 30 61        	<unknown>
    2ba2: 00 80        	<unknown>
    2ba4: 06 fd        	<unknown>
    2ba6: 03 00 00 60  	lb	zero, 1536(zero)
    2baa: 62 00        	<unknown>
    2bac: 80 02        	<unknown>
    2bae: c5 03        	<unknown>
    2bb0: 00 00        	<unknown>
    2bb2: 2e 2d        	<unknown>
    2bb4: 00 00        	<unknown>
    2bb6: 00 cd        	<unknown>
    2bb8: 6f 00 00 04  	j	0x2bf8 <.debug_info+0x2bf8>
    2bbc: 98 5d        	<unknown>
    2bbe: 00 80        	<unknown>
    2bc0: 10 00        	<unknown>
    2bc2: 00 00        	<unknown>
    2bc4: 41 03        	<unknown>
    2bc6: 00 00        	<unknown>
    2bc8: 01 5f        	<unknown>
    2bca: 5f 78 00 2e  	<unknown>
    2bce: 2a 05        	<unknown>
    2bd0: 00 00        	<unknown>
    2bd2: 97 70 00 00  	auipc	ra, 7
    2bd6: 00 04        	<unknown>
    2bd8: 08 5e        	<unknown>
    2bda: 00 80        	<unknown>
    2bdc: 14 00        	<unknown>
    2bde: 00 00        	<unknown>
    2be0: 5d 03        	<unknown>
    2be2: 00 00        	<unknown>
    2be4: 01 5f        	<unknown>
    2be6: 5f 78 00 2e  	<unknown>
    2bea: 2a 05        	<unknown>
    2bec: 00 00        	<unknown>
    2bee: b3 70 00 00  	and	ra, zero, zero
    2bf2: 00 03        	<unknown>
    2bf4: 76 0c        	<unknown>
    2bf6: 00 00        	<unknown>
    2bf8: 75 03        	<unknown>
    2bfa: 00 00        	<unknown>
    2bfc: 01 5f        	<unknown>
    2bfe: 5f 78 00 2e  	<unknown>
    2c02: 2a 05        	<unknown>
    2c04: 00 00        	<unknown>
    2c06: bf 70 00 00  	<unknown>
    2c0a: 00 04        	<unknown>
    2c0c: 60 5f        	<unknown>
    2c0e: 00 80        	<unknown>
    2c10: 14 00        	<unknown>
    2c12: 00 00        	<unknown>
    2c14: 91 03        	<unknown>
    2c16: 00 00        	<unknown>
    2c18: 01 5f        	<unknown>
    2c1a: 5f 78 00 2e  	<unknown>
    2c1e: 2a 05        	<unknown>
    2c20: 00 00        	<unknown>
    2c22: cb 70 00 00  	fnmsub.s	ft1, ft0, ft0, ft0
    2c26: 00 03        	<unknown>
    2c28: b7 0c 00 00  	lui	s9, 0
    2c2c: a9 03        	<unknown>
    2c2e: 00 00        	<unknown>
    2c30: 01 5f        	<unknown>
    2c32: 5f 78 00 2e  	<unknown>
    2c36: 2a 05        	<unknown>
    2c38: 00 00        	<unknown>
    2c3a: d7 70 00 00  	<unknown>
    2c3e: 00 04        	<unknown>
    2c40: 0c 60        	<unknown>
    2c42: 00 80        	<unknown>
    2c44: 10 00        	<unknown>
    2c46: 00 00        	<unknown>
    2c48: c5 03        	<unknown>
    2c4a: 00 00        	<unknown>
    2c4c: 01 5f        	<unknown>
    2c4e: 5f 78 00 2e  	<unknown>
    2c52: 2a 05        	<unknown>
    2c54: 00 00        	<unknown>
    2c56: ee 70        	<unknown>
    2c58: 00 00        	<unknown>
    2c5a: 00 03        	<unknown>
    2c5c: ca 0c        	<unknown>
    2c5e: 00 00        	<unknown>
    2c60: dd 03        	<unknown>
    2c62: 00 00        	<unknown>
    2c64: 01 5f        	<unknown>
    2c66: 5f 78 00 2e  	<unknown>
    2c6a: 2a 05        	<unknown>
    2c6c: 00 00        	<unknown>
    2c6e: 0a 71        	<unknown>
    2c70: 00 00        	<unknown>
    2c72: 00 04        	<unknown>
    2c74: 1c 61        	<unknown>
    2c76: 00 80        	<unknown>
    2c78: 10 00        	<unknown>
    2c7a: 00 00        	<unknown>
    2c7c: f9 03        	<unknown>
    2c7e: 00 00        	<unknown>
    2c80: 01 5f        	<unknown>
    2c82: 5f 78 00 2e  	<unknown>
    2c86: 2a 05        	<unknown>
    2c88: 00 00        	<unknown>
    2c8a: 2c 71        	<unknown>
    2c8c: 00 00        	<unknown>
    2c8e: 00 09        	<unknown>
    2c90: 89 0c        	<unknown>
    2c92: 00 00        	<unknown>
    2c94: 02 6a        	<unknown>
    2c96: 03 00 00 2e  	lb	zero, 736(zero)
    2c9a: 2d 00        	<unknown>
    2c9c: 00 00        	<unknown>
    2c9e: 48 71        	<unknown>
    2ca0: 00 00        	<unknown>
    2ca2: 0c 3c        	<unknown>
    2ca4: 61 00        	<unknown>
    2ca6: 80 31        	<unknown>
    2ca8: 05 00        	<unknown>
    2caa: 00 0c        	<unknown>
    2cac: fc 61        	<unknown>
    2cae: 00 80        	<unknown>
    2cb0: 31 05        	<unknown>
    2cb2: 00 00        	<unknown>
    2cb4: 00 00        	<unknown>
    2cb6: 03 dd 0c 00  	lhu	s10, 0(s9)
    2cba: 00 0e        	<unknown>
    2cbc: 05 00        	<unknown>
    2cbe: 00 02        	<unknown>
    2cc0: 80 03        	<unknown>
    2cc2: 00 00        	<unknown>
    2cc4: 2f 2d 00 00  	amoadd.w	s10, zero, (zero)
    2cc8: 00 a5        	<unknown>
    2cca: 71 00        	<unknown>
    2ccc: 00 03        	<unknown>
    2cce: 79 0d        	<unknown>
    2cd0: 00 00        	<unknown>
    2cd2: c8 04        	<unknown>
    2cd4: 00 00        	<unknown>
    2cd6: 08 e8        	<unknown>
    2cd8: 03 00 00 2f  	lb	zero, 752(zero)
    2cdc: 23 05 00 00  	sb	zero, 10(zero)
    2ce0: 02 56        	<unknown>
    2ce2: 02 00        	<unknown>
    2ce4: 00 2f        	<unknown>
    2ce6: 23 05 00 00  	sb	zero, 10(zero)
    2cea: fa 71        	<unknown>
    2cec: 00 00        	<unknown>
    2cee: 02 84        	<unknown>
    2cf0: 02 00        	<unknown>
    2cf2: 00 2f        	<unknown>
    2cf4: 23 05 00 00  	sb	zero, 10(zero)
    2cf8: 27 72 00 00  	<unknown>
    2cfc: 02 99        	<unknown>
    2cfe: 03 00 00 2f  	lb	zero, 752(zero)
    2d02: 2a 05        	<unknown>
    2d04: 00 00        	<unknown>
    2d06: 58 72        	<unknown>
    2d08: 00 00        	<unknown>
    2d0a: 02 af        	<unknown>
    2d0c: 03 00 00 2f  	lb	zero, 752(zero)
    2d10: 2a 05        	<unknown>
    2d12: 00 00        	<unknown>
    2d14: 31 73        	<unknown>
    2d16: 00 00        	<unknown>
    2d18: 04 c8        	<unknown>
    2d1a: 61 00        	<unknown>
    2d1c: 80 04        	<unknown>
    2d1e: 00 00        	<unknown>
    2d20: 00 9b        	<unknown>
    2d22: 04 00        	<unknown>
    2d24: 00 07        	<unknown>
    2d26: 5f 5f 78 00  	<unknown>
    2d2a: 2f 03 2a 05  	<unknown>
    2d2e: 00 00        	<unknown>
    2d30: 00 03        	<unknown>
    2d32: d4 0d        	<unknown>
    2d34: 00 00        	<unknown>
    2d36: b3 04 00 00  	add	s1, zero, zero
    2d3a: 01 5f        	<unknown>
    2d3c: 5f 78 00 2f  	<unknown>
    2d40: 2a 05        	<unknown>
    2d42: 00 00        	<unknown>
    2d44: 91 74        	<unknown>
    2d46: 00 00        	<unknown>
    2d48: 00 09        	<unknown>
    2d4a: e7 0d 00 00  	jalr	s11, zero
    2d4e: 01 5f        	<unknown>
    2d50: 5f 78 00 2f  	<unknown>
    2d54: 2a 05        	<unknown>
    2d56: 00 00        	<unknown>
    2d58: 9f 74 00 00  	<unknown>
    2d5c: 00 00        	<unknown>
    2d5e: 04 08        	<unknown>
    2d60: 5d 00        	<unknown>
    2d62: 80 08        	<unknown>
    2d64: 00 00        	<unknown>
    2d66: 00 e4        	<unknown>
    2d68: 04 00        	<unknown>
    2d6a: 00 17        	<unknown>
    2d6c: 5f 5f 78 00  	<unknown>
    2d70: 01 2f        	<unknown>
    2d72: 03 2a 05 00  	lw	s4, 0(a0)
    2d76: 00 01        	<unknown>
    2d78: 5a 00        	<unknown>
    2d7a: 03 66 0d 00  	<unknown>
    2d7e: 00 f9        	<unknown>
    2d80: 04 00        	<unknown>
    2d82: 00 07        	<unknown>
    2d84: 5f 5f 78 00  	<unknown>
    2d88: 2f 03 2a 05  	<unknown>
    2d8c: 00 00        	<unknown>
    2d8e: 00 09        	<unknown>
    2d90: 53 0d 00 00  	fadd.s	fs10, ft0, ft0, rne
    2d94: 01 5f        	<unknown>
    2d96: 5f 78 00 2f  	<unknown>
    2d9a: 2a 05        	<unknown>
    2d9c: 00 00        	<unknown>
    2d9e: cf 74 00 00  	fnmadd.s	fs1, ft0, ft0, ft0
    2da2: 00 00        	<unknown>
    2da4: 18 b8        	<unknown>
    2da6: 63 00 80 28  	beq	zero, s0, 0x3026 <.debug_info+0x3026>
    2daa: 00 00        	<unknown>
    2dac: 00 08        	<unknown>
    2dae: 19 02        	<unknown>
    2db0: 00 00        	<unknown>
    2db2: 2f a6 00 00  	amoadd.w	a2, zero, (ra)
    2db6: 00 00        	<unknown>
    2db8: 00 05        	<unknown>
    2dba: 04 05        	<unknown>
    2dbc: 43 00 00 00  	fmadd.s	ft0, ft0, ft0, ft0, rne
    2dc0: 05 04        	<unknown>
    2dc2: 07 51 00 00  	<unknown>
    2dc6: 00 19        	<unknown>
    2dc8: 1a 04        	<unknown>
    2dca: 00 00        	<unknown>
    2dcc: 1a 04        	<unknown>
    2dce: 00 00        	<unknown>
    2dd0: 00 c7        	<unknown>
    2dd2: 01 00        	<unknown>
    2dd4: 00 05        	<unknown>
    2dd6: 00 01        	<unknown>
    2dd8: 04 20        	<unknown>
    2dda: 0d 00        	<unknown>
    2ddc: 00 08        	<unknown>
    2dde: a3 02 00 00  	sb	zero, 5(zero)
    2de2: 1d f9        	<unknown>
    2de4: 01 00        	<unknown>
    2de6: 00 21        	<unknown>
    2de8: 00 00        	<unknown>
    2dea: 00 b8        	<unknown>
    2dec: 64 00        	<unknown>
    2dee: 80 00        	<unknown>
    2df0: 01 00        	<unknown>
    2df2: 00 1f        	<unknown>
    2df4: 69 00        	<unknown>
    2df6: 00 01        	<unknown>
    2df8: 08 04        	<unknown>
    2dfa: d2 01        	<unknown>
    2dfc: 00 00        	<unknown>
    2dfe: 09 04        	<unknown>
    2e00: 05 69        	<unknown>
    2e02: 6e 74        	<unknown>
    2e04: 00 01        	<unknown>
    2e06: 01 06        	<unknown>
    2e08: 4e 01        	<unknown>
    2e0a: 00 00        	<unknown>
    2e0c: 04 da        	<unknown>
    2e0e: 01 00        	<unknown>
    2e10: 00 48        	<unknown>
    2e12: 01 0d        	<unknown>
    2e14: 2d 00        	<unknown>
    2e16: 00 00        	<unknown>
    2e18: 01 08        	<unknown>
    2e1a: 05 3e        	<unknown>
    2e1c: 00 00        	<unknown>
    2e1e: 00 01        	<unknown>
    2e20: 01 08        	<unknown>
    2e22: 4c 01        	<unknown>
    2e24: 00 00        	<unknown>
    2e26: 04 d9        	<unknown>
    2e28: 01 00        	<unknown>
    2e2a: 00 4b        	<unknown>
    2e2c: 01 16        	<unknown>
    2e2e: 61 00        	<unknown>
    2e30: 00 00        	<unknown>
    2e32: 01 04        	<unknown>
    2e34: 07 56 00 00  	<unknown>
    2e38: 00 01        	<unknown>
    2e3a: 08 07        	<unknown>
    2e3c: 4c 00        	<unknown>
    2e3e: 00 00        	<unknown>
    2e40: 01 02        	<unknown>
    2e42: 07 7f 01 00  	<unknown>
    2e46: 00 0a        	<unknown>
    2e48: 2c 02        	<unknown>
    2e4a: 00 00        	<unknown>
    2e4c: 03 48 0f 26  	lbu	a6, 608(t5)
    2e50: 00 00        	<unknown>
    2e52: 00 0b        	<unknown>
    2e54: 08 03        	<unknown>
    2e56: 4f 03 be 00  	fnmadd.s	ft6, ft8, fa1, ft0, rne
    2e5a: 00 00        	<unknown>
    2e5c: 03 0d 02 00  	lb	s10, 0(tp)
    2e60: 00 57        	<unknown>
    2e62: 61 00        	<unknown>
    2e64: 00 00        	<unknown>
    2e66: 20 00        	<unknown>
    2e68: 03 13 02 00  	lh	t1, 0(tp)
    2e6c: 00 58        	<unknown>
    2e6e: 61 00        	<unknown>
    2e70: 00 00        	<unknown>
    2e72: 14 20        	<unknown>
    2e74: 0c 65        	<unknown>
    2e76: 78 70        	<unknown>
    2e78: 00 03        	<unknown>
    2e7a: 59 0e        	<unknown>
    2e7c: 61 00        	<unknown>
    2e7e: 00 00        	<unknown>
    2e80: 0b 34 03 6b  	<unknown>
    2e84: 02 00        	<unknown>
    2e86: 00 5a        	<unknown>
    2e88: 61 00        	<unknown>
    2e8a: 00 00        	<unknown>
    2e8c: 01 3f        	<unknown>
    2e8e: 00 0d        	<unknown>
    2e90: dc 03        	<unknown>
    2e92: 00 00        	<unknown>
    2e94: 08 03        	<unknown>
    2e96: 4c 07        	<unknown>
    2e98: e4 00        	<unknown>
    2e9a: 00 00        	<unknown>
    2e9c: 0e 66        	<unknown>
    2e9e: 6c 74        	<unknown>
    2ea0: 00 03        	<unknown>
    2ea2: 4e 0a        	<unknown>
    2ea4: 76 00        	<unknown>
    2ea6: 00 00        	<unknown>
    2ea8: 0f 15 04 00  	<unknown>
    2eac: 00 03        	<unknown>
    2eae: 5c 05        	<unknown>
    2eb0: 82 00        	<unknown>
    2eb2: 00 00        	<unknown>
    2eb4: 00 10        	<unknown>
    2eb6: 3d 07        	<unknown>
    2eb8: 00 00        	<unknown>
    2eba: 01 23        	<unknown>
    2ebc: 01 3b        	<unknown>
    2ebe: 00 00        	<unknown>
    2ec0: 00 b8        	<unknown>
    2ec2: 64 00        	<unknown>
    2ec4: 80 00        	<unknown>
    2ec6: 01 00        	<unknown>
    2ec8: 00 01        	<unknown>
    2eca: 9c bc        	<unknown>
    2ecc: 01 00        	<unknown>
    2ece: 00 11        	<unknown>
    2ed0: 61 00        	<unknown>
    2ed2: 01 23        	<unknown>
    2ed4: 13 76 00 00  	andi	a2, zero, 0
    2ed8: 00 e7        	<unknown>
    2eda: 74 00        	<unknown>
    2edc: 00 02        	<unknown>
    2ede: 7a 02        	<unknown>
    2ee0: 00 00        	<unknown>
    2ee2: 25 2d        	<unknown>
    2ee4: 00 00        	<unknown>
    2ee6: 00 68        	<unknown>
    2ee8: 75 00        	<unknown>
    2eea: 00 05        	<unknown>
    2eec: 23 04 00 00  	sb	zero, 8(zero)
    2ef0: 25 2d        	<unknown>
    2ef2: 00 00        	<unknown>
    2ef4: 00 12        	<unknown>
    2ef6: 41 5f        	<unknown>
    2ef8: 63 00 01 26  	beqz	sp, 0x3158 <.debug_info+0x3158>
    2efc: 03 bc 01 00  	<unknown>
    2f00: 00 13        	<unknown>
    2f02: 41 5f        	<unknown>
    2f04: 73 00 01 26  	<unknown>
    2f08: 03 bc 01 00  	<unknown>
    2f0c: 00 06        	<unknown>
    2f0e: 7b 00 08 ff  	<unknown>
    2f12: 1a 9f        	<unknown>
    2f14: 06 41        	<unknown>
    2f16: 5f 65 00 26  	<unknown>
    2f1a: 03 bc 01 00  	<unknown>
    2f1e: 00 81        	<unknown>
    2f20: 75 00        	<unknown>
    2f22: 00 02        	<unknown>
    2f24: 9e 02        	<unknown>
    2f26: 00 00        	<unknown>
    2f28: 26 c3        	<unknown>
    2f2a: 01 00        	<unknown>
    2f2c: 00 b1        	<unknown>
    2f2e: 75 00        	<unknown>
    2f30: 00 02        	<unknown>
    2f32: 70 02        	<unknown>
    2f34: 00 00        	<unknown>
    2f36: 26 c3        	<unknown>
    2f38: 01 00        	<unknown>
    2f3a: 00 55        	<unknown>
    2f3c: 76 00        	<unknown>
    2f3e: 00 06        	<unknown>
    2f40: 72 00        	<unknown>
    2f42: 27 0b 55 00  	<unknown>
    2f46: 00 00        	<unknown>
    2f48: bd 76        	<unknown>
    2f4a: 00 00        	<unknown>
    2f4c: 07 06 0e 00  	<unknown>
    2f50: 00 8f        	<unknown>
    2f52: 01 00        	<unknown>
    2f54: 00 05        	<unknown>
    2f56: 41 02        	<unknown>
    2f58: 00 00        	<unknown>
    2f5a: 2a be        	<unknown>
    2f5c: 00 00        	<unknown>
    2f5e: 00 00        	<unknown>
    2f60: 07 19 0e 00  	<unknown>
    2f64: 00 a7        	<unknown>
    2f66: 01 00        	<unknown>
    2f68: 00 02        	<unknown>
    2f6a: 2a 07        	<unknown>
    2f6c: 00 00        	<unknown>
    2f6e: 2b 2d 00 00  	<unknown>
    2f72: 00 06        	<unknown>
    2f74: 77 00 00 00  	<unknown>
    2f78: 14 3e        	<unknown>
    2f7a: 0e 00        	<unknown>
    2f7c: 00 02        	<unknown>
    2f7e: 2a 07        	<unknown>
    2f80: 00 00        	<unknown>
    2f82: 2b 2d 00 00  	<unknown>
    2f86: 00 3f        	<unknown>
    2f88: 77 00 00 00  	<unknown>
    2f8c: 00 01        	<unknown>
    2f8e: 04 05        	<unknown>
    2f90: 43 00 00 00  	fmadd.s	ft0, ft0, ft0, ft0, rne
    2f94: 01 04        	<unknown>
    2f96: 07 51 00 00  	<unknown>
    2f9a: 00 00        	<unknown>
    2f9c: b4 01        	<unknown>
    2f9e: 00 00        	<unknown>
    2fa0: 05 00        	<unknown>
    2fa2: 01 04        	<unknown>
    2fa4: 63 0e 00 00  	beqz	zero, 0x2fc0 <.debug_info+0x2fc0>
    2fa8: 06 a3        	<unknown>
    2faa: 02 00        	<unknown>
    2fac: 00 1d        	<unknown>
    2fae: 22 02        	<unknown>
    2fb0: 00 00        	<unknown>
